
helloworld_pc-x86.elf:	file format elf64-x86-64

Disassembly of section .text:

ffffff8000200000 <stext>:
ffffff8000200000: 89 c7                	movl	%eax, %edi
ffffff8000200002: 89 de                	movl	%ebx, %esi
ffffff8000200004: eb 22                	jmp	0xffffff8000200028 <bsp_entry32>
ffffff8000200006: 66 90                	nop

ffffff8000200008 <multiboot_header>:
ffffff8000200008: 02 b0 ad 1b 02 00 01 00         ........
ffffff8000200010: fc 4f 51 e4 08 00 20 00         .OQ... .
ffffff8000200018: 00 00 20 00 00 10 21 00         .. ...!.
ffffff8000200020: 00 40 25 00 00 00 20 00         .@%... .

ffffff8000200028 <bsp_entry32>:
ffffff8000200028: 0f 01 15 00 98 20 00 	lgdtq	2136064(%rip)           # 0xffffff800040982f <ekernel+0x1b582f>
ffffff800020002f: 66 b8 18 00          	movw	$24, %ax
ffffff8000200033: 66 8e d0             	movw	%ax, %ss
ffffff8000200036: 66 8e d8             	movw	%ax, %ds
ffffff8000200039: 66 8e c0             	movw	%ax, %es
ffffff800020003c: 66 8e e0             	movw	%ax, %fs
ffffff800020003f: 66 8e e8             	movw	%ax, %gs
ffffff8000200042: b8 a0 00 00 00       	movl	$160, %eax
ffffff8000200047: 0f 22 e0             	movq	%rax, %cr4
ffffff800020004a: 8d 05 00 d0 20 00    	leal	2150400(%rip), %eax     # 0xffffff800040d050 <ekernel+0x1b9050>
ffffff8000200050: 0f 22 d8             	movq	%rax, %cr3
ffffff8000200053: b9 80 00 00 c0       	movl	$3221225600, %ecx       # imm = 0xC0000080
ffffff8000200058: ba 00 00 00 00       	movl	$0, %edx
ffffff800020005d: b8 00 09 00 00       	movl	$2304, %eax             # imm = 0x900
ffffff8000200062: 0f 30                	wrmsr
ffffff8000200064: b8 23 00 01 80       	movl	$2147549219, %eax       # imm = 0x80010023
ffffff8000200069: 0f 22 c0             	movq	%rax, %cr0
ffffff800020006c: ea                   	<unknown>
ffffff800020006d: b7 00                	movb	$0, %bh
ffffff800020006f: 20 00                	andb	%al, (%rax)
ffffff8000200071: 10 00                	adcb	%al, (%rax)

ffffff8000200073 <ap_entry32>:
ffffff8000200073: 66 b8 18 00          	movw	$24, %ax
ffffff8000200077: 66 8e d0             	movw	%ax, %ss
ffffff800020007a: 66 8e d8             	movw	%ax, %ds
ffffff800020007d: 66 8e c0             	movw	%ax, %es
ffffff8000200080: 66 8e e0             	movw	%ax, %fs
ffffff8000200083: 66 8e e8             	movw	%ax, %gs
ffffff8000200086: b8 a0 00 00 00       	movl	$160, %eax
ffffff800020008b: 0f 22 e0             	movq	%rax, %cr4
ffffff800020008e: 8d 05 00 d0 20 00    	leal	2150400(%rip), %eax     # 0xffffff800040d094 <ekernel+0x1b9094>
ffffff8000200094: 0f 22 d8             	movq	%rax, %cr3
ffffff8000200097: b9 80 00 00 c0       	movl	$3221225600, %ecx       # imm = 0xC0000080
ffffff800020009c: ba 00 00 00 00       	movl	$0, %edx
ffffff80002000a1: b8 00 09 00 00       	movl	$2304, %eax             # imm = 0x900
ffffff80002000a6: 0f 30                	wrmsr
ffffff80002000a8: b8 23 00 01 80       	movl	$2147549219, %eax       # imm = 0x80010023
ffffff80002000ad: 0f 22 c0             	movq	%rax, %cr0
ffffff80002000b0: ea                   	<unknown>
ffffff80002000b1: e8 00 20 00 10       	callq	0xffffff80102020b6 <ekernel+0xffae0b6>
ffffff80002000b6: 00 66 31             	addb	%ah, 49(%rsi)

ffffff80002000b7 <bsp_entry64>:
ffffff80002000b7: 66 31 c0             	xorw	%ax, %ax
ffffff80002000ba: 66 8e d0             	movw	%ax, %ss
ffffff80002000bd: 66 8e d8             	movw	%ax, %ds
ffffff80002000c0: 66 8e c0             	movw	%ax, %es
ffffff80002000c3: 66 8e e0             	movw	%ax, %fs
ffffff80002000c6: 66 8e e8             	movw	%ax, %gs
ffffff80002000c9: 48 bc 00 20 21 00 80 ff ff ff	movabsq	$-549753643008, %rsp # imm = 0xFFFFFF8000212000
ffffff80002000d3: 48 81 c4 00 00 04 00 	addq	$262144, %rsp           # imm = 0x40000
ffffff80002000da: 48 b8 d0 15 20 00 80 ff ff ff	movabsq	$-549753711152, %rax # imm = 0xFFFFFF80002015D0
ffffff80002000e4: ff d0                	callq	*%rax
ffffff80002000e6: eb 34                	jmp	0xffffff800020011c <ap_entry64+0x34>

ffffff80002000e8 <ap_entry64>:
ffffff80002000e8: 66 31 c0             	xorw	%ax, %ax
ffffff80002000eb: 66 8e d0             	movw	%ax, %ss
ffffff80002000ee: 66 8e d8             	movw	%ax, %ds
ffffff80002000f1: 66 8e c0             	movw	%ax, %es
ffffff80002000f4: 66 8e e0             	movw	%ax, %fs
ffffff80002000f7: 66 8e e8             	movw	%ax, %gs
ffffff80002000fa: 48 b8 00 00 00 00 80 ff ff ff	movabsq	$-549755813888, %rax # imm = 0xFFFFFF8000000000
ffffff8000200104: 48 01 c4             	addq	%rax, %rsp
ffffff8000200107: 48 c7 c7 02 b0 ad 2b 	movq	$732803074, %rdi        # imm = 0x2BADB002
ffffff800020010e: 48 b8 d0 52 20 00 80 ff ff ff	movabsq	$-549753695536, %rax # imm = 0xFFFFFF80002052D0
ffffff8000200118: ff d0                	callq	*%rax
ffffff800020011a: eb 00                	jmp	0xffffff800020011c <ap_entry64+0x34>
ffffff800020011c: f4                   	hlt
ffffff800020011d: eb fd                	jmp	0xffffff800020011c <ap_entry64+0x34>
ffffff800020011f: cc                   	int3

ffffff8000200120 <_trap_handlers>:
ffffff8000200120: 6a 00                	pushq	$0
ffffff8000200122: 6a 00                	pushq	$0
ffffff8000200124: e9 3c 0a 00 00       	jmp	0xffffff8000200b65 <_trap_handlers+0xa45>
ffffff8000200129: 6a 00                	pushq	$0
ffffff800020012b: 6a 01                	pushq	$1
ffffff800020012d: e9 33 0a 00 00       	jmp	0xffffff8000200b65 <_trap_handlers+0xa45>
ffffff8000200132: 6a 00                	pushq	$0
ffffff8000200134: 6a 02                	pushq	$2
ffffff8000200136: e9 2a 0a 00 00       	jmp	0xffffff8000200b65 <_trap_handlers+0xa45>
ffffff800020013b: 6a 00                	pushq	$0
ffffff800020013d: 6a 03                	pushq	$3
ffffff800020013f: e9 21 0a 00 00       	jmp	0xffffff8000200b65 <_trap_handlers+0xa45>
ffffff8000200144: 6a 00                	pushq	$0
ffffff8000200146: 6a 04                	pushq	$4
ffffff8000200148: e9 18 0a 00 00       	jmp	0xffffff8000200b65 <_trap_handlers+0xa45>
ffffff800020014d: 6a 00                	pushq	$0
ffffff800020014f: 6a 05                	pushq	$5
ffffff8000200151: e9 0f 0a 00 00       	jmp	0xffffff8000200b65 <_trap_handlers+0xa45>
ffffff8000200156: 6a 00                	pushq	$0
ffffff8000200158: 6a 06                	pushq	$6
ffffff800020015a: e9 06 0a 00 00       	jmp	0xffffff8000200b65 <_trap_handlers+0xa45>
ffffff800020015f: 6a 00                	pushq	$0
ffffff8000200161: 6a 07                	pushq	$7
ffffff8000200163: e9 fd 09 00 00       	jmp	0xffffff8000200b65 <_trap_handlers+0xa45>
ffffff8000200168: 6a 08                	pushq	$8
ffffff800020016a: e9 f6 09 00 00       	jmp	0xffffff8000200b65 <_trap_handlers+0xa45>
ffffff800020016f: 6a 00                	pushq	$0
ffffff8000200171: 6a 09                	pushq	$9
ffffff8000200173: e9 ed 09 00 00       	jmp	0xffffff8000200b65 <_trap_handlers+0xa45>
ffffff8000200178: 6a 0a                	pushq	$10
ffffff800020017a: e9 e6 09 00 00       	jmp	0xffffff8000200b65 <_trap_handlers+0xa45>
ffffff800020017f: 6a 0b                	pushq	$11
ffffff8000200181: e9 df 09 00 00       	jmp	0xffffff8000200b65 <_trap_handlers+0xa45>
ffffff8000200186: 6a 0c                	pushq	$12
ffffff8000200188: e9 d8 09 00 00       	jmp	0xffffff8000200b65 <_trap_handlers+0xa45>
ffffff800020018d: 6a 0d                	pushq	$13
ffffff800020018f: e9 d1 09 00 00       	jmp	0xffffff8000200b65 <_trap_handlers+0xa45>
ffffff8000200194: 6a 0e                	pushq	$14
ffffff8000200196: e9 ca 09 00 00       	jmp	0xffffff8000200b65 <_trap_handlers+0xa45>
ffffff800020019b: 6a 00                	pushq	$0
ffffff800020019d: 6a 0f                	pushq	$15
ffffff800020019f: e9 c1 09 00 00       	jmp	0xffffff8000200b65 <_trap_handlers+0xa45>
ffffff80002001a4: 6a 00                	pushq	$0
ffffff80002001a6: 6a 10                	pushq	$16
ffffff80002001a8: e9 b8 09 00 00       	jmp	0xffffff8000200b65 <_trap_handlers+0xa45>
ffffff80002001ad: 6a 11                	pushq	$17
ffffff80002001af: e9 b1 09 00 00       	jmp	0xffffff8000200b65 <_trap_handlers+0xa45>
ffffff80002001b4: 6a 00                	pushq	$0
ffffff80002001b6: 6a 12                	pushq	$18
ffffff80002001b8: e9 a8 09 00 00       	jmp	0xffffff8000200b65 <_trap_handlers+0xa45>
ffffff80002001bd: 6a 00                	pushq	$0
ffffff80002001bf: 6a 13                	pushq	$19
ffffff80002001c1: e9 9f 09 00 00       	jmp	0xffffff8000200b65 <_trap_handlers+0xa45>
ffffff80002001c6: 6a 00                	pushq	$0
ffffff80002001c8: 6a 14                	pushq	$20
ffffff80002001ca: e9 96 09 00 00       	jmp	0xffffff8000200b65 <_trap_handlers+0xa45>
ffffff80002001cf: 6a 00                	pushq	$0
ffffff80002001d1: 6a 15                	pushq	$21
ffffff80002001d3: e9 8d 09 00 00       	jmp	0xffffff8000200b65 <_trap_handlers+0xa45>
ffffff80002001d8: 6a 00                	pushq	$0
ffffff80002001da: 6a 16                	pushq	$22
ffffff80002001dc: e9 84 09 00 00       	jmp	0xffffff8000200b65 <_trap_handlers+0xa45>
ffffff80002001e1: 6a 00                	pushq	$0
ffffff80002001e3: 6a 17                	pushq	$23
ffffff80002001e5: e9 7b 09 00 00       	jmp	0xffffff8000200b65 <_trap_handlers+0xa45>
ffffff80002001ea: 6a 00                	pushq	$0
ffffff80002001ec: 6a 18                	pushq	$24
ffffff80002001ee: e9 72 09 00 00       	jmp	0xffffff8000200b65 <_trap_handlers+0xa45>
ffffff80002001f3: 6a 00                	pushq	$0
ffffff80002001f5: 6a 19                	pushq	$25
ffffff80002001f7: e9 69 09 00 00       	jmp	0xffffff8000200b65 <_trap_handlers+0xa45>
ffffff80002001fc: 6a 00                	pushq	$0
ffffff80002001fe: 6a 1a                	pushq	$26
ffffff8000200200: e9 60 09 00 00       	jmp	0xffffff8000200b65 <_trap_handlers+0xa45>
ffffff8000200205: 6a 00                	pushq	$0
ffffff8000200207: 6a 1b                	pushq	$27
ffffff8000200209: e9 57 09 00 00       	jmp	0xffffff8000200b65 <_trap_handlers+0xa45>
ffffff800020020e: 6a 00                	pushq	$0
ffffff8000200210: 6a 1c                	pushq	$28
ffffff8000200212: e9 4e 09 00 00       	jmp	0xffffff8000200b65 <_trap_handlers+0xa45>
ffffff8000200217: 6a 00                	pushq	$0
ffffff8000200219: 6a 1d                	pushq	$29
ffffff800020021b: e9 45 09 00 00       	jmp	0xffffff8000200b65 <_trap_handlers+0xa45>
ffffff8000200220: 6a 00                	pushq	$0
ffffff8000200222: 6a 1e                	pushq	$30
ffffff8000200224: e9 3c 09 00 00       	jmp	0xffffff8000200b65 <_trap_handlers+0xa45>
ffffff8000200229: 6a 00                	pushq	$0
ffffff800020022b: 6a 1f                	pushq	$31
ffffff800020022d: e9 33 09 00 00       	jmp	0xffffff8000200b65 <_trap_handlers+0xa45>
ffffff8000200232: 6a 00                	pushq	$0
ffffff8000200234: 6a 20                	pushq	$32
ffffff8000200236: e9 2a 09 00 00       	jmp	0xffffff8000200b65 <_trap_handlers+0xa45>
ffffff800020023b: 6a 00                	pushq	$0
ffffff800020023d: 6a 21                	pushq	$33
ffffff800020023f: e9 21 09 00 00       	jmp	0xffffff8000200b65 <_trap_handlers+0xa45>
ffffff8000200244: 6a 00                	pushq	$0
ffffff8000200246: 6a 22                	pushq	$34
ffffff8000200248: e9 18 09 00 00       	jmp	0xffffff8000200b65 <_trap_handlers+0xa45>
ffffff800020024d: 6a 00                	pushq	$0
ffffff800020024f: 6a 23                	pushq	$35
ffffff8000200251: e9 0f 09 00 00       	jmp	0xffffff8000200b65 <_trap_handlers+0xa45>
ffffff8000200256: 6a 00                	pushq	$0
ffffff8000200258: 6a 24                	pushq	$36
ffffff800020025a: e9 06 09 00 00       	jmp	0xffffff8000200b65 <_trap_handlers+0xa45>
ffffff800020025f: 6a 00                	pushq	$0
ffffff8000200261: 6a 25                	pushq	$37
ffffff8000200263: e9 fd 08 00 00       	jmp	0xffffff8000200b65 <_trap_handlers+0xa45>
ffffff8000200268: 6a 00                	pushq	$0
ffffff800020026a: 6a 26                	pushq	$38
ffffff800020026c: e9 f4 08 00 00       	jmp	0xffffff8000200b65 <_trap_handlers+0xa45>
ffffff8000200271: 6a 00                	pushq	$0
ffffff8000200273: 6a 27                	pushq	$39
ffffff8000200275: e9 eb 08 00 00       	jmp	0xffffff8000200b65 <_trap_handlers+0xa45>
ffffff800020027a: 6a 00                	pushq	$0
ffffff800020027c: 6a 28                	pushq	$40
ffffff800020027e: e9 e2 08 00 00       	jmp	0xffffff8000200b65 <_trap_handlers+0xa45>
ffffff8000200283: 6a 00                	pushq	$0
ffffff8000200285: 6a 29                	pushq	$41
ffffff8000200287: e9 d9 08 00 00       	jmp	0xffffff8000200b65 <_trap_handlers+0xa45>
ffffff800020028c: 6a 00                	pushq	$0
ffffff800020028e: 6a 2a                	pushq	$42
ffffff8000200290: e9 d0 08 00 00       	jmp	0xffffff8000200b65 <_trap_handlers+0xa45>
ffffff8000200295: 6a 00                	pushq	$0
ffffff8000200297: 6a 2b                	pushq	$43
ffffff8000200299: e9 c7 08 00 00       	jmp	0xffffff8000200b65 <_trap_handlers+0xa45>
ffffff800020029e: 6a 00                	pushq	$0
ffffff80002002a0: 6a 2c                	pushq	$44
ffffff80002002a2: e9 be 08 00 00       	jmp	0xffffff8000200b65 <_trap_handlers+0xa45>
ffffff80002002a7: 6a 00                	pushq	$0
ffffff80002002a9: 6a 2d                	pushq	$45
ffffff80002002ab: e9 b5 08 00 00       	jmp	0xffffff8000200b65 <_trap_handlers+0xa45>
ffffff80002002b0: 6a 00                	pushq	$0
ffffff80002002b2: 6a 2e                	pushq	$46
ffffff80002002b4: e9 ac 08 00 00       	jmp	0xffffff8000200b65 <_trap_handlers+0xa45>
ffffff80002002b9: 6a 00                	pushq	$0
ffffff80002002bb: 6a 2f                	pushq	$47
ffffff80002002bd: e9 a3 08 00 00       	jmp	0xffffff8000200b65 <_trap_handlers+0xa45>
ffffff80002002c2: 6a 00                	pushq	$0
ffffff80002002c4: 6a 30                	pushq	$48
ffffff80002002c6: e9 9a 08 00 00       	jmp	0xffffff8000200b65 <_trap_handlers+0xa45>
ffffff80002002cb: 6a 00                	pushq	$0
ffffff80002002cd: 6a 31                	pushq	$49
ffffff80002002cf: e9 91 08 00 00       	jmp	0xffffff8000200b65 <_trap_handlers+0xa45>
ffffff80002002d4: 6a 00                	pushq	$0
ffffff80002002d6: 6a 32                	pushq	$50
ffffff80002002d8: e9 88 08 00 00       	jmp	0xffffff8000200b65 <_trap_handlers+0xa45>
ffffff80002002dd: 6a 00                	pushq	$0
ffffff80002002df: 6a 33                	pushq	$51
ffffff80002002e1: e9 7f 08 00 00       	jmp	0xffffff8000200b65 <_trap_handlers+0xa45>
ffffff80002002e6: 6a 00                	pushq	$0
ffffff80002002e8: 6a 34                	pushq	$52
ffffff80002002ea: e9 76 08 00 00       	jmp	0xffffff8000200b65 <_trap_handlers+0xa45>
ffffff80002002ef: 6a 00                	pushq	$0
ffffff80002002f1: 6a 35                	pushq	$53
ffffff80002002f3: e9 6d 08 00 00       	jmp	0xffffff8000200b65 <_trap_handlers+0xa45>
ffffff80002002f8: 6a 00                	pushq	$0
ffffff80002002fa: 6a 36                	pushq	$54
ffffff80002002fc: e9 64 08 00 00       	jmp	0xffffff8000200b65 <_trap_handlers+0xa45>
ffffff8000200301: 6a 00                	pushq	$0
ffffff8000200303: 6a 37                	pushq	$55
ffffff8000200305: e9 5b 08 00 00       	jmp	0xffffff8000200b65 <_trap_handlers+0xa45>
ffffff800020030a: 6a 00                	pushq	$0
ffffff800020030c: 6a 38                	pushq	$56
ffffff800020030e: e9 52 08 00 00       	jmp	0xffffff8000200b65 <_trap_handlers+0xa45>
ffffff8000200313: 6a 00                	pushq	$0
ffffff8000200315: 6a 39                	pushq	$57
ffffff8000200317: e9 49 08 00 00       	jmp	0xffffff8000200b65 <_trap_handlers+0xa45>
ffffff800020031c: 6a 00                	pushq	$0
ffffff800020031e: 6a 3a                	pushq	$58
ffffff8000200320: e9 40 08 00 00       	jmp	0xffffff8000200b65 <_trap_handlers+0xa45>
ffffff8000200325: 6a 00                	pushq	$0
ffffff8000200327: 6a 3b                	pushq	$59
ffffff8000200329: e9 37 08 00 00       	jmp	0xffffff8000200b65 <_trap_handlers+0xa45>
ffffff800020032e: 6a 00                	pushq	$0
ffffff8000200330: 6a 3c                	pushq	$60
ffffff8000200332: e9 2e 08 00 00       	jmp	0xffffff8000200b65 <_trap_handlers+0xa45>
ffffff8000200337: 6a 00                	pushq	$0
ffffff8000200339: 6a 3d                	pushq	$61
ffffff800020033b: e9 25 08 00 00       	jmp	0xffffff8000200b65 <_trap_handlers+0xa45>
ffffff8000200340: 6a 00                	pushq	$0
ffffff8000200342: 6a 3e                	pushq	$62
ffffff8000200344: e9 1c 08 00 00       	jmp	0xffffff8000200b65 <_trap_handlers+0xa45>
ffffff8000200349: 6a 00                	pushq	$0
ffffff800020034b: 6a 3f                	pushq	$63
ffffff800020034d: e9 13 08 00 00       	jmp	0xffffff8000200b65 <_trap_handlers+0xa45>
ffffff8000200352: 6a 00                	pushq	$0
ffffff8000200354: 6a 40                	pushq	$64
ffffff8000200356: e9 0a 08 00 00       	jmp	0xffffff8000200b65 <_trap_handlers+0xa45>
ffffff800020035b: 6a 00                	pushq	$0
ffffff800020035d: 6a 41                	pushq	$65
ffffff800020035f: e9 01 08 00 00       	jmp	0xffffff8000200b65 <_trap_handlers+0xa45>
ffffff8000200364: 6a 00                	pushq	$0
ffffff8000200366: 6a 42                	pushq	$66
ffffff8000200368: e9 f8 07 00 00       	jmp	0xffffff8000200b65 <_trap_handlers+0xa45>
ffffff800020036d: 6a 00                	pushq	$0
ffffff800020036f: 6a 43                	pushq	$67
ffffff8000200371: e9 ef 07 00 00       	jmp	0xffffff8000200b65 <_trap_handlers+0xa45>
ffffff8000200376: 6a 00                	pushq	$0
ffffff8000200378: 6a 44                	pushq	$68
ffffff800020037a: e9 e6 07 00 00       	jmp	0xffffff8000200b65 <_trap_handlers+0xa45>
ffffff800020037f: 6a 00                	pushq	$0
ffffff8000200381: 6a 45                	pushq	$69
ffffff8000200383: e9 dd 07 00 00       	jmp	0xffffff8000200b65 <_trap_handlers+0xa45>
ffffff8000200388: 6a 00                	pushq	$0
ffffff800020038a: 6a 46                	pushq	$70
ffffff800020038c: e9 d4 07 00 00       	jmp	0xffffff8000200b65 <_trap_handlers+0xa45>
ffffff8000200391: 6a 00                	pushq	$0
ffffff8000200393: 6a 47                	pushq	$71
ffffff8000200395: e9 cb 07 00 00       	jmp	0xffffff8000200b65 <_trap_handlers+0xa45>
ffffff800020039a: 6a 00                	pushq	$0
ffffff800020039c: 6a 48                	pushq	$72
ffffff800020039e: e9 c2 07 00 00       	jmp	0xffffff8000200b65 <_trap_handlers+0xa45>
ffffff80002003a3: 6a 00                	pushq	$0
ffffff80002003a5: 6a 49                	pushq	$73
ffffff80002003a7: e9 b9 07 00 00       	jmp	0xffffff8000200b65 <_trap_handlers+0xa45>
ffffff80002003ac: 6a 00                	pushq	$0
ffffff80002003ae: 6a 4a                	pushq	$74
ffffff80002003b0: e9 b0 07 00 00       	jmp	0xffffff8000200b65 <_trap_handlers+0xa45>
ffffff80002003b5: 6a 00                	pushq	$0
ffffff80002003b7: 6a 4b                	pushq	$75
ffffff80002003b9: e9 a7 07 00 00       	jmp	0xffffff8000200b65 <_trap_handlers+0xa45>
ffffff80002003be: 6a 00                	pushq	$0
ffffff80002003c0: 6a 4c                	pushq	$76
ffffff80002003c2: e9 9e 07 00 00       	jmp	0xffffff8000200b65 <_trap_handlers+0xa45>
ffffff80002003c7: 6a 00                	pushq	$0
ffffff80002003c9: 6a 4d                	pushq	$77
ffffff80002003cb: e9 95 07 00 00       	jmp	0xffffff8000200b65 <_trap_handlers+0xa45>
ffffff80002003d0: 6a 00                	pushq	$0
ffffff80002003d2: 6a 4e                	pushq	$78
ffffff80002003d4: e9 8c 07 00 00       	jmp	0xffffff8000200b65 <_trap_handlers+0xa45>
ffffff80002003d9: 6a 00                	pushq	$0
ffffff80002003db: 6a 4f                	pushq	$79
ffffff80002003dd: e9 83 07 00 00       	jmp	0xffffff8000200b65 <_trap_handlers+0xa45>
ffffff80002003e2: 6a 00                	pushq	$0
ffffff80002003e4: 6a 50                	pushq	$80
ffffff80002003e6: e9 7a 07 00 00       	jmp	0xffffff8000200b65 <_trap_handlers+0xa45>
ffffff80002003eb: 6a 00                	pushq	$0
ffffff80002003ed: 6a 51                	pushq	$81
ffffff80002003ef: e9 71 07 00 00       	jmp	0xffffff8000200b65 <_trap_handlers+0xa45>
ffffff80002003f4: 6a 00                	pushq	$0
ffffff80002003f6: 6a 52                	pushq	$82
ffffff80002003f8: e9 68 07 00 00       	jmp	0xffffff8000200b65 <_trap_handlers+0xa45>
ffffff80002003fd: 6a 00                	pushq	$0
ffffff80002003ff: 6a 53                	pushq	$83
ffffff8000200401: e9 5f 07 00 00       	jmp	0xffffff8000200b65 <_trap_handlers+0xa45>
ffffff8000200406: 6a 00                	pushq	$0
ffffff8000200408: 6a 54                	pushq	$84
ffffff800020040a: e9 56 07 00 00       	jmp	0xffffff8000200b65 <_trap_handlers+0xa45>
ffffff800020040f: 6a 00                	pushq	$0
ffffff8000200411: 6a 55                	pushq	$85
ffffff8000200413: e9 4d 07 00 00       	jmp	0xffffff8000200b65 <_trap_handlers+0xa45>
ffffff8000200418: 6a 00                	pushq	$0
ffffff800020041a: 6a 56                	pushq	$86
ffffff800020041c: e9 44 07 00 00       	jmp	0xffffff8000200b65 <_trap_handlers+0xa45>
ffffff8000200421: 6a 00                	pushq	$0
ffffff8000200423: 6a 57                	pushq	$87
ffffff8000200425: e9 3b 07 00 00       	jmp	0xffffff8000200b65 <_trap_handlers+0xa45>
ffffff800020042a: 6a 00                	pushq	$0
ffffff800020042c: 6a 58                	pushq	$88
ffffff800020042e: e9 32 07 00 00       	jmp	0xffffff8000200b65 <_trap_handlers+0xa45>
ffffff8000200433: 6a 00                	pushq	$0
ffffff8000200435: 6a 59                	pushq	$89
ffffff8000200437: e9 29 07 00 00       	jmp	0xffffff8000200b65 <_trap_handlers+0xa45>
ffffff800020043c: 6a 00                	pushq	$0
ffffff800020043e: 6a 5a                	pushq	$90
ffffff8000200440: e9 20 07 00 00       	jmp	0xffffff8000200b65 <_trap_handlers+0xa45>
ffffff8000200445: 6a 00                	pushq	$0
ffffff8000200447: 6a 5b                	pushq	$91
ffffff8000200449: e9 17 07 00 00       	jmp	0xffffff8000200b65 <_trap_handlers+0xa45>
ffffff800020044e: 6a 00                	pushq	$0
ffffff8000200450: 6a 5c                	pushq	$92
ffffff8000200452: e9 0e 07 00 00       	jmp	0xffffff8000200b65 <_trap_handlers+0xa45>
ffffff8000200457: 6a 00                	pushq	$0
ffffff8000200459: 6a 5d                	pushq	$93
ffffff800020045b: e9 05 07 00 00       	jmp	0xffffff8000200b65 <_trap_handlers+0xa45>
ffffff8000200460: 6a 00                	pushq	$0
ffffff8000200462: 6a 5e                	pushq	$94
ffffff8000200464: e9 fc 06 00 00       	jmp	0xffffff8000200b65 <_trap_handlers+0xa45>
ffffff8000200469: 6a 00                	pushq	$0
ffffff800020046b: 6a 5f                	pushq	$95
ffffff800020046d: e9 f3 06 00 00       	jmp	0xffffff8000200b65 <_trap_handlers+0xa45>
ffffff8000200472: 6a 00                	pushq	$0
ffffff8000200474: 6a 60                	pushq	$96
ffffff8000200476: e9 ea 06 00 00       	jmp	0xffffff8000200b65 <_trap_handlers+0xa45>
ffffff800020047b: 6a 00                	pushq	$0
ffffff800020047d: 6a 61                	pushq	$97
ffffff800020047f: e9 e1 06 00 00       	jmp	0xffffff8000200b65 <_trap_handlers+0xa45>
ffffff8000200484: 6a 00                	pushq	$0
ffffff8000200486: 6a 62                	pushq	$98
ffffff8000200488: e9 d8 06 00 00       	jmp	0xffffff8000200b65 <_trap_handlers+0xa45>
ffffff800020048d: 6a 00                	pushq	$0
ffffff800020048f: 6a 63                	pushq	$99
ffffff8000200491: e9 cf 06 00 00       	jmp	0xffffff8000200b65 <_trap_handlers+0xa45>
ffffff8000200496: 6a 00                	pushq	$0
ffffff8000200498: 6a 64                	pushq	$100
ffffff800020049a: e9 c6 06 00 00       	jmp	0xffffff8000200b65 <_trap_handlers+0xa45>
ffffff800020049f: 6a 00                	pushq	$0
ffffff80002004a1: 6a 65                	pushq	$101
ffffff80002004a3: e9 bd 06 00 00       	jmp	0xffffff8000200b65 <_trap_handlers+0xa45>
ffffff80002004a8: 6a 00                	pushq	$0
ffffff80002004aa: 6a 66                	pushq	$102
ffffff80002004ac: e9 b4 06 00 00       	jmp	0xffffff8000200b65 <_trap_handlers+0xa45>
ffffff80002004b1: 6a 00                	pushq	$0
ffffff80002004b3: 6a 67                	pushq	$103
ffffff80002004b5: e9 ab 06 00 00       	jmp	0xffffff8000200b65 <_trap_handlers+0xa45>
ffffff80002004ba: 6a 00                	pushq	$0
ffffff80002004bc: 6a 68                	pushq	$104
ffffff80002004be: e9 a2 06 00 00       	jmp	0xffffff8000200b65 <_trap_handlers+0xa45>
ffffff80002004c3: 6a 00                	pushq	$0
ffffff80002004c5: 6a 69                	pushq	$105
ffffff80002004c7: e9 99 06 00 00       	jmp	0xffffff8000200b65 <_trap_handlers+0xa45>
ffffff80002004cc: 6a 00                	pushq	$0
ffffff80002004ce: 6a 6a                	pushq	$106
ffffff80002004d0: e9 90 06 00 00       	jmp	0xffffff8000200b65 <_trap_handlers+0xa45>
ffffff80002004d5: 6a 00                	pushq	$0
ffffff80002004d7: 6a 6b                	pushq	$107
ffffff80002004d9: e9 87 06 00 00       	jmp	0xffffff8000200b65 <_trap_handlers+0xa45>
ffffff80002004de: 6a 00                	pushq	$0
ffffff80002004e0: 6a 6c                	pushq	$108
ffffff80002004e2: e9 7e 06 00 00       	jmp	0xffffff8000200b65 <_trap_handlers+0xa45>
ffffff80002004e7: 6a 00                	pushq	$0
ffffff80002004e9: 6a 6d                	pushq	$109
ffffff80002004eb: e9 75 06 00 00       	jmp	0xffffff8000200b65 <_trap_handlers+0xa45>
ffffff80002004f0: 6a 00                	pushq	$0
ffffff80002004f2: 6a 6e                	pushq	$110
ffffff80002004f4: e9 6c 06 00 00       	jmp	0xffffff8000200b65 <_trap_handlers+0xa45>
ffffff80002004f9: 6a 00                	pushq	$0
ffffff80002004fb: 6a 6f                	pushq	$111
ffffff80002004fd: e9 63 06 00 00       	jmp	0xffffff8000200b65 <_trap_handlers+0xa45>
ffffff8000200502: 6a 00                	pushq	$0
ffffff8000200504: 6a 70                	pushq	$112
ffffff8000200506: e9 5a 06 00 00       	jmp	0xffffff8000200b65 <_trap_handlers+0xa45>
ffffff800020050b: 6a 00                	pushq	$0
ffffff800020050d: 6a 71                	pushq	$113
ffffff800020050f: e9 51 06 00 00       	jmp	0xffffff8000200b65 <_trap_handlers+0xa45>
ffffff8000200514: 6a 00                	pushq	$0
ffffff8000200516: 6a 72                	pushq	$114
ffffff8000200518: e9 48 06 00 00       	jmp	0xffffff8000200b65 <_trap_handlers+0xa45>
ffffff800020051d: 6a 00                	pushq	$0
ffffff800020051f: 6a 73                	pushq	$115
ffffff8000200521: e9 3f 06 00 00       	jmp	0xffffff8000200b65 <_trap_handlers+0xa45>
ffffff8000200526: 6a 00                	pushq	$0
ffffff8000200528: 6a 74                	pushq	$116
ffffff800020052a: e9 36 06 00 00       	jmp	0xffffff8000200b65 <_trap_handlers+0xa45>
ffffff800020052f: 6a 00                	pushq	$0
ffffff8000200531: 6a 75                	pushq	$117
ffffff8000200533: e9 2d 06 00 00       	jmp	0xffffff8000200b65 <_trap_handlers+0xa45>
ffffff8000200538: 6a 00                	pushq	$0
ffffff800020053a: 6a 76                	pushq	$118
ffffff800020053c: e9 24 06 00 00       	jmp	0xffffff8000200b65 <_trap_handlers+0xa45>
ffffff8000200541: 6a 00                	pushq	$0
ffffff8000200543: 6a 77                	pushq	$119
ffffff8000200545: e9 1b 06 00 00       	jmp	0xffffff8000200b65 <_trap_handlers+0xa45>
ffffff800020054a: 6a 00                	pushq	$0
ffffff800020054c: 6a 78                	pushq	$120
ffffff800020054e: e9 12 06 00 00       	jmp	0xffffff8000200b65 <_trap_handlers+0xa45>
ffffff8000200553: 6a 00                	pushq	$0
ffffff8000200555: 6a 79                	pushq	$121
ffffff8000200557: e9 09 06 00 00       	jmp	0xffffff8000200b65 <_trap_handlers+0xa45>
ffffff800020055c: 6a 00                	pushq	$0
ffffff800020055e: 6a 7a                	pushq	$122
ffffff8000200560: e9 00 06 00 00       	jmp	0xffffff8000200b65 <_trap_handlers+0xa45>
ffffff8000200565: 6a 00                	pushq	$0
ffffff8000200567: 6a 7b                	pushq	$123
ffffff8000200569: e9 f7 05 00 00       	jmp	0xffffff8000200b65 <_trap_handlers+0xa45>
ffffff800020056e: 6a 00                	pushq	$0
ffffff8000200570: 6a 7c                	pushq	$124
ffffff8000200572: e9 ee 05 00 00       	jmp	0xffffff8000200b65 <_trap_handlers+0xa45>
ffffff8000200577: 6a 00                	pushq	$0
ffffff8000200579: 6a 7d                	pushq	$125
ffffff800020057b: e9 e5 05 00 00       	jmp	0xffffff8000200b65 <_trap_handlers+0xa45>
ffffff8000200580: 6a 00                	pushq	$0
ffffff8000200582: 6a 7e                	pushq	$126
ffffff8000200584: e9 dc 05 00 00       	jmp	0xffffff8000200b65 <_trap_handlers+0xa45>
ffffff8000200589: 6a 00                	pushq	$0
ffffff800020058b: 6a 7f                	pushq	$127
ffffff800020058d: e9 d3 05 00 00       	jmp	0xffffff8000200b65 <_trap_handlers+0xa45>
ffffff8000200592: 6a 00                	pushq	$0
ffffff8000200594: 68 80 00 00 00       	pushq	$128
ffffff8000200599: e9 c7 05 00 00       	jmp	0xffffff8000200b65 <_trap_handlers+0xa45>
ffffff800020059e: 6a 00                	pushq	$0
ffffff80002005a0: 68 81 00 00 00       	pushq	$129
ffffff80002005a5: e9 bb 05 00 00       	jmp	0xffffff8000200b65 <_trap_handlers+0xa45>
ffffff80002005aa: 6a 00                	pushq	$0
ffffff80002005ac: 68 82 00 00 00       	pushq	$130
ffffff80002005b1: e9 af 05 00 00       	jmp	0xffffff8000200b65 <_trap_handlers+0xa45>
ffffff80002005b6: 6a 00                	pushq	$0
ffffff80002005b8: 68 83 00 00 00       	pushq	$131
ffffff80002005bd: e9 a3 05 00 00       	jmp	0xffffff8000200b65 <_trap_handlers+0xa45>
ffffff80002005c2: 6a 00                	pushq	$0
ffffff80002005c4: 68 84 00 00 00       	pushq	$132
ffffff80002005c9: e9 97 05 00 00       	jmp	0xffffff8000200b65 <_trap_handlers+0xa45>
ffffff80002005ce: 6a 00                	pushq	$0
ffffff80002005d0: 68 85 00 00 00       	pushq	$133
ffffff80002005d5: e9 8b 05 00 00       	jmp	0xffffff8000200b65 <_trap_handlers+0xa45>
ffffff80002005da: 6a 00                	pushq	$0
ffffff80002005dc: 68 86 00 00 00       	pushq	$134
ffffff80002005e1: e9 7f 05 00 00       	jmp	0xffffff8000200b65 <_trap_handlers+0xa45>
ffffff80002005e6: 6a 00                	pushq	$0
ffffff80002005e8: 68 87 00 00 00       	pushq	$135
ffffff80002005ed: e9 73 05 00 00       	jmp	0xffffff8000200b65 <_trap_handlers+0xa45>
ffffff80002005f2: 6a 00                	pushq	$0
ffffff80002005f4: 68 88 00 00 00       	pushq	$136
ffffff80002005f9: e9 67 05 00 00       	jmp	0xffffff8000200b65 <_trap_handlers+0xa45>
ffffff80002005fe: 6a 00                	pushq	$0
ffffff8000200600: 68 89 00 00 00       	pushq	$137
ffffff8000200605: e9 5b 05 00 00       	jmp	0xffffff8000200b65 <_trap_handlers+0xa45>
ffffff800020060a: 6a 00                	pushq	$0
ffffff800020060c: 68 8a 00 00 00       	pushq	$138
ffffff8000200611: e9 4f 05 00 00       	jmp	0xffffff8000200b65 <_trap_handlers+0xa45>
ffffff8000200616: 6a 00                	pushq	$0
ffffff8000200618: 68 8b 00 00 00       	pushq	$139
ffffff800020061d: e9 43 05 00 00       	jmp	0xffffff8000200b65 <_trap_handlers+0xa45>
ffffff8000200622: 6a 00                	pushq	$0
ffffff8000200624: 68 8c 00 00 00       	pushq	$140
ffffff8000200629: e9 37 05 00 00       	jmp	0xffffff8000200b65 <_trap_handlers+0xa45>
ffffff800020062e: 6a 00                	pushq	$0
ffffff8000200630: 68 8d 00 00 00       	pushq	$141
ffffff8000200635: e9 2b 05 00 00       	jmp	0xffffff8000200b65 <_trap_handlers+0xa45>
ffffff800020063a: 6a 00                	pushq	$0
ffffff800020063c: 68 8e 00 00 00       	pushq	$142
ffffff8000200641: e9 1f 05 00 00       	jmp	0xffffff8000200b65 <_trap_handlers+0xa45>
ffffff8000200646: 6a 00                	pushq	$0
ffffff8000200648: 68 8f 00 00 00       	pushq	$143
ffffff800020064d: e9 13 05 00 00       	jmp	0xffffff8000200b65 <_trap_handlers+0xa45>
ffffff8000200652: 6a 00                	pushq	$0
ffffff8000200654: 68 90 00 00 00       	pushq	$144
ffffff8000200659: e9 07 05 00 00       	jmp	0xffffff8000200b65 <_trap_handlers+0xa45>
ffffff800020065e: 6a 00                	pushq	$0
ffffff8000200660: 68 91 00 00 00       	pushq	$145
ffffff8000200665: e9 fb 04 00 00       	jmp	0xffffff8000200b65 <_trap_handlers+0xa45>
ffffff800020066a: 6a 00                	pushq	$0
ffffff800020066c: 68 92 00 00 00       	pushq	$146
ffffff8000200671: e9 ef 04 00 00       	jmp	0xffffff8000200b65 <_trap_handlers+0xa45>
ffffff8000200676: 6a 00                	pushq	$0
ffffff8000200678: 68 93 00 00 00       	pushq	$147
ffffff800020067d: e9 e3 04 00 00       	jmp	0xffffff8000200b65 <_trap_handlers+0xa45>
ffffff8000200682: 6a 00                	pushq	$0
ffffff8000200684: 68 94 00 00 00       	pushq	$148
ffffff8000200689: e9 d7 04 00 00       	jmp	0xffffff8000200b65 <_trap_handlers+0xa45>
ffffff800020068e: 6a 00                	pushq	$0
ffffff8000200690: 68 95 00 00 00       	pushq	$149
ffffff8000200695: e9 cb 04 00 00       	jmp	0xffffff8000200b65 <_trap_handlers+0xa45>
ffffff800020069a: 6a 00                	pushq	$0
ffffff800020069c: 68 96 00 00 00       	pushq	$150
ffffff80002006a1: e9 bf 04 00 00       	jmp	0xffffff8000200b65 <_trap_handlers+0xa45>
ffffff80002006a6: 6a 00                	pushq	$0
ffffff80002006a8: 68 97 00 00 00       	pushq	$151
ffffff80002006ad: e9 b3 04 00 00       	jmp	0xffffff8000200b65 <_trap_handlers+0xa45>
ffffff80002006b2: 6a 00                	pushq	$0
ffffff80002006b4: 68 98 00 00 00       	pushq	$152
ffffff80002006b9: e9 a7 04 00 00       	jmp	0xffffff8000200b65 <_trap_handlers+0xa45>
ffffff80002006be: 6a 00                	pushq	$0
ffffff80002006c0: 68 99 00 00 00       	pushq	$153
ffffff80002006c5: e9 9b 04 00 00       	jmp	0xffffff8000200b65 <_trap_handlers+0xa45>
ffffff80002006ca: 6a 00                	pushq	$0
ffffff80002006cc: 68 9a 00 00 00       	pushq	$154
ffffff80002006d1: e9 8f 04 00 00       	jmp	0xffffff8000200b65 <_trap_handlers+0xa45>
ffffff80002006d6: 6a 00                	pushq	$0
ffffff80002006d8: 68 9b 00 00 00       	pushq	$155
ffffff80002006dd: e9 83 04 00 00       	jmp	0xffffff8000200b65 <_trap_handlers+0xa45>
ffffff80002006e2: 6a 00                	pushq	$0
ffffff80002006e4: 68 9c 00 00 00       	pushq	$156
ffffff80002006e9: e9 77 04 00 00       	jmp	0xffffff8000200b65 <_trap_handlers+0xa45>
ffffff80002006ee: 6a 00                	pushq	$0
ffffff80002006f0: 68 9d 00 00 00       	pushq	$157
ffffff80002006f5: e9 6b 04 00 00       	jmp	0xffffff8000200b65 <_trap_handlers+0xa45>
ffffff80002006fa: 6a 00                	pushq	$0
ffffff80002006fc: 68 9e 00 00 00       	pushq	$158
ffffff8000200701: e9 5f 04 00 00       	jmp	0xffffff8000200b65 <_trap_handlers+0xa45>
ffffff8000200706: 6a 00                	pushq	$0
ffffff8000200708: 68 9f 00 00 00       	pushq	$159
ffffff800020070d: e9 53 04 00 00       	jmp	0xffffff8000200b65 <_trap_handlers+0xa45>
ffffff8000200712: 6a 00                	pushq	$0
ffffff8000200714: 68 a0 00 00 00       	pushq	$160
ffffff8000200719: e9 47 04 00 00       	jmp	0xffffff8000200b65 <_trap_handlers+0xa45>
ffffff800020071e: 6a 00                	pushq	$0
ffffff8000200720: 68 a1 00 00 00       	pushq	$161
ffffff8000200725: e9 3b 04 00 00       	jmp	0xffffff8000200b65 <_trap_handlers+0xa45>
ffffff800020072a: 6a 00                	pushq	$0
ffffff800020072c: 68 a2 00 00 00       	pushq	$162
ffffff8000200731: e9 2f 04 00 00       	jmp	0xffffff8000200b65 <_trap_handlers+0xa45>
ffffff8000200736: 6a 00                	pushq	$0
ffffff8000200738: 68 a3 00 00 00       	pushq	$163
ffffff800020073d: e9 23 04 00 00       	jmp	0xffffff8000200b65 <_trap_handlers+0xa45>
ffffff8000200742: 6a 00                	pushq	$0
ffffff8000200744: 68 a4 00 00 00       	pushq	$164
ffffff8000200749: e9 17 04 00 00       	jmp	0xffffff8000200b65 <_trap_handlers+0xa45>
ffffff800020074e: 6a 00                	pushq	$0
ffffff8000200750: 68 a5 00 00 00       	pushq	$165
ffffff8000200755: e9 0b 04 00 00       	jmp	0xffffff8000200b65 <_trap_handlers+0xa45>
ffffff800020075a: 6a 00                	pushq	$0
ffffff800020075c: 68 a6 00 00 00       	pushq	$166
ffffff8000200761: e9 ff 03 00 00       	jmp	0xffffff8000200b65 <_trap_handlers+0xa45>
ffffff8000200766: 6a 00                	pushq	$0
ffffff8000200768: 68 a7 00 00 00       	pushq	$167
ffffff800020076d: e9 f3 03 00 00       	jmp	0xffffff8000200b65 <_trap_handlers+0xa45>
ffffff8000200772: 6a 00                	pushq	$0
ffffff8000200774: 68 a8 00 00 00       	pushq	$168
ffffff8000200779: e9 e7 03 00 00       	jmp	0xffffff8000200b65 <_trap_handlers+0xa45>
ffffff800020077e: 6a 00                	pushq	$0
ffffff8000200780: 68 a9 00 00 00       	pushq	$169
ffffff8000200785: e9 db 03 00 00       	jmp	0xffffff8000200b65 <_trap_handlers+0xa45>
ffffff800020078a: 6a 00                	pushq	$0
ffffff800020078c: 68 aa 00 00 00       	pushq	$170
ffffff8000200791: e9 cf 03 00 00       	jmp	0xffffff8000200b65 <_trap_handlers+0xa45>
ffffff8000200796: 6a 00                	pushq	$0
ffffff8000200798: 68 ab 00 00 00       	pushq	$171
ffffff800020079d: e9 c3 03 00 00       	jmp	0xffffff8000200b65 <_trap_handlers+0xa45>
ffffff80002007a2: 6a 00                	pushq	$0
ffffff80002007a4: 68 ac 00 00 00       	pushq	$172
ffffff80002007a9: e9 b7 03 00 00       	jmp	0xffffff8000200b65 <_trap_handlers+0xa45>
ffffff80002007ae: 6a 00                	pushq	$0
ffffff80002007b0: 68 ad 00 00 00       	pushq	$173
ffffff80002007b5: e9 ab 03 00 00       	jmp	0xffffff8000200b65 <_trap_handlers+0xa45>
ffffff80002007ba: 6a 00                	pushq	$0
ffffff80002007bc: 68 ae 00 00 00       	pushq	$174
ffffff80002007c1: e9 9f 03 00 00       	jmp	0xffffff8000200b65 <_trap_handlers+0xa45>
ffffff80002007c6: 6a 00                	pushq	$0
ffffff80002007c8: 68 af 00 00 00       	pushq	$175
ffffff80002007cd: e9 93 03 00 00       	jmp	0xffffff8000200b65 <_trap_handlers+0xa45>
ffffff80002007d2: 6a 00                	pushq	$0
ffffff80002007d4: 68 b0 00 00 00       	pushq	$176
ffffff80002007d9: e9 87 03 00 00       	jmp	0xffffff8000200b65 <_trap_handlers+0xa45>
ffffff80002007de: 6a 00                	pushq	$0
ffffff80002007e0: 68 b1 00 00 00       	pushq	$177
ffffff80002007e5: e9 7b 03 00 00       	jmp	0xffffff8000200b65 <_trap_handlers+0xa45>
ffffff80002007ea: 6a 00                	pushq	$0
ffffff80002007ec: 68 b2 00 00 00       	pushq	$178
ffffff80002007f1: e9 6f 03 00 00       	jmp	0xffffff8000200b65 <_trap_handlers+0xa45>
ffffff80002007f6: 6a 00                	pushq	$0
ffffff80002007f8: 68 b3 00 00 00       	pushq	$179
ffffff80002007fd: e9 63 03 00 00       	jmp	0xffffff8000200b65 <_trap_handlers+0xa45>
ffffff8000200802: 6a 00                	pushq	$0
ffffff8000200804: 68 b4 00 00 00       	pushq	$180
ffffff8000200809: e9 57 03 00 00       	jmp	0xffffff8000200b65 <_trap_handlers+0xa45>
ffffff800020080e: 6a 00                	pushq	$0
ffffff8000200810: 68 b5 00 00 00       	pushq	$181
ffffff8000200815: e9 4b 03 00 00       	jmp	0xffffff8000200b65 <_trap_handlers+0xa45>
ffffff800020081a: 6a 00                	pushq	$0
ffffff800020081c: 68 b6 00 00 00       	pushq	$182
ffffff8000200821: e9 3f 03 00 00       	jmp	0xffffff8000200b65 <_trap_handlers+0xa45>
ffffff8000200826: 6a 00                	pushq	$0
ffffff8000200828: 68 b7 00 00 00       	pushq	$183
ffffff800020082d: e9 33 03 00 00       	jmp	0xffffff8000200b65 <_trap_handlers+0xa45>
ffffff8000200832: 6a 00                	pushq	$0
ffffff8000200834: 68 b8 00 00 00       	pushq	$184
ffffff8000200839: e9 27 03 00 00       	jmp	0xffffff8000200b65 <_trap_handlers+0xa45>
ffffff800020083e: 6a 00                	pushq	$0
ffffff8000200840: 68 b9 00 00 00       	pushq	$185
ffffff8000200845: e9 1b 03 00 00       	jmp	0xffffff8000200b65 <_trap_handlers+0xa45>
ffffff800020084a: 6a 00                	pushq	$0
ffffff800020084c: 68 ba 00 00 00       	pushq	$186
ffffff8000200851: e9 0f 03 00 00       	jmp	0xffffff8000200b65 <_trap_handlers+0xa45>
ffffff8000200856: 6a 00                	pushq	$0
ffffff8000200858: 68 bb 00 00 00       	pushq	$187
ffffff800020085d: e9 03 03 00 00       	jmp	0xffffff8000200b65 <_trap_handlers+0xa45>
ffffff8000200862: 6a 00                	pushq	$0
ffffff8000200864: 68 bc 00 00 00       	pushq	$188
ffffff8000200869: e9 f7 02 00 00       	jmp	0xffffff8000200b65 <_trap_handlers+0xa45>
ffffff800020086e: 6a 00                	pushq	$0
ffffff8000200870: 68 bd 00 00 00       	pushq	$189
ffffff8000200875: e9 eb 02 00 00       	jmp	0xffffff8000200b65 <_trap_handlers+0xa45>
ffffff800020087a: 6a 00                	pushq	$0
ffffff800020087c: 68 be 00 00 00       	pushq	$190
ffffff8000200881: e9 df 02 00 00       	jmp	0xffffff8000200b65 <_trap_handlers+0xa45>
ffffff8000200886: 6a 00                	pushq	$0
ffffff8000200888: 68 bf 00 00 00       	pushq	$191
ffffff800020088d: e9 d3 02 00 00       	jmp	0xffffff8000200b65 <_trap_handlers+0xa45>
ffffff8000200892: 6a 00                	pushq	$0
ffffff8000200894: 68 c0 00 00 00       	pushq	$192
ffffff8000200899: e9 c7 02 00 00       	jmp	0xffffff8000200b65 <_trap_handlers+0xa45>
ffffff800020089e: 6a 00                	pushq	$0
ffffff80002008a0: 68 c1 00 00 00       	pushq	$193
ffffff80002008a5: e9 bb 02 00 00       	jmp	0xffffff8000200b65 <_trap_handlers+0xa45>
ffffff80002008aa: 6a 00                	pushq	$0
ffffff80002008ac: 68 c2 00 00 00       	pushq	$194
ffffff80002008b1: e9 af 02 00 00       	jmp	0xffffff8000200b65 <_trap_handlers+0xa45>
ffffff80002008b6: 6a 00                	pushq	$0
ffffff80002008b8: 68 c3 00 00 00       	pushq	$195
ffffff80002008bd: e9 a3 02 00 00       	jmp	0xffffff8000200b65 <_trap_handlers+0xa45>
ffffff80002008c2: 6a 00                	pushq	$0
ffffff80002008c4: 68 c4 00 00 00       	pushq	$196
ffffff80002008c9: e9 97 02 00 00       	jmp	0xffffff8000200b65 <_trap_handlers+0xa45>
ffffff80002008ce: 6a 00                	pushq	$0
ffffff80002008d0: 68 c5 00 00 00       	pushq	$197
ffffff80002008d5: e9 8b 02 00 00       	jmp	0xffffff8000200b65 <_trap_handlers+0xa45>
ffffff80002008da: 6a 00                	pushq	$0
ffffff80002008dc: 68 c6 00 00 00       	pushq	$198
ffffff80002008e1: e9 7f 02 00 00       	jmp	0xffffff8000200b65 <_trap_handlers+0xa45>
ffffff80002008e6: 6a 00                	pushq	$0
ffffff80002008e8: 68 c7 00 00 00       	pushq	$199
ffffff80002008ed: e9 73 02 00 00       	jmp	0xffffff8000200b65 <_trap_handlers+0xa45>
ffffff80002008f2: 6a 00                	pushq	$0
ffffff80002008f4: 68 c8 00 00 00       	pushq	$200
ffffff80002008f9: e9 67 02 00 00       	jmp	0xffffff8000200b65 <_trap_handlers+0xa45>
ffffff80002008fe: 6a 00                	pushq	$0
ffffff8000200900: 68 c9 00 00 00       	pushq	$201
ffffff8000200905: e9 5b 02 00 00       	jmp	0xffffff8000200b65 <_trap_handlers+0xa45>
ffffff800020090a: 6a 00                	pushq	$0
ffffff800020090c: 68 ca 00 00 00       	pushq	$202
ffffff8000200911: e9 4f 02 00 00       	jmp	0xffffff8000200b65 <_trap_handlers+0xa45>
ffffff8000200916: 6a 00                	pushq	$0
ffffff8000200918: 68 cb 00 00 00       	pushq	$203
ffffff800020091d: e9 43 02 00 00       	jmp	0xffffff8000200b65 <_trap_handlers+0xa45>
ffffff8000200922: 6a 00                	pushq	$0
ffffff8000200924: 68 cc 00 00 00       	pushq	$204
ffffff8000200929: e9 37 02 00 00       	jmp	0xffffff8000200b65 <_trap_handlers+0xa45>
ffffff800020092e: 6a 00                	pushq	$0
ffffff8000200930: 68 cd 00 00 00       	pushq	$205
ffffff8000200935: e9 2b 02 00 00       	jmp	0xffffff8000200b65 <_trap_handlers+0xa45>
ffffff800020093a: 6a 00                	pushq	$0
ffffff800020093c: 68 ce 00 00 00       	pushq	$206
ffffff8000200941: e9 1f 02 00 00       	jmp	0xffffff8000200b65 <_trap_handlers+0xa45>
ffffff8000200946: 6a 00                	pushq	$0
ffffff8000200948: 68 cf 00 00 00       	pushq	$207
ffffff800020094d: e9 13 02 00 00       	jmp	0xffffff8000200b65 <_trap_handlers+0xa45>
ffffff8000200952: 6a 00                	pushq	$0
ffffff8000200954: 68 d0 00 00 00       	pushq	$208
ffffff8000200959: e9 07 02 00 00       	jmp	0xffffff8000200b65 <_trap_handlers+0xa45>
ffffff800020095e: 6a 00                	pushq	$0
ffffff8000200960: 68 d1 00 00 00       	pushq	$209
ffffff8000200965: e9 fb 01 00 00       	jmp	0xffffff8000200b65 <_trap_handlers+0xa45>
ffffff800020096a: 6a 00                	pushq	$0
ffffff800020096c: 68 d2 00 00 00       	pushq	$210
ffffff8000200971: e9 ef 01 00 00       	jmp	0xffffff8000200b65 <_trap_handlers+0xa45>
ffffff8000200976: 6a 00                	pushq	$0
ffffff8000200978: 68 d3 00 00 00       	pushq	$211
ffffff800020097d: e9 e3 01 00 00       	jmp	0xffffff8000200b65 <_trap_handlers+0xa45>
ffffff8000200982: 6a 00                	pushq	$0
ffffff8000200984: 68 d4 00 00 00       	pushq	$212
ffffff8000200989: e9 d7 01 00 00       	jmp	0xffffff8000200b65 <_trap_handlers+0xa45>
ffffff800020098e: 6a 00                	pushq	$0
ffffff8000200990: 68 d5 00 00 00       	pushq	$213
ffffff8000200995: e9 cb 01 00 00       	jmp	0xffffff8000200b65 <_trap_handlers+0xa45>
ffffff800020099a: 6a 00                	pushq	$0
ffffff800020099c: 68 d6 00 00 00       	pushq	$214
ffffff80002009a1: e9 bf 01 00 00       	jmp	0xffffff8000200b65 <_trap_handlers+0xa45>
ffffff80002009a6: 6a 00                	pushq	$0
ffffff80002009a8: 68 d7 00 00 00       	pushq	$215
ffffff80002009ad: e9 b3 01 00 00       	jmp	0xffffff8000200b65 <_trap_handlers+0xa45>
ffffff80002009b2: 6a 00                	pushq	$0
ffffff80002009b4: 68 d8 00 00 00       	pushq	$216
ffffff80002009b9: e9 a7 01 00 00       	jmp	0xffffff8000200b65 <_trap_handlers+0xa45>
ffffff80002009be: 6a 00                	pushq	$0
ffffff80002009c0: 68 d9 00 00 00       	pushq	$217
ffffff80002009c5: e9 9b 01 00 00       	jmp	0xffffff8000200b65 <_trap_handlers+0xa45>
ffffff80002009ca: 6a 00                	pushq	$0
ffffff80002009cc: 68 da 00 00 00       	pushq	$218
ffffff80002009d1: e9 8f 01 00 00       	jmp	0xffffff8000200b65 <_trap_handlers+0xa45>
ffffff80002009d6: 6a 00                	pushq	$0
ffffff80002009d8: 68 db 00 00 00       	pushq	$219
ffffff80002009dd: e9 83 01 00 00       	jmp	0xffffff8000200b65 <_trap_handlers+0xa45>
ffffff80002009e2: 6a 00                	pushq	$0
ffffff80002009e4: 68 dc 00 00 00       	pushq	$220
ffffff80002009e9: e9 77 01 00 00       	jmp	0xffffff8000200b65 <_trap_handlers+0xa45>
ffffff80002009ee: 6a 00                	pushq	$0
ffffff80002009f0: 68 dd 00 00 00       	pushq	$221
ffffff80002009f5: e9 6b 01 00 00       	jmp	0xffffff8000200b65 <_trap_handlers+0xa45>
ffffff80002009fa: 6a 00                	pushq	$0
ffffff80002009fc: 68 de 00 00 00       	pushq	$222
ffffff8000200a01: e9 5f 01 00 00       	jmp	0xffffff8000200b65 <_trap_handlers+0xa45>
ffffff8000200a06: 6a 00                	pushq	$0
ffffff8000200a08: 68 df 00 00 00       	pushq	$223
ffffff8000200a0d: e9 53 01 00 00       	jmp	0xffffff8000200b65 <_trap_handlers+0xa45>
ffffff8000200a12: 6a 00                	pushq	$0
ffffff8000200a14: 68 e0 00 00 00       	pushq	$224
ffffff8000200a19: e9 47 01 00 00       	jmp	0xffffff8000200b65 <_trap_handlers+0xa45>
ffffff8000200a1e: 6a 00                	pushq	$0
ffffff8000200a20: 68 e1 00 00 00       	pushq	$225
ffffff8000200a25: e9 3b 01 00 00       	jmp	0xffffff8000200b65 <_trap_handlers+0xa45>
ffffff8000200a2a: 6a 00                	pushq	$0
ffffff8000200a2c: 68 e2 00 00 00       	pushq	$226
ffffff8000200a31: e9 2f 01 00 00       	jmp	0xffffff8000200b65 <_trap_handlers+0xa45>
ffffff8000200a36: 6a 00                	pushq	$0
ffffff8000200a38: 68 e3 00 00 00       	pushq	$227
ffffff8000200a3d: e9 23 01 00 00       	jmp	0xffffff8000200b65 <_trap_handlers+0xa45>
ffffff8000200a42: 6a 00                	pushq	$0
ffffff8000200a44: 68 e4 00 00 00       	pushq	$228
ffffff8000200a49: e9 17 01 00 00       	jmp	0xffffff8000200b65 <_trap_handlers+0xa45>
ffffff8000200a4e: 6a 00                	pushq	$0
ffffff8000200a50: 68 e5 00 00 00       	pushq	$229
ffffff8000200a55: e9 0b 01 00 00       	jmp	0xffffff8000200b65 <_trap_handlers+0xa45>
ffffff8000200a5a: 6a 00                	pushq	$0
ffffff8000200a5c: 68 e6 00 00 00       	pushq	$230
ffffff8000200a61: e9 ff 00 00 00       	jmp	0xffffff8000200b65 <_trap_handlers+0xa45>
ffffff8000200a66: 6a 00                	pushq	$0
ffffff8000200a68: 68 e7 00 00 00       	pushq	$231
ffffff8000200a6d: e9 f3 00 00 00       	jmp	0xffffff8000200b65 <_trap_handlers+0xa45>
ffffff8000200a72: 6a 00                	pushq	$0
ffffff8000200a74: 68 e8 00 00 00       	pushq	$232
ffffff8000200a79: e9 e7 00 00 00       	jmp	0xffffff8000200b65 <_trap_handlers+0xa45>
ffffff8000200a7e: 6a 00                	pushq	$0
ffffff8000200a80: 68 e9 00 00 00       	pushq	$233
ffffff8000200a85: e9 db 00 00 00       	jmp	0xffffff8000200b65 <_trap_handlers+0xa45>
ffffff8000200a8a: 6a 00                	pushq	$0
ffffff8000200a8c: 68 ea 00 00 00       	pushq	$234
ffffff8000200a91: e9 cf 00 00 00       	jmp	0xffffff8000200b65 <_trap_handlers+0xa45>
ffffff8000200a96: 6a 00                	pushq	$0
ffffff8000200a98: 68 eb 00 00 00       	pushq	$235
ffffff8000200a9d: e9 c3 00 00 00       	jmp	0xffffff8000200b65 <_trap_handlers+0xa45>
ffffff8000200aa2: 6a 00                	pushq	$0
ffffff8000200aa4: 68 ec 00 00 00       	pushq	$236
ffffff8000200aa9: e9 b7 00 00 00       	jmp	0xffffff8000200b65 <_trap_handlers+0xa45>
ffffff8000200aae: 6a 00                	pushq	$0
ffffff8000200ab0: 68 ed 00 00 00       	pushq	$237
ffffff8000200ab5: e9 ab 00 00 00       	jmp	0xffffff8000200b65 <_trap_handlers+0xa45>
ffffff8000200aba: 6a 00                	pushq	$0
ffffff8000200abc: 68 ee 00 00 00       	pushq	$238
ffffff8000200ac1: e9 9f 00 00 00       	jmp	0xffffff8000200b65 <_trap_handlers+0xa45>
ffffff8000200ac6: 6a 00                	pushq	$0
ffffff8000200ac8: 68 ef 00 00 00       	pushq	$239
ffffff8000200acd: e9 93 00 00 00       	jmp	0xffffff8000200b65 <_trap_handlers+0xa45>
ffffff8000200ad2: 6a 00                	pushq	$0
ffffff8000200ad4: 68 f0 00 00 00       	pushq	$240
ffffff8000200ad9: e9 87 00 00 00       	jmp	0xffffff8000200b65 <_trap_handlers+0xa45>
ffffff8000200ade: 6a 00                	pushq	$0
ffffff8000200ae0: 68 f1 00 00 00       	pushq	$241
ffffff8000200ae5: eb 7e                	jmp	0xffffff8000200b65 <_trap_handlers+0xa45>
ffffff8000200ae7: 6a 00                	pushq	$0
ffffff8000200ae9: 68 f2 00 00 00       	pushq	$242
ffffff8000200aee: eb 75                	jmp	0xffffff8000200b65 <_trap_handlers+0xa45>
ffffff8000200af0: 6a 00                	pushq	$0
ffffff8000200af2: 68 f3 00 00 00       	pushq	$243
ffffff8000200af7: eb 6c                	jmp	0xffffff8000200b65 <_trap_handlers+0xa45>
ffffff8000200af9: 6a 00                	pushq	$0
ffffff8000200afb: 68 f4 00 00 00       	pushq	$244
ffffff8000200b00: eb 63                	jmp	0xffffff8000200b65 <_trap_handlers+0xa45>
ffffff8000200b02: 6a 00                	pushq	$0
ffffff8000200b04: 68 f5 00 00 00       	pushq	$245
ffffff8000200b09: eb 5a                	jmp	0xffffff8000200b65 <_trap_handlers+0xa45>
ffffff8000200b0b: 6a 00                	pushq	$0
ffffff8000200b0d: 68 f6 00 00 00       	pushq	$246
ffffff8000200b12: eb 51                	jmp	0xffffff8000200b65 <_trap_handlers+0xa45>
ffffff8000200b14: 6a 00                	pushq	$0
ffffff8000200b16: 68 f7 00 00 00       	pushq	$247
ffffff8000200b1b: eb 48                	jmp	0xffffff8000200b65 <_trap_handlers+0xa45>
ffffff8000200b1d: 6a 00                	pushq	$0
ffffff8000200b1f: 68 f8 00 00 00       	pushq	$248
ffffff8000200b24: eb 3f                	jmp	0xffffff8000200b65 <_trap_handlers+0xa45>
ffffff8000200b26: 6a 00                	pushq	$0
ffffff8000200b28: 68 f9 00 00 00       	pushq	$249
ffffff8000200b2d: eb 36                	jmp	0xffffff8000200b65 <_trap_handlers+0xa45>
ffffff8000200b2f: 6a 00                	pushq	$0
ffffff8000200b31: 68 fa 00 00 00       	pushq	$250
ffffff8000200b36: eb 2d                	jmp	0xffffff8000200b65 <_trap_handlers+0xa45>
ffffff8000200b38: 6a 00                	pushq	$0
ffffff8000200b3a: 68 fb 00 00 00       	pushq	$251
ffffff8000200b3f: eb 24                	jmp	0xffffff8000200b65 <_trap_handlers+0xa45>
ffffff8000200b41: 6a 00                	pushq	$0
ffffff8000200b43: 68 fc 00 00 00       	pushq	$252
ffffff8000200b48: eb 1b                	jmp	0xffffff8000200b65 <_trap_handlers+0xa45>
ffffff8000200b4a: 6a 00                	pushq	$0
ffffff8000200b4c: 68 fd 00 00 00       	pushq	$253
ffffff8000200b51: eb 12                	jmp	0xffffff8000200b65 <_trap_handlers+0xa45>
ffffff8000200b53: 6a 00                	pushq	$0
ffffff8000200b55: 68 fe 00 00 00       	pushq	$254
ffffff8000200b5a: eb 09                	jmp	0xffffff8000200b65 <_trap_handlers+0xa45>
ffffff8000200b5c: 6a 00                	pushq	$0
ffffff8000200b5e: 68 ff 00 00 00       	pushq	$255
ffffff8000200b63: eb 00                	jmp	0xffffff8000200b65 <_trap_handlers+0xa45>
ffffff8000200b65: f6 44 24 18 03       	testb	$3, 24(%rsp)
ffffff8000200b6a: 74 03                	je	0xffffff8000200b6f <_trap_handlers+0xa4f>
ffffff8000200b6c: 0f 01 f8             	swapgs
ffffff8000200b6f: 41 57                	pushq	%r15
ffffff8000200b71: 41 56                	pushq	%r14
ffffff8000200b73: 41 55                	pushq	%r13
ffffff8000200b75: 41 54                	pushq	%r12
ffffff8000200b77: 41 53                	pushq	%r11
ffffff8000200b79: 41 52                	pushq	%r10
ffffff8000200b7b: 41 51                	pushq	%r9
ffffff8000200b7d: 41 50                	pushq	%r8
ffffff8000200b7f: 57                   	pushq	%rdi
ffffff8000200b80: 56                   	pushq	%rsi
ffffff8000200b81: 55                   	pushq	%rbp
ffffff8000200b82: 53                   	pushq	%rbx
ffffff8000200b83: 52                   	pushq	%rdx
ffffff8000200b84: 51                   	pushq	%rcx
ffffff8000200b85: 50                   	pushq	%rax
ffffff8000200b86: 48 89 e7             	movq	%rsp, %rdi
ffffff8000200b89: e8 52 02 00 00       	callq	0xffffff8000200de0 <x86_trap_handler>
ffffff8000200b8e: 58                   	popq	%rax
ffffff8000200b8f: 59                   	popq	%rcx
ffffff8000200b90: 5a                   	popq	%rdx
ffffff8000200b91: 5b                   	popq	%rbx
ffffff8000200b92: 5d                   	popq	%rbp
ffffff8000200b93: 5e                   	popq	%rsi
ffffff8000200b94: 5f                   	popq	%rdi
ffffff8000200b95: 41 58                	popq	%r8
ffffff8000200b97: 41 59                	popq	%r9
ffffff8000200b99: 41 5a                	popq	%r10
ffffff8000200b9b: 41 5b                	popq	%r11
ffffff8000200b9d: 41 5c                	popq	%r12
ffffff8000200b9f: 41 5d                	popq	%r13
ffffff8000200ba1: 41 5e                	popq	%r14
ffffff8000200ba3: 41 5f                	popq	%r15
ffffff8000200ba5: f6 44 24 18 03       	testb	$3, 24(%rsp)
ffffff8000200baa: 74 03                	je	0xffffff8000200baf <_trap_handlers+0xa8f>
ffffff8000200bac: 0f 01 f8             	swapgs
ffffff8000200baf: 48 83 c4 10          	addq	$16, %rsp
ffffff8000200bb3: 48 cf                	iretq
ffffff8000200bb5: cc                   	int3
ffffff8000200bb6: cc                   	int3
ffffff8000200bb7: cc                   	int3
ffffff8000200bb8: cc                   	int3
ffffff8000200bb9: cc                   	int3
ffffff8000200bba: cc                   	int3
ffffff8000200bbb: cc                   	int3
ffffff8000200bbc: cc                   	int3
ffffff8000200bbd: cc                   	int3
ffffff8000200bbe: cc                   	int3
ffffff8000200bbf: cc                   	int3

ffffff8000200bc0 <main>:
ffffff8000200bc0: 53                   	pushq	%rbx
ffffff8000200bc1: 48 81 ec c0 00 00 00 	subq	$192, %rsp
ffffff8000200bc8: 9c                   	pushfq
ffffff8000200bc9: 5b                   	popq	%rbx
ffffff8000200bca: fa                   	cli
ffffff8000200bcb: 48 8d 05 56 24 05 00 	leaq	336982(%rip), %rax      # 0xffffff8000253028 <_ZN5libax2io5stdio6stdout8INSTANCE17h4c5dc04dc8abc6f2E>
ffffff8000200bd2: 48 89 44 24 08       	movq	%rax, 8(%rsp)
ffffff8000200bd7: 48 8d 44 24 08       	leaq	8(%rsp), %rax
ffffff8000200bdc: 48 89 44 24 10       	movq	%rax, 16(%rsp)
ffffff8000200be1: c7 44 24 18 15 00 00 00      	movl	$21, 24(%rsp)
ffffff8000200be9: 48 c7 44 24 20 00 00 00 00   	movq	$0, 32(%rsp)
ffffff8000200bf2: 48 8d 05 07 f4 00 00 	leaq	62471(%rip), %rax       # 0xffffff8000210000 <sdata+0x4000>
ffffff8000200bf9: 48 89 44 24 30       	movq	%rax, 48(%rsp)
ffffff8000200bfe: 48 c7 44 24 38 01 00 00 00   	movq	$1, 56(%rsp)
ffffff8000200c07: 48 8b 05 02 01 01 00 	movq	65794(%rip), %rax       # 0xffffff8000210d10 <_ZN3log6LOGGER17h48756037b7073395E.1+0x110>
ffffff8000200c0e: 48 89 44 24 40       	movq	%rax, 64(%rsp)
ffffff8000200c13: 48 c7 44 24 48 00 00 00 00   	movq	$0, 72(%rsp)
ffffff8000200c1c: 48 8d 35 e5 fe 00 00 	leaq	65253(%rip), %rsi       # 0xffffff8000210b08 <_ZN5axhal8platform6pc_x864time12CPU_FREQ_MHZ17hcbee90971ca93e77E.0+0x980>
ffffff8000200c23: 48 8d 7c 24 10       	leaq	16(%rsp), %rdi
ffffff8000200c28: 48 8d 54 24 20       	leaq	32(%rsp), %rdx
ffffff8000200c2d: e8 8e 57 00 00       	callq	0xffffff80002063c0 <_ZN4core3fmt5write17h3e64ac24810c32e1E>
ffffff8000200c32: 84 c0                	testb	%al, %al
ffffff8000200c34: 75 1c                	jne	0xffffff8000200c52 <main+0x92>
ffffff8000200c36: f7 c3 00 02 00 00    	testl	$512, %ebx              # imm = 0x200
ffffff8000200c3c: 75 0a                	jne	0xffffff8000200c48 <main+0x88>
ffffff8000200c3e: fa                   	cli
ffffff8000200c3f: 48 81 c4 c0 00 00 00 	addq	$192, %rsp
ffffff8000200c46: 5b                   	popq	%rbx
ffffff8000200c47: c3                   	retq
ffffff8000200c48: fb                   	sti
ffffff8000200c49: 48 81 c4 c0 00 00 00 	addq	$192, %rsp
ffffff8000200c50: 5b                   	popq	%rbx
ffffff8000200c51: c3                   	retq
ffffff8000200c52: 8b 5c 24 18          	movl	24(%rsp), %ebx
ffffff8000200c56: 83 fb 15             	cmpl	$21, %ebx
ffffff8000200c59: 0f 85 25 01 00 00    	jne	0xffffff8000200d84 <main+0x1c4>
ffffff8000200c5f: 48 8b 05 ca 23 05 00 	movq	336842(%rip), %rax      # 0xffffff8000253030 <_ZN3log20MAX_LOG_LEVEL_FILTER17h9ec50564a00176a0E.0>
ffffff8000200c66: bb 06 00 00 00       	movl	$6, %ebx
ffffff8000200c6b: 48 83 f8 02          	cmpq	$2, %rax
ffffff8000200c6f: 0f 82 0f 01 00 00    	jb	0xffffff8000200d84 <main+0x1c4>
ffffff8000200c75: 48 8d 05 b0 8e 00 00 	leaq	36528(%rip), %rax       # 0xffffff8000209b2c <trap_handler_table+0xb2c>
ffffff8000200c7c: 48 89 84 24 a0 00 00 00      	movq	%rax, 160(%rsp)
ffffff8000200c84: 48 8d 05 25 01 00 00 	leaq	293(%rip), %rax         # 0xffffff8000200db0 <_ZN53_$LT$axerrno..AxError$u20$as$u20$core..fmt..Debug$GT$3fmt17he1ca5dadaf032a12E>
ffffff8000200c8b: 48 89 84 24 a8 00 00 00      	movq	%rax, 168(%rsp)
ffffff8000200c93: 48 8d 05 9e fe 00 00 	leaq	65182(%rip), %rax       # 0xffffff8000210b38 <_ZN5axhal8platform6pc_x864time12CPU_FREQ_MHZ17hcbee90971ca93e77E.0+0x9b0>
ffffff8000200c9a: 48 89 84 24 b0 00 00 00      	movq	%rax, 176(%rsp)
ffffff8000200ca2: 48 8d 05 37 75 00 00 	leaq	30007(%rip), %rax       # 0xffffff80002081e0 <_ZN44_$LT$$RF$T$u20$as$u20$core..fmt..Display$GT$3fmt17h826ed5806fed4bf7E>
ffffff8000200ca9: 48 89 84 24 b8 00 00 00      	movq	%rax, 184(%rsp)
ffffff8000200cb1: 48 8b 05 70 23 05 00 	movq	336752(%rip), %rax      # 0xffffff8000253028 <_ZN5libax2io5stdio6stdout8INSTANCE17h4c5dc04dc8abc6f2E>
ffffff8000200cb8: 48 83 f8 02          	cmpq	$2, %rax
ffffff8000200cbc: 48 8d 05 05 ff 00 00 	leaq	65285(%rip), %rax       # 0xffffff8000210bc8 <_ZN5axhal8platform6pc_x864time12CPU_FREQ_MHZ17hcbee90971ca93e77E.0+0xa40>
ffffff8000200cc3: 48 0f 44 05 35 ff 00 00      	cmoveq	65333(%rip), %rax # 0xffffff8000210c00 <_ZN3log6LOGGER17h48756037b7073395E.1>
ffffff8000200ccb: 48 8d 3d d5 a2 00 00 	leaq	41685(%rip), %rdi       # 0xffffff800020afa7 <_ZN3log6logger3NOP17hf5a5c7f8a7401e67E>
ffffff8000200cd2: 48 0f 44 3d 36 00 01 00      	cmoveq	65590(%rip), %rdi # 0xffffff8000210d10 <_ZN3log6LOGGER17h48756037b7073395E.1+0x110>
ffffff8000200cda: 48 8d 0d 63 8e 00 00 	leaq	36451(%rip), %rcx       # 0xffffff8000209b44 <trap_handler_table+0xb44>
ffffff8000200ce1: 48 89 4c 24 58       	movq	%rcx, 88(%rsp)
ffffff8000200ce6: 48 c7 44 24 60 04 00 00 00   	movq	$4, 96(%rsp)
ffffff8000200cef: 48 c7 44 24 68 02 00 00 00   	movq	$2, 104(%rsp)
ffffff8000200cf8: 48 c7 44 24 20 00 00 00 00   	movq	$0, 32(%rsp)
ffffff8000200d01: 48 8d 15 e0 fd 00 00 	leaq	64992(%rip), %rdx       # 0xffffff8000210ae8 <_ZN5axhal8platform6pc_x864time12CPU_FREQ_MHZ17hcbee90971ca93e77E.0+0x960>
ffffff8000200d08: 48 89 54 24 30       	movq	%rdx, 48(%rsp)
ffffff8000200d0d: 48 c7 44 24 38 02 00 00 00   	movq	$2, 56(%rsp)
ffffff8000200d16: 48 8d 94 24 a0 00 00 00      	leaq	160(%rsp), %rdx
ffffff8000200d1e: 48 89 54 24 40       	movq	%rdx, 64(%rsp)
ffffff8000200d23: 48 c7 44 24 48 02 00 00 00   	movq	$2, 72(%rsp)
ffffff8000200d2c: 48 c7 44 24 70 00 00 00 00   	movq	$0, 112(%rsp)
ffffff8000200d35: 48 89 4c 24 78       	movq	%rcx, 120(%rsp)
ffffff8000200d3a: 48 c7 84 24 80 00 00 00 04 00 00 00  	movq	$4, 128(%rsp)
ffffff8000200d46: 48 c7 84 24 88 00 00 00 00 00 00 00  	movq	$0, 136(%rsp)
ffffff8000200d52: 48 8d 0d e2 a1 00 00 	leaq	41442(%rip), %rcx       # 0xffffff800020af3b <_ZN4core7unicode12unicode_data15grapheme_extend7OFFSETS17ha79b4a14ed4d5bccE+0x2e3>
ffffff8000200d59: 48 89 8c 24 90 00 00 00      	movq	%rcx, 144(%rsp)
ffffff8000200d61: 48 c7 84 24 98 00 00 00 16 00 00 00  	movq	$22, 152(%rsp)
ffffff8000200d6d: 48 b9 01 00 00 00 7d 00 00 00	movabsq	$536870912001, %rcx # imm = 0x7D00000001
ffffff8000200d77: 48 89 4c 24 50       	movq	%rcx, 80(%rsp)
ffffff8000200d7c: 48 8d 74 24 20       	leaq	32(%rsp), %rsi
ffffff8000200d81: ff 50 28             	callq	*40(%rax)
ffffff8000200d84: 89 5c 24 20          	movl	%ebx, 32(%rsp)
ffffff8000200d88: 48 8d 3d eb a1 00 00 	leaq	41451(%rip), %rdi       # 0xffffff800020af7a <_ZN4core7unicode12unicode_data15grapheme_extend7OFFSETS17ha79b4a14ed4d5bccE+0x322>
ffffff8000200d8f: 48 8d 0d b2 fd 00 00 	leaq	64946(%rip), %rcx       # 0xffffff8000210b48 <_ZN5axhal8platform6pc_x864time12CPU_FREQ_MHZ17hcbee90971ca93e77E.0+0x9c0>
ffffff8000200d96: 4c 8d 05 cb fd 00 00 	leaq	64971(%rip), %r8        # 0xffffff8000210b68 <_ZN5axhal8platform6pc_x864time12CPU_FREQ_MHZ17hcbee90971ca93e77E.0+0x9e0>
ffffff8000200d9d: 48 8d 54 24 20       	leaq	32(%rsp), %rdx
ffffff8000200da2: be 2b 00 00 00       	movl	$43, %esi
ffffff8000200da7: e8 a4 5c 00 00       	callq	0xffffff8000206a50 <_ZN4core6result13unwrap_failed17he358196271332538E>
ffffff8000200dac: 0f 0b                	ud2
ffffff8000200dae: cc                   	int3
ffffff8000200daf: cc                   	int3

ffffff8000200db0 <_ZN53_$LT$axerrno..AxError$u20$as$u20$core..fmt..Debug$GT$3fmt17he1ca5dadaf032a12E>:
ffffff8000200db0: 8b 07                	movl	(%rdi), %eax
ffffff8000200db2: 48 8d 0d df a2 00 00 	leaq	41695(%rip), %rcx       # 0xffffff800020b098 <SELF_PTR+0xe0>
ffffff8000200db9: 48 8b 14 c1          	movq	(%rcx,%rax,8), %rdx
ffffff8000200dbd: 48 8d 0d 9c fe 00 00 	leaq	65180(%rip), %rcx       # 0xffffff8000210c60 <_ZN3log6LOGGER17h48756037b7073395E.1+0x60>
ffffff8000200dc4: 48 8b 04 c1          	movq	(%rcx,%rax,8), %rax
ffffff8000200dc8: 48 8b 3e             	movq	(%rsi), %rdi
ffffff8000200dcb: 48 8b 4e 08          	movq	8(%rsi), %rcx
ffffff8000200dcf: 48 8b 49 18          	movq	24(%rcx), %rcx
ffffff8000200dd3: 48 89 c6             	movq	%rax, %rsi
ffffff8000200dd6: ff e1                	jmpq	*%rcx
ffffff8000200dd8: cc                   	int3
ffffff8000200dd9: cc                   	int3
ffffff8000200dda: cc                   	int3
ffffff8000200ddb: cc                   	int3
ffffff8000200ddc: cc                   	int3
ffffff8000200ddd: cc                   	int3
ffffff8000200dde: cc                   	int3
ffffff8000200ddf: cc                   	int3

ffffff8000200de0 <x86_trap_handler>:
ffffff8000200de0: 48 81 ec a8 01 00 00 	subq	$424, %rsp              # imm = 0x1A8
ffffff8000200de7: 48 89 7c 24 38       	movq	%rdi, 56(%rsp)
ffffff8000200dec: 0f b6 47 78          	movzbl	120(%rdi), %eax
ffffff8000200df0: 83 f8 03             	cmpl	$3, %eax
ffffff8000200df3: 74 22                	je	0xffffff8000200e17 <x86_trap_handler+0x37>
ffffff8000200df5: 83 f8 0e             	cmpl	$14, %eax
ffffff8000200df8: 0f 84 70 01 00 00    	je	0xffffff8000200f6e <x86_trap_handler+0x18e>
ffffff8000200dfe: 83 f8 0d             	cmpl	$13, %eax
ffffff8000200e01: 0f 84 65 03 00 00    	je	0xffffff800020116c <x86_trap_handler+0x38c>
ffffff8000200e07: 3c 1f                	cmpb	$31, %al
ffffff8000200e09: 0f 86 96 04 00 00    	jbe	0xffffff80002012a5 <x86_trap_handler+0x4c5>
ffffff8000200e0f: 48 81 c4 a8 01 00 00 	addq	$424, %rsp              # imm = 0x1A8
ffffff8000200e16: c3                   	retq
ffffff8000200e17: 48 8b 05 12 22 05 00 	movq	336402(%rip), %rax      # 0xffffff8000253030 <_ZN3log20MAX_LOG_LEVEL_FILTER17h9ec50564a00176a0E.0>
ffffff8000200e1e: 48 83 f8 04          	cmpq	$4, %rax
ffffff8000200e22: 72 eb                	jb	0xffffff8000200e0f <x86_trap_handler+0x2f>
ffffff8000200e24: 48 81 c7 88 00 00 00 	addq	$136, %rdi
ffffff8000200e2b: 48 89 7c 24 08       	movq	%rdi, 8(%rsp)
ffffff8000200e30: 48 8d 05 d9 71 00 00 	leaq	29145(%rip), %rax       # 0xffffff8000208010 <_ZN4core3fmt3num53_$LT$impl$u20$core..fmt..LowerHex$u20$for$u20$i64$GT$3fmt17h4fa87f856a4ce963E>
ffffff8000200e37: 48 89 44 24 10       	movq	%rax, 16(%rsp)
ffffff8000200e3c: 48 c7 84 24 28 01 00 00 02 00 00 00  	movq	$2, 296(%rsp)
ffffff8000200e48: 48 c7 84 24 38 01 00 00 02 00 00 00  	movq	$2, 312(%rsp)
ffffff8000200e54: 48 b8 04 00 00 00 20 00 00 00	movabsq	$137438953476, %rax # imm = 0x2000000004
ffffff8000200e5e: 48 89 84 24 48 01 00 00      	movq	%rax, 328(%rsp)
ffffff8000200e66: c6 84 24 50 01 00 00 03      	movb	$3, 336(%rsp)
ffffff8000200e6e: 48 c7 84 24 58 01 00 00 00 00 00 00  	movq	$0, 344(%rsp)
ffffff8000200e7a: 48 8b 05 a7 21 05 00 	movq	336295(%rip), %rax      # 0xffffff8000253028 <_ZN5libax2io5stdio6stdout8INSTANCE17h4c5dc04dc8abc6f2E>
ffffff8000200e81: 48 83 f8 02          	cmpq	$2, %rax
ffffff8000200e85: 48 8d 05 3c fd 00 00 	leaq	64828(%rip), %rax       # 0xffffff8000210bc8 <_ZN5axhal8platform6pc_x864time12CPU_FREQ_MHZ17hcbee90971ca93e77E.0+0xa40>
ffffff8000200e8c: 48 0f 44 05 6c fd 00 00      	cmoveq	64876(%rip), %rax # 0xffffff8000210c00 <_ZN3log6LOGGER17h48756037b7073395E.1>
ffffff8000200e94: 48 8d 3d 0c a1 00 00 	leaq	41228(%rip), %rdi       # 0xffffff800020afa7 <_ZN3log6logger3NOP17hf5a5c7f8a7401e67E>
ffffff8000200e9b: 48 0f 44 3d 6d fe 00 00      	cmoveq	65133(%rip), %rdi # 0xffffff8000210d10 <_ZN3log6LOGGER17h48756037b7073395E.1+0x110>
ffffff8000200ea3: 48 8d 0d e6 8c 00 00 	leaq	36070(%rip), %rcx       # 0xffffff8000209b90 <trap_handler_table+0xb90>
ffffff8000200eaa: 48 89 8c 24 80 00 00 00      	movq	%rcx, 128(%rsp)
ffffff8000200eb2: 48 c7 84 24 88 00 00 00 19 00 00 00  	movq	$25, 136(%rsp)
ffffff8000200ebe: 48 c7 84 24 90 00 00 00 04 00 00 00  	movq	$4, 144(%rsp)
ffffff8000200eca: 48 8d 94 24 28 01 00 00      	leaq	296(%rsp), %rdx
ffffff8000200ed2: 48 89 54 24 48       	movq	%rdx, 72(%rsp)
ffffff8000200ed7: 48 c7 44 24 50 01 00 00 00   	movq	$1, 80(%rsp)
ffffff8000200ee0: 48 8d 15 c9 f1 00 00 	leaq	61897(%rip), %rdx       # 0xffffff80002100b0 <sdata+0x40b0>
ffffff8000200ee7: 48 89 54 24 58       	movq	%rdx, 88(%rsp)
ffffff8000200eec: 48 c7 44 24 60 02 00 00 00   	movq	$2, 96(%rsp)
ffffff8000200ef5: 48 8d 54 24 08       	leaq	8(%rsp), %rdx
ffffff8000200efa: 48 89 54 24 68       	movq	%rdx, 104(%rsp)
ffffff8000200eff: 48 c7 44 24 70 01 00 00 00   	movq	$1, 112(%rsp)
ffffff8000200f08: 48 c7 84 24 98 00 00 00 00 00 00 00  	movq	$0, 152(%rsp)
ffffff8000200f14: 48 89 8c 24 a0 00 00 00      	movq	%rcx, 160(%rsp)
ffffff8000200f1c: 48 c7 84 24 a8 00 00 00 19 00 00 00  	movq	$25, 168(%rsp)
ffffff8000200f28: 48 c7 84 24 b0 00 00 00 00 00 00 00  	movq	$0, 176(%rsp)
ffffff8000200f34: 48 8d 0d 17 8c 00 00 	leaq	35863(%rip), %rcx       # 0xffffff8000209b52 <trap_handler_table+0xb52>
ffffff8000200f3b: 48 89 8c 24 b8 00 00 00      	movq	%rcx, 184(%rsp)
ffffff8000200f43: 48 c7 84 24 c0 00 00 00 25 00 00 00  	movq	$37, 192(%rsp)
ffffff8000200f4f: 48 b9 01 00 00 00 1f 00 00 00	movabsq	$133143986177, %rcx # imm = 0x1F00000001
ffffff8000200f59: 48 89 4c 24 78       	movq	%rcx, 120(%rsp)
ffffff8000200f5e: 48 8d 74 24 48       	leaq	72(%rsp), %rsi
ffffff8000200f63: ff 50 28             	callq	*40(%rax)
ffffff8000200f66: 48 81 c4 a8 01 00 00 	addq	$424, %rsp              # imm = 0x1A8
ffffff8000200f6d: c3                   	retq
ffffff8000200f6e: 8b 87 90 00 00 00    	movl	144(%rdi), %eax
ffffff8000200f74: f7 d0                	notl	%eax
ffffff8000200f76: a8 03                	testb	$3, %al
ffffff8000200f78: 0f 85 bc 04 00 00    	jne	0xffffff800020143a <x86_trap_handler+0x65a>
ffffff8000200f7e: 48 8b 05 ab 20 05 00 	movq	336043(%rip), %rax      # 0xffffff8000253030 <_ZN3log20MAX_LOG_LEVEL_FILTER17h9ec50564a00176a0E.0>
ffffff8000200f85: 48 83 f8 02          	cmpq	$2, %rax
ffffff8000200f89: 0f 82 80 fe ff ff    	jb	0xffffff8000200e0f <x86_trap_handler+0x2f>
ffffff8000200f8f: 48 8d 87 88 00 00 00 	leaq	136(%rdi), %rax
ffffff8000200f96: 0f 20 d1             	movq	%cr2, %rcx
ffffff8000200f99: 48 89 4c 24 40       	movq	%rcx, 64(%rsp)
ffffff8000200f9e: 48 83 ef 80          	subq	$-128, %rdi
ffffff8000200fa2: 48 89 44 24 08       	movq	%rax, 8(%rsp)
ffffff8000200fa7: 48 8d 05 62 70 00 00 	leaq	28770(%rip), %rax       # 0xffffff8000208010 <_ZN4core3fmt3num53_$LT$impl$u20$core..fmt..LowerHex$u20$for$u20$i64$GT$3fmt17h4fa87f856a4ce963E>
ffffff8000200fae: 48 89 44 24 10       	movq	%rax, 16(%rsp)
ffffff8000200fb3: 48 8d 4c 24 40       	leaq	64(%rsp), %rcx
ffffff8000200fb8: 48 89 4c 24 18       	movq	%rcx, 24(%rsp)
ffffff8000200fbd: 48 89 44 24 20       	movq	%rax, 32(%rsp)
ffffff8000200fc2: 48 89 7c 24 28       	movq	%rdi, 40(%rsp)
ffffff8000200fc7: 48 89 44 24 30       	movq	%rax, 48(%rsp)
ffffff8000200fcc: 48 c7 44 24 48 02 00 00 00   	movq	$2, 72(%rsp)
ffffff8000200fd5: 48 c7 44 24 58 02 00 00 00   	movq	$2, 88(%rsp)
ffffff8000200fde: 48 b8 04 00 00 00 20 00 00 00	movabsq	$137438953476, %rax # imm = 0x2000000004
ffffff8000200fe8: 48 89 44 24 68       	movq	%rax, 104(%rsp)
ffffff8000200fed: c6 44 24 70 03       	movb	$3, 112(%rsp)
ffffff8000200ff2: 48 c7 44 24 78 00 00 00 00   	movq	$0, 120(%rsp)
ffffff8000200ffb: 48 c7 84 24 80 00 00 00 02 00 00 00  	movq	$2, 128(%rsp)
ffffff8000201007: 48 c7 84 24 90 00 00 00 02 00 00 00  	movq	$2, 144(%rsp)
ffffff8000201013: 48 89 84 24 a0 00 00 00      	movq	%rax, 160(%rsp)
ffffff800020101b: c6 84 24 a8 00 00 00 03      	movb	$3, 168(%rsp)
ffffff8000201023: 48 c7 84 24 b0 00 00 00 01 00 00 00  	movq	$1, 176(%rsp)
ffffff800020102f: 48 c7 84 24 b8 00 00 00 02 00 00 00  	movq	$2, 184(%rsp)
ffffff800020103b: 48 c7 84 24 c8 00 00 00 02 00 00 00  	movq	$2, 200(%rsp)
ffffff8000201047: 48 89 84 24 d8 00 00 00      	movq	%rax, 216(%rsp)
ffffff800020104f: c6 84 24 e0 00 00 00 03      	movb	$3, 224(%rsp)
ffffff8000201057: 48 c7 84 24 e8 00 00 00 02 00 00 00  	movq	$2, 232(%rsp)
ffffff8000201063: 48 8b 05 be 1f 05 00 	movq	335806(%rip), %rax      # 0xffffff8000253028 <_ZN5libax2io5stdio6stdout8INSTANCE17h4c5dc04dc8abc6f2E>
ffffff800020106a: 48 83 f8 02          	cmpq	$2, %rax
ffffff800020106e: 48 8d 05 53 fb 00 00 	leaq	64339(%rip), %rax       # 0xffffff8000210bc8 <_ZN5axhal8platform6pc_x864time12CPU_FREQ_MHZ17hcbee90971ca93e77E.0+0xa40>
ffffff8000201075: 48 0f 44 05 83 fb 00 00      	cmoveq	64387(%rip), %rax # 0xffffff8000210c00 <_ZN3log6LOGGER17h48756037b7073395E.1>
ffffff800020107d: 48 8d 3d 23 9f 00 00 	leaq	40739(%rip), %rdi       # 0xffffff800020afa7 <_ZN3log6logger3NOP17hf5a5c7f8a7401e67E>
ffffff8000201084: 48 0f 44 3d 84 fc 00 00      	cmoveq	64644(%rip), %rdi # 0xffffff8000210d10 <_ZN3log6LOGGER17h48756037b7073395E.1+0x110>
ffffff800020108c: 48 8d 0d fd 8a 00 00 	leaq	35581(%rip), %rcx       # 0xffffff8000209b90 <trap_handler_table+0xb90>
ffffff8000201093: 48 89 8c 24 60 01 00 00      	movq	%rcx, 352(%rsp)
ffffff800020109b: 48 c7 84 24 68 01 00 00 19 00 00 00  	movq	$25, 360(%rsp)
ffffff80002010a7: 48 c7 84 24 70 01 00 00 02 00 00 00  	movq	$2, 368(%rsp)
ffffff80002010b3: 48 8d 54 24 48       	leaq	72(%rsp), %rdx
ffffff80002010b8: 48 89 94 24 28 01 00 00      	movq	%rdx, 296(%rsp)
ffffff80002010c0: 48 c7 84 24 30 01 00 00 03 00 00 00  	movq	$3, 304(%rsp)
ffffff80002010cc: 48 8d 15 fd ef 00 00 	leaq	61437(%rip), %rdx       # 0xffffff80002100d0 <sdata+0x40d0>
ffffff80002010d3: 48 89 94 24 38 01 00 00      	movq	%rdx, 312(%rsp)
ffffff80002010db: 48 c7 84 24 40 01 00 00 03 00 00 00  	movq	$3, 320(%rsp)
ffffff80002010e7: 48 8d 54 24 08       	leaq	8(%rsp), %rdx
ffffff80002010ec: 48 89 94 24 48 01 00 00      	movq	%rdx, 328(%rsp)
ffffff80002010f4: 48 c7 84 24 50 01 00 00 03 00 00 00  	movq	$3, 336(%rsp)
ffffff8000201100: 48 c7 84 24 78 01 00 00 00 00 00 00  	movq	$0, 376(%rsp)
ffffff800020110c: 48 89 8c 24 80 01 00 00      	movq	%rcx, 384(%rsp)
ffffff8000201114: 48 c7 84 24 88 01 00 00 19 00 00 00  	movq	$25, 392(%rsp)
ffffff8000201120: 48 c7 84 24 90 01 00 00 00 00 00 00  	movq	$0, 400(%rsp)
ffffff800020112c: 48 8d 0d 1f 8a 00 00 	leaq	35359(%rip), %rcx       # 0xffffff8000209b52 <trap_handler_table+0xb52>
ffffff8000201133: 48 89 8c 24 98 01 00 00      	movq	%rcx, 408(%rsp)
ffffff800020113b: 48 c7 84 24 a0 01 00 00 25 00 00 00  	movq	$37, 416(%rsp)
ffffff8000201147: 48 b9 01 00 00 00 0f 00 00 00	movabsq	$64424509441, %rcx # imm = 0xF00000001
ffffff8000201151: 48 89 8c 24 58 01 00 00      	movq	%rcx, 344(%rsp)
ffffff8000201159: 48 8d b4 24 28 01 00 00      	leaq	296(%rsp), %rsi
ffffff8000201161: ff 50 28             	callq	*40(%rax)
ffffff8000201164: 48 81 c4 a8 01 00 00 	addq	$424, %rsp              # imm = 0x1A8
ffffff800020116b: c3                   	retq
ffffff800020116c: 48 8d 87 88 00 00 00 	leaq	136(%rdi), %rax
ffffff8000201173: 48 83 ef 80          	subq	$-128, %rdi
ffffff8000201177: 48 89 84 24 28 01 00 00      	movq	%rax, 296(%rsp)
ffffff800020117f: 48 8d 05 8a 6e 00 00 	leaq	28298(%rip), %rax       # 0xffffff8000208010 <_ZN4core3fmt3num53_$LT$impl$u20$core..fmt..LowerHex$u20$for$u20$i64$GT$3fmt17h4fa87f856a4ce963E>
ffffff8000201186: 48 89 84 24 30 01 00 00      	movq	%rax, 304(%rsp)
ffffff800020118e: 48 89 bc 24 38 01 00 00      	movq	%rdi, 312(%rsp)
ffffff8000201196: 48 89 84 24 40 01 00 00      	movq	%rax, 320(%rsp)
ffffff800020119e: 48 8d 44 24 38       	leaq	56(%rsp), %rax
ffffff80002011a3: 48 89 84 24 48 01 00 00      	movq	%rax, 328(%rsp)
ffffff80002011ab: 48 8d 05 ce 1c 00 00 	leaq	7374(%rip), %rax        # 0xffffff8000202e80 <_ZN50_$LT$$RF$mut$u20$T$u20$as$u20$core..fmt..Debug$GT$3fmt17h346f578aafa36848E>
ffffff80002011b2: 48 89 84 24 50 01 00 00      	movq	%rax, 336(%rsp)
ffffff80002011ba: 48 c7 44 24 48 02 00 00 00   	movq	$2, 72(%rsp)
ffffff80002011c3: 48 c7 44 24 58 02 00 00 00   	movq	$2, 88(%rsp)
ffffff80002011cc: 48 b8 04 00 00 00 20 00 00 00	movabsq	$137438953476, %rax # imm = 0x2000000004
ffffff80002011d6: 48 89 44 24 68       	movq	%rax, 104(%rsp)
ffffff80002011db: c6 44 24 70 03       	movb	$3, 112(%rsp)
ffffff80002011e0: 48 c7 44 24 78 00 00 00 00   	movq	$0, 120(%rsp)
ffffff80002011e9: 48 c7 84 24 80 00 00 00 02 00 00 00  	movq	$2, 128(%rsp)
ffffff80002011f5: 48 c7 84 24 90 00 00 00 02 00 00 00  	movq	$2, 144(%rsp)
ffffff8000201201: 48 89 84 24 a0 00 00 00      	movq	%rax, 160(%rsp)
ffffff8000201209: c6 84 24 a8 00 00 00 03      	movb	$3, 168(%rsp)
ffffff8000201211: 48 c7 84 24 b0 00 00 00 01 00 00 00  	movq	$1, 176(%rsp)
ffffff800020121d: 48 c7 84 24 b8 00 00 00 02 00 00 00  	movq	$2, 184(%rsp)
ffffff8000201229: 48 c7 84 24 c8 00 00 00 02 00 00 00  	movq	$2, 200(%rsp)
ffffff8000201235: 48 b8 14 00 00 00 20 00 00 00	movabsq	$137438953492, %rax # imm = 0x2000000014
ffffff800020123f: 48 89 84 24 d8 00 00 00      	movq	%rax, 216(%rsp)
ffffff8000201247: c6 84 24 e0 00 00 00 03      	movb	$3, 224(%rsp)
ffffff800020124f: 48 c7 84 24 e8 00 00 00 02 00 00 00  	movq	$2, 232(%rsp)
ffffff800020125b: 48 8d 05 06 ee 00 00 	leaq	60934(%rip), %rax       # 0xffffff8000210068 <sdata+0x4068>
ffffff8000201262: 48 89 44 24 18       	movq	%rax, 24(%rsp)
ffffff8000201267: 48 c7 44 24 20 03 00 00 00   	movq	$3, 32(%rsp)
ffffff8000201270: 48 8d 44 24 48       	leaq	72(%rsp), %rax
ffffff8000201275: 48 89 44 24 08       	movq	%rax, 8(%rsp)
ffffff800020127a: 48 c7 44 24 10 03 00 00 00   	movq	$3, 16(%rsp)
ffffff8000201283: 48 8d 84 24 28 01 00 00      	leaq	296(%rsp), %rax
ffffff800020128b: 48 89 44 24 28       	movq	%rax, 40(%rsp)
ffffff8000201290: 48 c7 44 24 30 03 00 00 00   	movq	$3, 48(%rsp)
ffffff8000201299: 48 8d 35 f8 ed 00 00 	leaq	60920(%rip), %rsi       # 0xffffff8000210098 <sdata+0x4098>
ffffff80002012a0: e9 1a 03 00 00       	jmp	0xffffff80002015bf <x86_trap_handler+0x7df>
ffffff80002012a5: 48 8d 47 78          	leaq	120(%rdi), %rax
ffffff80002012a9: 48 8d 8f 80 00 00 00 	leaq	128(%rdi), %rcx
ffffff80002012b0: 48 81 c7 88 00 00 00 	addq	$136, %rdi
ffffff80002012b7: 48 89 84 24 28 01 00 00      	movq	%rax, 296(%rsp)
ffffff80002012bf: 48 8d 05 8a 43 00 00 	leaq	17290(%rip), %rax       # 0xffffff8000205650 <_ZN4core3fmt3num3imp52_$LT$impl$u20$core..fmt..Display$u20$for$u20$u64$GT$3fmt17h78dc0edf4b145690E>
ffffff80002012c6: 48 89 84 24 30 01 00 00      	movq	%rax, 304(%rsp)
ffffff80002012ce: 48 89 8c 24 38 01 00 00      	movq	%rcx, 312(%rsp)
ffffff80002012d6: 48 8d 05 33 6d 00 00 	leaq	27955(%rip), %rax       # 0xffffff8000208010 <_ZN4core3fmt3num53_$LT$impl$u20$core..fmt..LowerHex$u20$for$u20$i64$GT$3fmt17h4fa87f856a4ce963E>
ffffff80002012dd: 48 89 84 24 40 01 00 00      	movq	%rax, 320(%rsp)
ffffff80002012e5: 48 89 bc 24 48 01 00 00      	movq	%rdi, 328(%rsp)
ffffff80002012ed: 48 89 84 24 50 01 00 00      	movq	%rax, 336(%rsp)
ffffff80002012f5: 48 8d 44 24 38       	leaq	56(%rsp), %rax
ffffff80002012fa: 48 89 84 24 58 01 00 00      	movq	%rax, 344(%rsp)
ffffff8000201302: 48 8d 05 77 1b 00 00 	leaq	7031(%rip), %rax        # 0xffffff8000202e80 <_ZN50_$LT$$RF$mut$u20$T$u20$as$u20$core..fmt..Debug$GT$3fmt17h346f578aafa36848E>
ffffff8000201309: 48 89 84 24 60 01 00 00      	movq	%rax, 352(%rsp)
ffffff8000201311: 48 c7 44 24 48 02 00 00 00   	movq	$2, 72(%rsp)
ffffff800020131a: 48 c7 44 24 58 02 00 00 00   	movq	$2, 88(%rsp)
ffffff8000201323: 48 b8 00 00 00 00 20 00 00 00	movabsq	$137438953472, %rax # imm = 0x2000000000
ffffff800020132d: 48 89 44 24 68       	movq	%rax, 104(%rsp)
ffffff8000201332: c6 44 24 70 03       	movb	$3, 112(%rsp)
ffffff8000201337: 48 c7 44 24 78 00 00 00 00   	movq	$0, 120(%rsp)
ffffff8000201340: 48 c7 84 24 80 00 00 00 02 00 00 00  	movq	$2, 128(%rsp)
ffffff800020134c: 48 c7 84 24 90 00 00 00 02 00 00 00  	movq	$2, 144(%rsp)
ffffff8000201358: 48 b8 04 00 00 00 20 00 00 00	movabsq	$137438953476, %rax # imm = 0x2000000004
ffffff8000201362: 48 89 84 24 a0 00 00 00      	movq	%rax, 160(%rsp)
ffffff800020136a: c6 84 24 a8 00 00 00 03      	movb	$3, 168(%rsp)
ffffff8000201372: 48 c7 84 24 b0 00 00 00 01 00 00 00  	movq	$1, 176(%rsp)
ffffff800020137e: 48 c7 84 24 b8 00 00 00 02 00 00 00  	movq	$2, 184(%rsp)
ffffff800020138a: 48 c7 84 24 c8 00 00 00 02 00 00 00  	movq	$2, 200(%rsp)
ffffff8000201396: 48 89 84 24 d8 00 00 00      	movq	%rax, 216(%rsp)
ffffff800020139e: c6 84 24 e0 00 00 00 03      	movb	$3, 224(%rsp)
ffffff80002013a6: 48 c7 84 24 e8 00 00 00 02 00 00 00  	movq	$2, 232(%rsp)
ffffff80002013b2: 48 c7 84 24 f0 00 00 00 02 00 00 00  	movq	$2, 240(%rsp)
ffffff80002013be: 48 c7 84 24 00 01 00 00 02 00 00 00  	movq	$2, 256(%rsp)
ffffff80002013ca: 48 b8 14 00 00 00 20 00 00 00	movabsq	$137438953492, %rax # imm = 0x2000000014
ffffff80002013d4: 48 89 84 24 10 01 00 00      	movq	%rax, 272(%rsp)
ffffff80002013dc: c6 84 24 18 01 00 00 03      	movb	$3, 280(%rsp)
ffffff80002013e4: 48 c7 84 24 20 01 00 00 03 00 00 00  	movq	$3, 288(%rsp)
ffffff80002013f0: 48 8d 05 19 ec 00 00 	leaq	60441(%rip), %rax       # 0xffffff8000210010 <sdata+0x4010>
ffffff80002013f7: 48 89 44 24 18       	movq	%rax, 24(%rsp)
ffffff80002013fc: 48 c7 44 24 20 04 00 00 00   	movq	$4, 32(%rsp)
ffffff8000201405: 48 8d 44 24 48       	leaq	72(%rsp), %rax
ffffff800020140a: 48 89 44 24 08       	movq	%rax, 8(%rsp)
ffffff800020140f: 48 c7 44 24 10 04 00 00 00   	movq	$4, 16(%rsp)
ffffff8000201418: 48 8d 84 24 28 01 00 00      	leaq	296(%rsp), %rax
ffffff8000201420: 48 89 44 24 28       	movq	%rax, 40(%rsp)
ffffff8000201425: 48 c7 44 24 30 04 00 00 00   	movq	$4, 48(%rsp)
ffffff800020142e: 48 8d 35 1b ec 00 00 	leaq	60443(%rip), %rsi       # 0xffffff8000210050 <sdata+0x4050>
ffffff8000201435: e9 85 01 00 00       	jmp	0xffffff80002015bf <x86_trap_handler+0x7df>
ffffff800020143a: 48 8d 87 88 00 00 00 	leaq	136(%rdi), %rax
ffffff8000201441: 0f 20 d1             	movq	%cr2, %rcx
ffffff8000201444: 48 89 4c 24 40       	movq	%rcx, 64(%rsp)
ffffff8000201449: 48 83 ef 80          	subq	$-128, %rdi
ffffff800020144d: 48 89 84 24 28 01 00 00      	movq	%rax, 296(%rsp)
ffffff8000201455: 48 8d 05 b4 6b 00 00 	leaq	27572(%rip), %rax       # 0xffffff8000208010 <_ZN4core3fmt3num53_$LT$impl$u20$core..fmt..LowerHex$u20$for$u20$i64$GT$3fmt17h4fa87f856a4ce963E>
ffffff800020145c: 48 89 84 24 30 01 00 00      	movq	%rax, 304(%rsp)
ffffff8000201464: 48 8d 4c 24 40       	leaq	64(%rsp), %rcx
ffffff8000201469: 48 89 8c 24 38 01 00 00      	movq	%rcx, 312(%rsp)
ffffff8000201471: 48 89 84 24 40 01 00 00      	movq	%rax, 320(%rsp)
ffffff8000201479: 48 89 bc 24 48 01 00 00      	movq	%rdi, 328(%rsp)
ffffff8000201481: 48 89 84 24 50 01 00 00      	movq	%rax, 336(%rsp)
ffffff8000201489: 48 8d 44 24 38       	leaq	56(%rsp), %rax
ffffff800020148e: 48 89 84 24 58 01 00 00      	movq	%rax, 344(%rsp)
ffffff8000201496: 48 8d 05 e3 19 00 00 	leaq	6627(%rip), %rax        # 0xffffff8000202e80 <_ZN50_$LT$$RF$mut$u20$T$u20$as$u20$core..fmt..Debug$GT$3fmt17h346f578aafa36848E>
ffffff800020149d: 48 89 84 24 60 01 00 00      	movq	%rax, 352(%rsp)
ffffff80002014a5: 48 c7 44 24 48 02 00 00 00   	movq	$2, 72(%rsp)
ffffff80002014ae: 48 c7 44 24 58 02 00 00 00   	movq	$2, 88(%rsp)
ffffff80002014b7: 48 b8 04 00 00 00 20 00 00 00	movabsq	$137438953476, %rax # imm = 0x2000000004
ffffff80002014c1: 48 89 44 24 68       	movq	%rax, 104(%rsp)
ffffff80002014c6: c6 44 24 70 03       	movb	$3, 112(%rsp)
ffffff80002014cb: 48 c7 44 24 78 00 00 00 00   	movq	$0, 120(%rsp)
ffffff80002014d4: 48 c7 84 24 80 00 00 00 02 00 00 00  	movq	$2, 128(%rsp)
ffffff80002014e0: 48 c7 84 24 90 00 00 00 02 00 00 00  	movq	$2, 144(%rsp)
ffffff80002014ec: 48 89 84 24 a0 00 00 00      	movq	%rax, 160(%rsp)
ffffff80002014f4: c6 84 24 a8 00 00 00 03      	movb	$3, 168(%rsp)
ffffff80002014fc: 48 c7 84 24 b0 00 00 00 01 00 00 00  	movq	$1, 176(%rsp)
ffffff8000201508: 48 c7 84 24 b8 00 00 00 02 00 00 00  	movq	$2, 184(%rsp)
ffffff8000201514: 48 c7 84 24 c8 00 00 00 02 00 00 00  	movq	$2, 200(%rsp)
ffffff8000201520: 48 89 84 24 d8 00 00 00      	movq	%rax, 216(%rsp)
ffffff8000201528: c6 84 24 e0 00 00 00 03      	movb	$3, 224(%rsp)
ffffff8000201530: 48 c7 84 24 e8 00 00 00 02 00 00 00  	movq	$2, 232(%rsp)
ffffff800020153c: 48 c7 84 24 f0 00 00 00 02 00 00 00  	movq	$2, 240(%rsp)
ffffff8000201548: 48 c7 84 24 00 01 00 00 02 00 00 00  	movq	$2, 256(%rsp)
ffffff8000201554: 48 b8 14 00 00 00 20 00 00 00	movabsq	$137438953492, %rax # imm = 0x2000000014
ffffff800020155e: 48 89 84 24 10 01 00 00      	movq	%rax, 272(%rsp)
ffffff8000201566: c6 84 24 18 01 00 00 03      	movb	$3, 280(%rsp)
ffffff800020156e: 48 c7 84 24 20 01 00 00 03 00 00 00  	movq	$3, 288(%rsp)
ffffff800020157a: 48 8d 05 7f eb 00 00 	leaq	60287(%rip), %rax       # 0xffffff8000210100 <sdata+0x4100>
ffffff8000201581: 48 89 44 24 18       	movq	%rax, 24(%rsp)
ffffff8000201586: 48 c7 44 24 20 04 00 00 00   	movq	$4, 32(%rsp)
ffffff800020158f: 48 8d 44 24 48       	leaq	72(%rsp), %rax
ffffff8000201594: 48 89 44 24 08       	movq	%rax, 8(%rsp)
ffffff8000201599: 48 c7 44 24 10 04 00 00 00   	movq	$4, 16(%rsp)
ffffff80002015a2: 48 8d 84 24 28 01 00 00      	leaq	296(%rsp), %rax
ffffff80002015aa: 48 89 44 24 28       	movq	%rax, 40(%rsp)
ffffff80002015af: 48 c7 44 24 30 04 00 00 00   	movq	$4, 48(%rsp)
ffffff80002015b8: 48 8d 35 81 eb 00 00 	leaq	60289(%rip), %rsi       # 0xffffff8000210140 <sdata+0x4140>
ffffff80002015bf: 48 8d 7c 24 08       	leaq	8(%rsp), %rdi
ffffff80002015c4: e8 a7 3f 00 00       	callq	0xffffff8000205570 <_ZN4core9panicking9panic_fmt17h95420505f5f4b6c1E>
ffffff80002015c9: 0f 0b                	ud2
ffffff80002015cb: cc                   	int3
ffffff80002015cc: cc                   	int3
ffffff80002015cd: cc                   	int3
ffffff80002015ce: cc                   	int3
ffffff80002015cf: cc                   	int3

ffffff80002015d0 <_ZN5axhal8platform6pc_x8610rust_entry17h2ded1e2f6368fb22E>:
ffffff80002015d0: 48 81 ff 02 b0 ad 2b 	cmpq	$732803074, %rdi        # imm = 0x2BADB002
ffffff80002015d7: 74 01                	je	0xffffff80002015da <_ZN5axhal8platform6pc_x8610rust_entry17h2ded1e2f6368fb22E+0xa>
ffffff80002015d9: c3                   	retq
ffffff80002015da: 50                   	pushq	%rax
ffffff80002015db: 48 8b 15 46 f7 00 00 	movq	63302(%rip), %rdx       # 0xffffff8000210d28 <_ZN3log6LOGGER17h48756037b7073395E.1+0x128>
ffffff80002015e2: 48 3b 15 47 f7 00 00 	cmpq	63303(%rip), %rdx       # 0xffffff8000210d30 <_ZN3log6LOGGER17h48756037b7073395E.1+0x130>
ffffff80002015e9: 74 12                	je	0xffffff80002015fd <_ZN5axhal8platform6pc_x8610rust_entry17h2ded1e2f6368fb22E+0x2d>
ffffff80002015eb: 48 8b 3d 3e f7 00 00 	movq	63294(%rip), %rdi       # 0xffffff8000210d30 <_ZN3log6LOGGER17h48756037b7073395E.1+0x130>
ffffff80002015f2: 48 29 fa             	subq	%rdi, %rdx
ffffff80002015f5: 31 f6                	xorl	%esi, %esi
ffffff80002015f7: ff 15 3b f7 00 00    	callq	*63291(%rip)            # 0xffffff8000210d38 <_ZN3log6LOGGER17h48756037b7073395E.1+0x138>
ffffff80002015fd: e8 2e 00 00 00       	callq	0xffffff8000201630 <_ZN5axhal8platform6pc_x8614current_cpu_id17h424c3d8a4dbe0317E>
ffffff8000201602: 48 89 c7             	movq	%rax, %rdi
ffffff8000201605: e8 e6 09 00 00       	callq	0xffffff8000201ff0 <_ZN5axhal3cpu12init_primary17ha4933b228f60973fE>
ffffff800020160a: e8 21 18 00 00       	callq	0xffffff8000202e30 <_ZN5axhal8platform6pc_x869uart165504init17ha15ed6d78b6d5783E>
ffffff800020160f: e8 4c 00 00 00       	callq	0xffffff8000201660 <_ZN5axhal8platform6pc_x867dtables12init_primary17hd0e645d093896604E>
ffffff8000201614: e8 47 13 00 00       	callq	0xffffff8000202960 <_ZN5axhal8platform6pc_x864time10init_early17hd4240019769cc964E>
ffffff8000201619: e8 12 00 00 00       	callq	0xffffff8000201630 <_ZN5axhal8platform6pc_x8614current_cpu_id17h424c3d8a4dbe0317E>
ffffff800020161e: 48 89 c7             	movq	%rax, %rdi
ffffff8000201621: 31 f6                	xorl	%esi, %esi
ffffff8000201623: ff 15 df f6 00 00    	callq	*63199(%rip)            # 0xffffff8000210d08 <_ZN3log6LOGGER17h48756037b7073395E.1+0x108>
ffffff8000201629: 0f 0b                	ud2
ffffff800020162b: cc                   	int3
ffffff800020162c: cc                   	int3
ffffff800020162d: cc                   	int3
ffffff800020162e: cc                   	int3
ffffff800020162f: cc                   	int3

ffffff8000201630 <_ZN5axhal8platform6pc_x8614current_cpu_id17h424c3d8a4dbe0317E>:
ffffff8000201630: 48 83 ec 18          	subq	$24, %rsp
ffffff8000201634: 48 89 e7             	movq	%rsp, %rdi
ffffff8000201637: e8 64 72 00 00       	callq	0xffffff80002088a0 <_ZN9raw_cpuid55CpuId$LT$raw_cpuid..native_cpuid..CpuIdReaderNative$GT$3new17h36285f2bc8151782E>
ffffff800020163c: 31 f6                	xorl	%esi, %esi
ffffff800020163e: 83 7c 24 10 00       	cmpl	$0, 16(%rsp)
ffffff8000201643: 74 12                	je	0xffffff8000201657 <_ZN5axhal8platform6pc_x8614current_cpu_id17h424c3d8a4dbe0317E+0x27>
ffffff8000201645: 31 c9                	xorl	%ecx, %ecx
ffffff8000201647: b8 01 00 00 00       	movl	$1, %eax
ffffff800020164c: 48 89 de             	movq	%rbx, %rsi
ffffff800020164f: 0f a2                	cpuid
ffffff8000201651: 48 87 f3             	xchgq	%rbx, %rsi
ffffff8000201654: c1 ee 18             	shrl	$24, %esi
ffffff8000201657: 48 89 f0             	movq	%rsi, %rax
ffffff800020165a: 48 83 c4 18          	addq	$24, %rsp
ffffff800020165e: c3                   	retq
ffffff800020165f: cc                   	int3

ffffff8000201660 <_ZN5axhal8platform6pc_x867dtables12init_primary17hd0e645d093896604E>:
ffffff8000201660: 41 57                	pushq	%r15
ffffff8000201662: 41 56                	pushq	%r14
ffffff8000201664: 41 54                	pushq	%r12
ffffff8000201666: 53                   	pushq	%rbx
ffffff8000201667: b8 18 1e 00 00       	movl	$7704, %eax             # imm = 0x1E18
ffffff800020166c: e8 05 75 00 00       	callq	0xffffff8000208b76 <__rust_probestack>
ffffff8000201671: 48 29 c4             	subq	%rax, %rsp
ffffff8000201674: 9c                   	pushfq
ffffff8000201675: 41 5e                	popq	%r14
ffffff8000201677: fa                   	cli
ffffff8000201678: 49 89 e4             	movq	%rsp, %r12
ffffff800020167b: 4c 89 a4 24 18 10 00 00      	movq	%r12, 4120(%rsp)
ffffff8000201683: 48 c7 44 24 10 00 00 00 00   	movq	$0, 16(%rsp)
ffffff800020168c: 48 8d 05 c5 ea 00 00 	leaq	60101(%rip), %rax       # 0xffffff8000210158 <sdata+0x4158>
ffffff8000201693: 48 89 44 24 20       	movq	%rax, 32(%rsp)
ffffff8000201698: 48 c7 44 24 28 01 00 00 00   	movq	$1, 40(%rsp)
ffffff80002016a1: 48 8b 05 68 f6 00 00 	movq	63080(%rip), %rax       # 0xffffff8000210d10 <_ZN3log6LOGGER17h48756037b7073395E.1+0x110>
ffffff80002016a8: 48 89 44 24 30       	movq	%rax, 48(%rsp)
ffffff80002016ad: 48 c7 44 24 38 00 00 00 00   	movq	$0, 56(%rsp)
ffffff80002016b6: 48 8d 35 13 ee 00 00 	leaq	60947(%rip), %rsi       # 0xffffff80002104d0 <_ZN5axhal8platform6pc_x864time12CPU_FREQ_MHZ17hcbee90971ca93e77E.0+0x348>
ffffff80002016bd: 48 8d 9c 24 18 10 00 00      	leaq	4120(%rsp), %rbx
ffffff80002016c5: 48 8d 54 24 10       	leaq	16(%rsp), %rdx
ffffff80002016ca: 48 89 df             	movq	%rbx, %rdi
ffffff80002016cd: e8 ee 4c 00 00       	callq	0xffffff80002063c0 <_ZN4core3fmt5write17h3e64ac24810c32e1E>
ffffff80002016d2: 84 c0                	testb	%al, %al
ffffff80002016d4: 0f 85 21 08 00 00    	jne	0xffffff8000201efb <_ZN5axhal8platform6pc_x867dtables12init_primary17hd0e645d093896604E+0x89b>
ffffff80002016da: 41 f7 c6 00 02 00 00 	testl	$512, %r14d             # imm = 0x200
ffffff80002016e1: 75 03                	jne	0xffffff80002016e6 <_ZN5axhal8platform6pc_x867dtables12init_primary17hd0e645d093896604E+0x86>
ffffff80002016e3: fa                   	cli
ffffff80002016e4: eb 01                	jmp	0xffffff80002016e7 <_ZN5axhal8platform6pc_x867dtables12init_primary17hd0e645d093896604E+0x87>
ffffff80002016e6: fb                   	sti
ffffff80002016e7: 48 8d 84 24 18 1e 00 00      	leaq	7704(%rsp), %rax
ffffff80002016ef: 48 b9 00 00 00 00 00 0e 00 00	movabsq	$15393162788864, %rcx # imm = 0xE0000000000
ffffff80002016f9: 0f 1f 80 00 00 00 00 	nopl	(%rax)
ffffff8000201700: 48 89 0b             	movq	%rcx, (%rbx)
ffffff8000201703: 48 c7 43 08 00 00 00 00      	movq	$0, 8(%rbx)
ffffff800020170b: 48 89 4b 10          	movq	%rcx, 16(%rbx)
ffffff800020170f: 48 c7 43 18 00 00 00 00      	movq	$0, 24(%rbx)
ffffff8000201717: 48 89 4b 20          	movq	%rcx, 32(%rbx)
ffffff800020171b: 48 c7 43 28 00 00 00 00      	movq	$0, 40(%rbx)
ffffff8000201723: 48 89 4b 30          	movq	%rcx, 48(%rbx)
ffffff8000201727: 48 c7 43 38 00 00 00 00      	movq	$0, 56(%rbx)
ffffff800020172f: 48 83 c3 40          	addq	$64, %rbx
ffffff8000201733: 48 39 c3             	cmpq	%rax, %rbx
ffffff8000201736: 75 c8                	jne	0xffffff8000201700 <_ZN5axhal8platform6pc_x867dtables12init_primary17hd0e645d093896604E+0xa0>
ffffff8000201738: 48 c7 44 24 1c 00 00 00 00   	movq	$0, 28(%rsp)
ffffff8000201741: 48 c7 44 24 16 00 00 00 00   	movq	$0, 22(%rsp)
ffffff800020174a: 48 c7 44 24 26 00 00 00 00   	movq	$0, 38(%rsp)
ffffff8000201753: 48 c7 44 24 2c 00 00 00 00   	movq	$0, 44(%rsp)
ffffff800020175c: 48 c7 44 24 36 00 00 00 00   	movq	$0, 54(%rsp)
ffffff8000201765: 48 c7 44 24 3c 00 00 00 00   	movq	$0, 60(%rsp)
ffffff800020176e: 48 c7 44 24 46 00 00 00 00   	movq	$0, 70(%rsp)
ffffff8000201777: 48 c7 44 24 4c 00 00 00 00   	movq	$0, 76(%rsp)
ffffff8000201780: 48 c7 44 24 56 00 00 00 00   	movq	$0, 86(%rsp)
ffffff8000201789: 48 c7 44 24 5c 00 00 00 00   	movq	$0, 92(%rsp)
ffffff8000201792: 48 c7 44 24 66 00 00 00 00   	movq	$0, 102(%rsp)
ffffff800020179b: 48 c7 44 24 6c 00 00 00 00   	movq	$0, 108(%rsp)
ffffff80002017a4: 48 c7 44 24 76 00 00 00 00   	movq	$0, 118(%rsp)
ffffff80002017ad: 48 c7 44 24 7c 00 00 00 00   	movq	$0, 124(%rsp)
ffffff80002017b6: 48 c7 84 24 8c 00 00 00 00 00 00 00  	movq	$0, 140(%rsp)
ffffff80002017c2: 48 c7 84 24 86 00 00 00 00 00 00 00  	movq	$0, 134(%rsp)
ffffff80002017ce: 48 c7 84 24 9c 00 00 00 00 00 00 00  	movq	$0, 156(%rsp)
ffffff80002017da: 48 c7 84 24 96 00 00 00 00 00 00 00  	movq	$0, 150(%rsp)
ffffff80002017e6: 48 c7 84 24 ac 00 00 00 00 00 00 00  	movq	$0, 172(%rsp)
ffffff80002017f2: 48 c7 84 24 a6 00 00 00 00 00 00 00  	movq	$0, 166(%rsp)
ffffff80002017fe: 48 c7 84 24 bc 00 00 00 00 00 00 00  	movq	$0, 188(%rsp)
ffffff800020180a: 48 c7 84 24 b6 00 00 00 00 00 00 00  	movq	$0, 182(%rsp)
ffffff8000201816: 48 c7 84 24 cc 00 00 00 00 00 00 00  	movq	$0, 204(%rsp)
ffffff8000201822: 48 c7 84 24 c6 00 00 00 00 00 00 00  	movq	$0, 198(%rsp)
ffffff800020182e: 48 c7 84 24 dc 00 00 00 00 00 00 00  	movq	$0, 220(%rsp)
ffffff800020183a: 48 c7 84 24 d6 00 00 00 00 00 00 00  	movq	$0, 214(%rsp)
ffffff8000201846: 48 c7 84 24 ec 00 00 00 00 00 00 00  	movq	$0, 236(%rsp)
ffffff8000201852: 48 c7 84 24 e6 00 00 00 00 00 00 00  	movq	$0, 230(%rsp)
ffffff800020185e: 48 c7 84 24 fc 00 00 00 00 00 00 00  	movq	$0, 252(%rsp)
ffffff800020186a: 48 c7 84 24 f6 00 00 00 00 00 00 00  	movq	$0, 246(%rsp)
ffffff8000201876: 48 c7 84 24 0c 01 00 00 00 00 00 00  	movq	$0, 268(%rsp)
ffffff8000201882: 48 c7 84 24 06 01 00 00 00 00 00 00  	movq	$0, 262(%rsp)
ffffff800020188e: 48 c7 84 24 1c 01 00 00 00 00 00 00  	movq	$0, 284(%rsp)
ffffff800020189a: 48 c7 84 24 16 01 00 00 00 00 00 00  	movq	$0, 278(%rsp)
ffffff80002018a6: 48 c7 84 24 2c 01 00 00 00 00 00 00  	movq	$0, 300(%rsp)
ffffff80002018b2: 48 c7 84 24 26 01 00 00 00 00 00 00  	movq	$0, 294(%rsp)
ffffff80002018be: 48 c7 84 24 3c 01 00 00 00 00 00 00  	movq	$0, 316(%rsp)
ffffff80002018ca: 48 c7 84 24 36 01 00 00 00 00 00 00  	movq	$0, 310(%rsp)
ffffff80002018d6: 48 c7 84 24 4c 01 00 00 00 00 00 00  	movq	$0, 332(%rsp)
ffffff80002018e2: 48 c7 84 24 46 01 00 00 00 00 00 00  	movq	$0, 326(%rsp)
ffffff80002018ee: 48 c7 84 24 5c 01 00 00 00 00 00 00  	movq	$0, 348(%rsp)
ffffff80002018fa: 48 c7 84 24 56 01 00 00 00 00 00 00  	movq	$0, 342(%rsp)
ffffff8000201906: 48 c7 84 24 6c 01 00 00 00 00 00 00  	movq	$0, 364(%rsp)
ffffff8000201912: 48 c7 84 24 66 01 00 00 00 00 00 00  	movq	$0, 358(%rsp)
ffffff800020191e: 48 c7 84 24 7c 01 00 00 00 00 00 00  	movq	$0, 380(%rsp)
ffffff800020192a: 48 c7 84 24 76 01 00 00 00 00 00 00  	movq	$0, 374(%rsp)
ffffff8000201936: 48 c7 84 24 8c 01 00 00 00 00 00 00  	movq	$0, 396(%rsp)
ffffff8000201942: 48 c7 84 24 86 01 00 00 00 00 00 00  	movq	$0, 390(%rsp)
ffffff800020194e: 48 c7 84 24 9c 01 00 00 00 00 00 00  	movq	$0, 412(%rsp)
ffffff800020195a: 48 c7 84 24 96 01 00 00 00 00 00 00  	movq	$0, 406(%rsp)
ffffff8000201966: 48 c7 84 24 ac 01 00 00 00 00 00 00  	movq	$0, 428(%rsp)
ffffff8000201972: 48 c7 84 24 a6 01 00 00 00 00 00 00  	movq	$0, 422(%rsp)
ffffff800020197e: 48 c7 84 24 bc 01 00 00 00 00 00 00  	movq	$0, 444(%rsp)
ffffff800020198a: 48 c7 84 24 b6 01 00 00 00 00 00 00  	movq	$0, 438(%rsp)
ffffff8000201996: 48 c7 84 24 cc 01 00 00 00 00 00 00  	movq	$0, 460(%rsp)
ffffff80002019a2: 48 c7 84 24 c6 01 00 00 00 00 00 00  	movq	$0, 454(%rsp)
ffffff80002019ae: 48 c7 84 24 dc 01 00 00 00 00 00 00  	movq	$0, 476(%rsp)
ffffff80002019ba: 48 c7 84 24 d6 01 00 00 00 00 00 00  	movq	$0, 470(%rsp)
ffffff80002019c6: 48 c7 84 24 ec 01 00 00 00 00 00 00  	movq	$0, 492(%rsp)
ffffff80002019d2: 48 c7 84 24 e6 01 00 00 00 00 00 00  	movq	$0, 486(%rsp)
ffffff80002019de: 48 c7 84 24 fc 01 00 00 00 00 00 00  	movq	$0, 508(%rsp)
ffffff80002019ea: 48 c7 84 24 f6 01 00 00 00 00 00 00  	movq	$0, 502(%rsp)
ffffff80002019f6: 48 8d bc 24 10 02 00 00      	leaq	528(%rsp), %rdi
ffffff80002019fe: 4c 8d b4 24 18 10 00 00      	leaq	4120(%rsp), %r14
ffffff8000201a06: ba 00 0e 00 00       	movl	$3584, %edx             # imm = 0xE00
ffffff8000201a0b: 4c 89 f6             	movq	%r14, %rsi
ffffff8000201a0e: ff 15 2c f3 00 00    	callq	*62252(%rip)            # 0xffffff8000210d40 <_ZN3log6LOGGER17h48756037b7073395E.1+0x140>
ffffff8000201a14: c7 44 24 10 00 00 00 00      	movl	$0, 16(%rsp)
ffffff8000201a1c: 66 c7 44 24 14 00 0e 	movw	$3584, 20(%rsp)         # imm = 0xE00
ffffff8000201a23: 66 c7 44 24 24 00 0e 	movw	$3584, 36(%rsp)         # imm = 0xE00
ffffff8000201a2a: 66 c7 44 24 34 00 0e 	movw	$3584, 52(%rsp)         # imm = 0xE00
ffffff8000201a31: 66 c7 44 24 44 00 0e 	movw	$3584, 68(%rsp)         # imm = 0xE00
ffffff8000201a38: 66 c7 44 24 54 00 0e 	movw	$3584, 84(%rsp)         # imm = 0xE00
ffffff8000201a3f: 66 c7 44 24 64 00 0e 	movw	$3584, 100(%rsp)        # imm = 0xE00
ffffff8000201a46: 66 c7 44 24 74 00 0e 	movw	$3584, 116(%rsp)        # imm = 0xE00
ffffff8000201a4d: 66 c7 84 24 84 00 00 00 00 0e	movw	$3584, 132(%rsp) # imm = 0xE00
ffffff8000201a57: 66 c7 84 24 94 00 00 00 00 0e	movw	$3584, 148(%rsp) # imm = 0xE00
ffffff8000201a61: 66 c7 84 24 a4 00 00 00 00 0e	movw	$3584, 164(%rsp) # imm = 0xE00
ffffff8000201a6b: 66 c7 84 24 b4 00 00 00 00 0e	movw	$3584, 180(%rsp) # imm = 0xE00
ffffff8000201a75: 66 c7 84 24 c4 00 00 00 00 0e	movw	$3584, 196(%rsp) # imm = 0xE00
ffffff8000201a7f: 66 c7 84 24 d4 00 00 00 00 0e	movw	$3584, 212(%rsp) # imm = 0xE00
ffffff8000201a89: 66 c7 84 24 e4 00 00 00 00 0e	movw	$3584, 228(%rsp) # imm = 0xE00
ffffff8000201a93: 66 c7 84 24 f4 00 00 00 00 0e	movw	$3584, 244(%rsp) # imm = 0xE00
ffffff8000201a9d: 66 c7 84 24 04 01 00 00 00 0e	movw	$3584, 260(%rsp) # imm = 0xE00
ffffff8000201aa7: 66 c7 84 24 14 01 00 00 00 0e	movw	$3584, 276(%rsp) # imm = 0xE00
ffffff8000201ab1: 66 c7 84 24 24 01 00 00 00 0e	movw	$3584, 292(%rsp) # imm = 0xE00
ffffff8000201abb: 66 c7 84 24 34 01 00 00 00 0e	movw	$3584, 308(%rsp) # imm = 0xE00
ffffff8000201ac5: 66 c7 84 24 44 01 00 00 00 0e	movw	$3584, 324(%rsp) # imm = 0xE00
ffffff8000201acf: 66 c7 84 24 54 01 00 00 00 0e	movw	$3584, 340(%rsp) # imm = 0xE00
ffffff8000201ad9: 66 c7 84 24 64 01 00 00 00 0e	movw	$3584, 356(%rsp) # imm = 0xE00
ffffff8000201ae3: 66 c7 84 24 74 01 00 00 00 0e	movw	$3584, 372(%rsp) # imm = 0xE00
ffffff8000201aed: 66 c7 84 24 84 01 00 00 00 0e	movw	$3584, 388(%rsp) # imm = 0xE00
ffffff8000201af7: 66 c7 84 24 94 01 00 00 00 0e	movw	$3584, 404(%rsp) # imm = 0xE00
ffffff8000201b01: 66 c7 84 24 a4 01 00 00 00 0e	movw	$3584, 420(%rsp) # imm = 0xE00
ffffff8000201b0b: 66 c7 84 24 b4 01 00 00 00 0e	movw	$3584, 436(%rsp) # imm = 0xE00
ffffff8000201b15: 66 c7 84 24 c4 01 00 00 00 0e	movw	$3584, 452(%rsp) # imm = 0xE00
ffffff8000201b1f: 66 c7 84 24 d4 01 00 00 00 0e	movw	$3584, 468(%rsp) # imm = 0xE00
ffffff8000201b29: 66 c7 84 24 e4 01 00 00 00 0e	movw	$3584, 484(%rsp) # imm = 0xE00
ffffff8000201b33: 66 c7 84 24 f4 01 00 00 00 0e	movw	$3584, 500(%rsp) # imm = 0xE00
ffffff8000201b3d: c7 84 24 04 02 00 00 00 0e 00 00     	movl	$3584, 516(%rsp) # imm = 0xE00
ffffff8000201b48: 48 c7 84 24 08 02 00 00 00 00 00 00  	movq	$0, 520(%rsp)
ffffff8000201b54: 31 c0                	xorl	%eax, %eax
ffffff8000201b56: 48 8b 0d bb f1 00 00 	movq	61883(%rip), %rcx       # 0xffffff8000210d18 <_ZN3log6LOGGER17h48756037b7073395E.1+0x118>
ffffff8000201b5d: eb 3a                	jmp	0xffffff8000201b99 <_ZN5axhal8platform6pc_x867dtables12init_primary17hd0e645d093896604E+0x539>
ffffff8000201b5f: 90                   	nop
ffffff8000201b60: 48 c1 e2 10          	shlq	$16, %rdx
ffffff8000201b64: 48 c1 fa 10          	sarq	$16, %rdx
ffffff8000201b68: 66 89 54 44 10       	movw	%dx, 16(%rsp,%rax,2)
ffffff8000201b6d: 48 89 d6             	movq	%rdx, %rsi
ffffff8000201b70: 48 c1 ee 10          	shrq	$16, %rsi
ffffff8000201b74: 66 89 74 44 16       	movw	%si, 22(%rsp,%rax,2)
ffffff8000201b79: 48 c1 ea 20          	shrq	$32, %rdx
ffffff8000201b7d: 89 54 44 18          	movl	%edx, 24(%rsp,%rax,2)
ffffff8000201b81: 8c ca                	movl	%cs, %edx
ffffff8000201b83: 66 89 54 44 12       	movw	%dx, 18(%rsp,%rax,2)
ffffff8000201b88: 80 4c 44 15 80       	orb	$-128, 21(%rsp,%rax,2)
ffffff8000201b8d: 48 83 c0 08          	addq	$8, %rax
ffffff8000201b91: 48 3d 00 08 00 00    	cmpq	$2048, %rax             # imm = 0x800
ffffff8000201b97: 74 4b                	je	0xffffff8000201be4 <_ZN5axhal8platform6pc_x867dtables12init_primary17hd0e645d093896604E+0x584>
ffffff8000201b99: 48 8b 14 01          	movq	(%rcx,%rax), %rdx
ffffff8000201b9d: 48 89 d6             	movq	%rdx, %rsi
ffffff8000201ba0: 48 c1 ee 2f          	shrq	$47, %rsi
ffffff8000201ba4: 74 c2                	je	0xffffff8000201b68 <_ZN5axhal8platform6pc_x867dtables12init_primary17hd0e645d093896604E+0x508>
ffffff8000201ba6: 81 fe ff ff 01 00    	cmpl	$131071, %esi           # imm = 0x1FFFF
ffffff8000201bac: 74 ba                	je	0xffffff8000201b68 <_ZN5axhal8platform6pc_x867dtables12init_primary17hd0e645d093896604E+0x508>
ffffff8000201bae: 83 fe 01             	cmpl	$1, %esi
ffffff8000201bb1: 74 ad                	je	0xffffff8000201b60 <_ZN5axhal8platform6pc_x867dtables12init_primary17hd0e645d093896604E+0x500>
ffffff8000201bb3: 48 89 94 24 18 10 00 00      	movq	%rdx, 4120(%rsp)
ffffff8000201bbb: 48 8d 3d 32 94 00 00 	leaq	37938(%rip), %rdi       # 0xffffff800020aff4 <SELF_PTR+0x3c>
ffffff8000201bc2: 48 8d 0d 57 e8 00 00 	leaq	59479(%rip), %rcx       # 0xffffff8000210420 <_ZN5axhal8platform6pc_x864time12CPU_FREQ_MHZ17hcbee90971ca93e77E.0+0x298>
ffffff8000201bc9: 4c 8d 05 78 f0 00 00 	leaq	61560(%rip), %r8        # 0xffffff8000210c48 <_ZN3log6LOGGER17h48756037b7073395E.1+0x48>
ffffff8000201bd0: 48 8d 94 24 18 10 00 00      	leaq	4120(%rsp), %rdx
ffffff8000201bd8: be 4a 00 00 00       	movl	$74, %esi
ffffff8000201bdd: e8 6e 4e 00 00       	callq	0xffffff8000206a50 <_ZN4core6result13unwrap_failed17he358196271332538E>
ffffff8000201be2: 0f 0b                	ud2
ffffff8000201be4: 0f b6 05 15 14 05 00 	movzbl	332821(%rip), %eax      # 0xffffff8000253000 <sbss+0x1000>
ffffff8000201beb: 84 c0                	testb	%al, %al
ffffff8000201bed: 0f 85 e5 02 00 00    	jne	0xffffff8000201ed8 <_ZN5axhal8platform6pc_x867dtables12init_primary17hd0e645d093896604E+0x878>
ffffff8000201bf3: 48 8d 1d 06 04 05 00 	leaq	328710(%rip), %rbx      # 0xffffff8000252000 <sbss>
ffffff8000201bfa: 4c 8d 7c 24 10       	leaq	16(%rsp), %r15
ffffff8000201bff: ba 00 10 00 00       	movl	$4096, %edx             # imm = 0x1000
ffffff8000201c04: 48 89 df             	movq	%rbx, %rdi
ffffff8000201c07: 4c 89 fe             	movq	%r15, %rsi
ffffff8000201c0a: ff 15 30 f1 00 00    	callq	*61744(%rip)            # 0xffffff8000210d40 <_ZN3log6LOGGER17h48756037b7073395E.1+0x140>
ffffff8000201c10: c6 05 e9 13 05 00 01 	movb	$1, 332777(%rip)        # 0xffffff8000253000 <sbss+0x1000>
ffffff8000201c17: 0f b6 05 e2 13 05 00 	movzbl	332770(%rip), %eax      # 0xffffff8000253000 <sbss+0x1000>
ffffff8000201c1e: 84 c0                	testb	%al, %al
ffffff8000201c20: 0f 84 f9 02 00 00    	je	0xffffff8000201f1f <_ZN5axhal8platform6pc_x867dtables12init_primary17hd0e645d093896604E+0x8bf>
ffffff8000201c26: 48 89 d8             	movq	%rbx, %rax
ffffff8000201c29: 48 c1 e8 2f          	shrq	$47, %rax
ffffff8000201c2d: 74 2a                	je	0xffffff8000201c59 <_ZN5axhal8platform6pc_x867dtables12init_primary17hd0e645d093896604E+0x5f9>
ffffff8000201c2f: 48 8d 05 ca 03 05 00 	leaq	328650(%rip), %rax      # 0xffffff8000252000 <sbss>
ffffff8000201c36: 48 89 c1             	movq	%rax, %rcx
ffffff8000201c39: 48 c1 e9 2f          	shrq	$47, %rcx
ffffff8000201c3d: 81 f9 ff ff 01 00    	cmpl	$131071, %ecx           # imm = 0x1FFFF
ffffff8000201c43: 74 14                	je	0xffffff8000201c59 <_ZN5axhal8platform6pc_x867dtables12init_primary17hd0e645d093896604E+0x5f9>
ffffff8000201c45: 83 f9 01             	cmpl	$1, %ecx
ffffff8000201c48: 0f 85 58 03 00 00    	jne	0xffffff8000201fa6 <_ZN5axhal8platform6pc_x867dtables12init_primary17hd0e645d093896604E+0x946>
ffffff8000201c4e: 48 c1 e0 10          	shlq	$16, %rax
ffffff8000201c52: 48 c1 f8 10          	sarq	$16, %rax
ffffff8000201c56: 48 89 c3             	movq	%rax, %rbx
ffffff8000201c59: 66 c7 44 24 10 ff 0f 	movw	$4095, 16(%rsp)         # imm = 0xFFF
ffffff8000201c60: 48 89 5c 24 12       	movq	%rbx, 18(%rsp)
ffffff8000201c65: 41 0f 01 1f          	lidtq	(%r15)
ffffff8000201c69: 65 48 8b 14 25 10 01 00 00   	movq	%gs:272, %rdx
ffffff8000201c72: 48 81 c2 00 00 00 00 	addq	$0, %rdx
ffffff8000201c79: 65 48 8b 1c 25 10 01 00 00   	movq	%gs:272, %rbx
ffffff8000201c82: 48 81 c3 70 00 00 00 	addq	$112, %rbx
ffffff8000201c89: 48 c7 44 24 6e 00 00 00 00   	movq	$0, 110(%rsp)
ffffff8000201c92: 48 c7 44 24 68 00 00 00 00   	movq	$0, 104(%rsp)
ffffff8000201c9b: 48 c7 44 24 60 00 00 00 00   	movq	$0, 96(%rsp)
ffffff8000201ca4: 48 c7 44 24 58 00 00 00 00   	movq	$0, 88(%rsp)
ffffff8000201cad: 48 c7 44 24 50 00 00 00 00   	movq	$0, 80(%rsp)
ffffff8000201cb6: 48 c7 44 24 48 00 00 00 00   	movq	$0, 72(%rsp)
ffffff8000201cbf: 48 c7 44 24 40 00 00 00 00   	movq	$0, 64(%rsp)
ffffff8000201cc8: 48 c7 44 24 38 00 00 00 00   	movq	$0, 56(%rsp)
ffffff8000201cd1: 48 c7 44 24 30 00 00 00 00   	movq	$0, 48(%rsp)
ffffff8000201cda: 48 c7 44 24 28 00 00 00 00   	movq	$0, 40(%rsp)
ffffff8000201ce3: 48 c7 44 24 20 00 00 00 00   	movq	$0, 32(%rsp)
ffffff8000201cec: 48 c7 44 24 18 00 00 00 00   	movq	$0, 24(%rsp)
ffffff8000201cf5: 48 c7 44 24 10 00 00 00 00   	movq	$0, 16(%rsp)
ffffff8000201cfe: 0f b6 42 68          	movzbl	104(%rdx), %eax
ffffff8000201d02: 84 c0                	testb	%al, %al
ffffff8000201d04: 0f 85 ce 01 00 00    	jne	0xffffff8000201ed8 <_ZN5axhal8platform6pc_x867dtables12init_primary17hd0e645d093896604E+0x878>
ffffff8000201d0a: 48 8d 44 24 10       	leaq	16(%rsp), %rax
ffffff8000201d0f: b9 19 00 00 00       	movl	$25, %ecx
ffffff8000201d14: 48 89 d7             	movq	%rdx, %rdi
ffffff8000201d17: 48 89 c6             	movq	%rax, %rsi
ffffff8000201d1a: f3 a5                	rep		movsl	(%rsi), %es:(%rdi)
ffffff8000201d1c: 0f b7 4c 24 74       	movzwl	116(%rsp), %ecx
ffffff8000201d21: 66 89 4a 64          	movw	%cx, 100(%rdx)
ffffff8000201d25: 66 c7 42 66 68 00    	movw	$104, 102(%rdx)
ffffff8000201d2b: c6 42 68 01          	movb	$1, 104(%rdx)
ffffff8000201d2f: 0f b6 4a 68          	movzbl	104(%rdx), %ecx
ffffff8000201d33: 84 c9                	testb	%cl, %cl
ffffff8000201d35: 0f 84 01 02 00 00    	je	0xffffff8000201f3c <_ZN5axhal8platform6pc_x867dtables12init_primary17hd0e645d093896604E+0x8dc>
ffffff8000201d3b: 48 c7 44 24 40 00 00 00 00   	movq	$0, 64(%rsp)
ffffff8000201d44: 48 c7 44 24 38 00 00 00 00   	movq	$0, 56(%rsp)
ffffff8000201d4d: 48 c7 44 24 30 00 00 00 00   	movq	$0, 48(%rsp)
ffffff8000201d56: 48 c7 44 24 28 00 00 00 00   	movq	$0, 40(%rsp)
ffffff8000201d5f: 48 c7 44 24 20 00 00 00 00   	movq	$0, 32(%rsp)
ffffff8000201d68: 48 c7 44 24 18 00 00 00 00   	movq	$0, 24(%rsp)
ffffff8000201d71: 48 c7 44 24 10 00 00 00 00   	movq	$0, 16(%rsp)
ffffff8000201d7a: 0f b6 8b 80 00 00 00 	movzbl	128(%rbx), %ecx
ffffff8000201d81: 84 c9                	testb	%cl, %cl
ffffff8000201d83: 0f 85 4f 01 00 00    	jne	0xffffff8000201ed8 <_ZN5axhal8platform6pc_x867dtables12init_primary17hd0e645d093896604E+0x878>
ffffff8000201d89: 89 d1                	movl	%edx, %ecx
ffffff8000201d8b: 81 e1 ff ff ff 00    	andl	$16777215, %ecx         # imm = 0xFFFFFF
ffffff8000201d91: 48 c1 e1 10          	shlq	$16, %rcx
ffffff8000201d95: 89 d6                	movl	%edx, %esi
ffffff8000201d97: 81 e6 00 00 00 ff    	andl	$4278190080, %esi       # imm = 0xFF000000
ffffff8000201d9d: 48 c1 e6 20          	shlq	$32, %rsi
ffffff8000201da1: 48 09 ce             	orq	%rcx, %rsi
ffffff8000201da4: 48 b9 67 00 00 00 00 89 00 00	movabsq	$150633093005415, %rcx # imm = 0x890000000067
ffffff8000201dae: 48 09 f1             	orq	%rsi, %rcx
ffffff8000201db1: 48 c1 ea 20          	shrq	$32, %rdx
ffffff8000201db5: 48 c7 03 00 00 00 00 	movq	$0, (%rbx)
ffffff8000201dbc: 48 be ff ff 00 00 00 9b cf 00	movabsq	$58435744481476607, %rsi # imm = 0xCF9B000000FFFF
ffffff8000201dc6: 48 89 73 08          	movq	%rsi, 8(%rbx)
ffffff8000201dca: 48 be ff ff 00 00 00 9b af 00	movabsq	$49428545226735615, %rsi # imm = 0xAF9B000000FFFF
ffffff8000201dd4: 48 89 73 10          	movq	%rsi, 16(%rbx)
ffffff8000201dd8: 48 be ff ff 00 00 00 93 cf 00	movabsq	$58426948388454399, %rsi # imm = 0xCF93000000FFFF
ffffff8000201de2: 48 89 73 18          	movq	%rsi, 24(%rbx)
ffffff8000201de6: 48 be ff ff 00 00 00 fb cf 00	movabsq	$58541297597743103, %rsi # imm = 0xCFFB000000FFFF
ffffff8000201df0: 48 89 73 20          	movq	%rsi, 32(%rbx)
ffffff8000201df4: 48 be ff ff 00 00 00 f3 cf 00	movabsq	$58532501504720895, %rsi # imm = 0xCFF3000000FFFF
ffffff8000201dfe: 48 89 73 28          	movq	%rsi, 40(%rbx)
ffffff8000201e02: 48 be ff ff 00 00 00 fb af 00	movabsq	$49534098343002111, %rsi # imm = 0xAFFB000000FFFF
ffffff8000201e0c: 48 89 73 30          	movq	%rsi, 48(%rbx)
ffffff8000201e10: 48 89 4b 38          	movq	%rcx, 56(%rbx)
ffffff8000201e14: 48 89 53 40          	movq	%rdx, 64(%rbx)
ffffff8000201e18: 48 8b 4c 24 10       	movq	16(%rsp), %rcx
ffffff8000201e1d: 48 8b 54 24 18       	movq	24(%rsp), %rdx
ffffff8000201e22: 48 89 4b 48          	movq	%rcx, 72(%rbx)
ffffff8000201e26: 48 89 53 50          	movq	%rdx, 80(%rbx)
ffffff8000201e2a: 48 8b 4c 24 20       	movq	32(%rsp), %rcx
ffffff8000201e2f: 48 89 4b 58          	movq	%rcx, 88(%rbx)
ffffff8000201e33: 48 8b 4c 24 28       	movq	40(%rsp), %rcx
ffffff8000201e38: 48 89 4b 60          	movq	%rcx, 96(%rbx)
ffffff8000201e3c: 48 8b 4c 24 30       	movq	48(%rsp), %rcx
ffffff8000201e41: 48 89 4b 68          	movq	%rcx, 104(%rbx)
ffffff8000201e45: 48 8b 4c 24 38       	movq	56(%rsp), %rcx
ffffff8000201e4a: 48 89 4b 70          	movq	%rcx, 112(%rbx)
ffffff8000201e4e: 48 8b 4c 24 40       	movq	64(%rsp), %rcx
ffffff8000201e53: 48 89 4b 78          	movq	%rcx, 120(%rbx)
ffffff8000201e57: c6 83 80 00 00 00 01 	movb	$1, 128(%rbx)
ffffff8000201e5e: 0f b6 8b 80 00 00 00 	movzbl	128(%rbx), %ecx
ffffff8000201e65: 84 c9                	testb	%cl, %cl
ffffff8000201e67: 0f 84 85 00 00 00    	je	0xffffff8000201ef2 <_ZN5axhal8platform6pc_x867dtables12init_primary17hd0e645d093896604E+0x892>
ffffff8000201e6d: 48 89 da             	movq	%rbx, %rdx
ffffff8000201e70: 48 c1 ea 2f          	shrq	$47, %rdx
ffffff8000201e74: 48 89 d9             	movq	%rbx, %rcx
ffffff8000201e77: 74 1f                	je	0xffffff8000201e98 <_ZN5axhal8platform6pc_x867dtables12init_primary17hd0e645d093896604E+0x838>
ffffff8000201e79: 48 89 d9             	movq	%rbx, %rcx
ffffff8000201e7c: 81 fa ff ff 01 00    	cmpl	$131071, %edx           # imm = 0x1FFFF
ffffff8000201e82: 74 14                	je	0xffffff8000201e98 <_ZN5axhal8platform6pc_x867dtables12init_primary17hd0e645d093896604E+0x838>
ffffff8000201e84: 83 fa 01             	cmpl	$1, %edx
ffffff8000201e87: 0f 85 2e 01 00 00    	jne	0xffffff8000201fbb <_ZN5axhal8platform6pc_x867dtables12init_primary17hd0e645d093896604E+0x95b>
ffffff8000201e8d: 48 89 d9             	movq	%rbx, %rcx
ffffff8000201e90: 48 c1 e1 10          	shlq	$16, %rcx
ffffff8000201e94: 48 c1 f9 10          	sarq	$16, %rcx
ffffff8000201e98: 66 c7 44 24 10 7f 00 	movw	$127, 16(%rsp)
ffffff8000201e9f: 48 89 4c 24 12       	movq	%rcx, 18(%rsp)
ffffff8000201ea4: 0f 01 10             	lgdtq	(%rax)
ffffff8000201ea7: b8 10 00 00 00       	movl	$16, %eax
ffffff8000201eac: 50                   	pushq	%rax
ffffff8000201ead: 48 8d 05 03 00 00 00 	leaq	3(%rip), %rax           # 0xffffff8000201eb7 <_ZN5axhal8platform6pc_x867dtables12init_primary17hd0e645d093896604E+0x857>
ffffff8000201eb4: 50                   	pushq	%rax
ffffff8000201eb5: 48 cb                	lretq
ffffff8000201eb7: 0f b6 83 80 00 00 00 	movzbl	128(%rbx), %eax
ffffff8000201ebe: 84 c0                	testb	%al, %al
ffffff8000201ec0: 74 30                	je	0xffffff8000201ef2 <_ZN5axhal8platform6pc_x867dtables12init_primary17hd0e645d093896604E+0x892>
ffffff8000201ec2: 66 b8 38 00          	movw	$56, %ax
ffffff8000201ec6: 0f 00 d8             	ltrw	%ax
ffffff8000201ec9: 48 81 c4 18 1e 00 00 	addq	$7704, %rsp             # imm = 0x1E18
ffffff8000201ed0: 5b                   	popq	%rbx
ffffff8000201ed1: 41 5c                	popq	%r12
ffffff8000201ed3: 41 5e                	popq	%r14
ffffff8000201ed5: 41 5f                	popq	%r15
ffffff8000201ed7: c3                   	retq
ffffff8000201ed8: 48 8d 3d 48 7f 00 00 	leaq	32584(%rip), %rdi       # 0xffffff8000209e27 <str.0+0x107>
ffffff8000201edf: 48 8d 15 0a e3 00 00 	leaq	58122(%rip), %rdx       # 0xffffff80002101f0 <_ZN5axhal8platform6pc_x864time12CPU_FREQ_MHZ17hcbee90971ca93e77E.0+0x68>
ffffff8000201ee6: be 21 00 00 00       	movl	$33, %esi
ffffff8000201eeb: e8 10 44 00 00       	callq	0xffffff8000206300 <_ZN4core9panicking5panic17ha75736b023e20f84E>
ffffff8000201ef0: 0f 0b                	ud2
ffffff8000201ef2: 48 8d 05 80 7d 00 00 	leaq	32128(%rip), %rax       # 0xffffff8000209c79 <trap_handler_table+0xc79>
ffffff8000201ef9: eb 2b                	jmp	0xffffff8000201f26 <_ZN5axhal8platform6pc_x867dtables12init_primary17hd0e645d093896604E+0x8c6>
ffffff8000201efb: 48 8d 3d 78 90 00 00 	leaq	36984(%rip), %rdi       # 0xffffff800020af7a <_ZN4core7unicode12unicode_data15grapheme_extend7OFFSETS17ha79b4a14ed4d5bccE+0x322>
ffffff8000201f02: 48 8d 0d 97 e6 00 00 	leaq	59031(%rip), %rcx       # 0xffffff80002105a0 <_ZN5axhal8platform6pc_x864time12CPU_FREQ_MHZ17hcbee90971ca93e77E.0+0x418>
ffffff8000201f09: 4c 8d 05 b0 e6 00 00 	leaq	59056(%rip), %r8        # 0xffffff80002105c0 <_ZN5axhal8platform6pc_x864time12CPU_FREQ_MHZ17hcbee90971ca93e77E.0+0x438>
ffffff8000201f10: 48 89 e2             	movq	%rsp, %rdx
ffffff8000201f13: be 2b 00 00 00       	movl	$43, %esi
ffffff8000201f18: e8 33 4b 00 00       	callq	0xffffff8000206a50 <_ZN4core6result13unwrap_failed17he358196271332538E>
ffffff8000201f1d: 0f 0b                	ud2
ffffff8000201f1f: 48 8d 05 1b 7d 00 00 	leaq	32027(%rip), %rax       # 0xffffff8000209c41 <trap_handler_table+0xc41>
ffffff8000201f26: 48 89 84 24 18 10 00 00      	movq	%rax, 4120(%rsp)
ffffff8000201f2e: 48 c7 84 24 20 10 00 00 38 00 00 00  	movq	$56, 4128(%rsp)
ffffff8000201f3a: eb 1b                	jmp	0xffffff8000201f57 <_ZN5axhal8platform6pc_x867dtables12init_primary17hd0e645d093896604E+0x8f7>
ffffff8000201f3c: 48 8d 05 6e 7d 00 00 	leaq	32110(%rip), %rax       # 0xffffff8000209cb1 <trap_handler_table+0xcb1>
ffffff8000201f43: 48 89 84 24 18 10 00 00      	movq	%rax, 4120(%rsp)
ffffff8000201f4b: 48 c7 84 24 20 10 00 00 3e 00 00 00  	movq	$62, 4128(%rsp)
ffffff8000201f57: 4c 89 34 24          	movq	%r14, (%rsp)
ffffff8000201f5b: 48 8d 05 ee 02 00 00 	leaq	750(%rip), %rax         # 0xffffff8000202250 <_ZN42_$LT$$RF$T$u20$as$u20$core..fmt..Debug$GT$3fmt17h3847677b3ed11941E>
ffffff8000201f62: 48 89 44 24 08       	movq	%rax, 8(%rsp)
ffffff8000201f67: 48 8d 05 5a e2 00 00 	leaq	57946(%rip), %rax       # 0xffffff80002101c8 <_ZN5axhal8platform6pc_x864time12CPU_FREQ_MHZ17hcbee90971ca93e77E.0+0x40>
ffffff8000201f6e: 48 89 44 24 20       	movq	%rax, 32(%rsp)
ffffff8000201f73: 48 c7 44 24 28 01 00 00 00   	movq	$1, 40(%rsp)
ffffff8000201f7c: 48 c7 44 24 10 00 00 00 00   	movq	$0, 16(%rsp)
ffffff8000201f85: 4c 89 64 24 30       	movq	%r12, 48(%rsp)
ffffff8000201f8a: 48 c7 44 24 38 01 00 00 00   	movq	$1, 56(%rsp)
ffffff8000201f93: 48 8d 35 3e e2 00 00 	leaq	57918(%rip), %rsi       # 0xffffff80002101d8 <_ZN5axhal8platform6pc_x864time12CPU_FREQ_MHZ17hcbee90971ca93e77E.0+0x50>
ffffff8000201f9a: 48 8d 7c 24 10       	leaq	16(%rsp), %rdi
ffffff8000201f9f: e8 cc 35 00 00       	callq	0xffffff8000205570 <_ZN4core9panicking9panic_fmt17h95420505f5f4b6c1E>
ffffff8000201fa4: 0f 0b                	ud2
ffffff8000201fa6: 48 89 44 24 10       	movq	%rax, 16(%rsp)
ffffff8000201fab: 48 8d 3d 42 90 00 00 	leaq	36930(%rip), %rdi       # 0xffffff800020aff4 <SELF_PTR+0x3c>
ffffff8000201fb2: 48 8d 0d 6f ec 00 00 	leaq	60527(%rip), %rcx       # 0xffffff8000210c28 <_ZN3log6LOGGER17h48756037b7073395E.1+0x28>
ffffff8000201fb9: eb 13                	jmp	0xffffff8000201fce <_ZN5axhal8platform6pc_x867dtables12init_primary17hd0e645d093896604E+0x96e>
ffffff8000201fbb: 48 89 5c 24 10       	movq	%rbx, 16(%rsp)
ffffff8000201fc0: 48 8d 3d 2d 90 00 00 	leaq	36909(%rip), %rdi       # 0xffffff800020aff4 <SELF_PTR+0x3c>
ffffff8000201fc7: 48 8d 0d 52 e4 00 00 	leaq	58450(%rip), %rcx       # 0xffffff8000210420 <_ZN5axhal8platform6pc_x864time12CPU_FREQ_MHZ17hcbee90971ca93e77E.0+0x298>
ffffff8000201fce: 4c 8d 05 73 ec 00 00 	leaq	60531(%rip), %r8        # 0xffffff8000210c48 <_ZN3log6LOGGER17h48756037b7073395E.1+0x48>
ffffff8000201fd5: 48 8d 54 24 10       	leaq	16(%rsp), %rdx
ffffff8000201fda: be 4a 00 00 00       	movl	$74, %esi
ffffff8000201fdf: e8 6c 4a 00 00       	callq	0xffffff8000206a50 <_ZN4core6result13unwrap_failed17he358196271332538E>
ffffff8000201fe4: 0f 0b                	ud2
ffffff8000201fe6: cc                   	int3
ffffff8000201fe7: cc                   	int3
ffffff8000201fe8: cc                   	int3
ffffff8000201fe9: cc                   	int3
ffffff8000201fea: cc                   	int3
ffffff8000201feb: cc                   	int3
ffffff8000201fec: cc                   	int3
ffffff8000201fed: cc                   	int3
ffffff8000201fee: cc                   	int3
ffffff8000201fef: cc                   	int3

ffffff8000201ff0 <_ZN5axhal3cpu12init_primary17ha4933b228f60973fE>:
ffffff8000201ff0: 50                   	pushq	%rax
ffffff8000201ff1: 48 b8 18 01 00 00 00 00 00 00	movabsq	$280, %rax      # imm = 0x118
ffffff8000201ffb: 48 b8 00 00 00 00 00 00 00 00	movabsq	$0, %rax
ffffff8000202005: 48 b8 18 01 00 00 00 00 00 00	movabsq	$280, %rax      # imm = 0x118
ffffff800020200f: 48 b8 00 00 00 00 00 00 00 00	movabsq	$0, %rax
ffffff8000202019: 48 b8 18 01 00 00 00 00 00 00	movabsq	$280, %rax      # imm = 0x118
ffffff8000202023: 48 b9 00 00 00 00 00 00 00 00	movabsq	$0, %rcx
ffffff800020202d: 48 29 c8             	subq	%rcx, %rax
ffffff8000202030: 48 05 ff 0f 00 00    	addq	$4095, %rax             # imm = 0xFFF
ffffff8000202036: 48 25 00 f0 ff ff    	andq	$-4096, %rax            # imm = 0xF000
ffffff800020203c: 48 0f af c7          	imulq	%rdi, %rax
ffffff8000202040: 48 03 05 01 ed 00 00 	addq	60673(%rip), %rax       # 0xffffff8000210d48 <_ZN3log6LOGGER17h48756037b7073395E.1+0x148>
ffffff8000202047: 48 89 c2             	movq	%rax, %rdx
ffffff800020204a: 48 c1 ea 20          	shrq	$32, %rdx
ffffff800020204e: b9 01 01 00 c0       	movl	$3221225729, %ecx       # imm = 0xC0000101
ffffff8000202053: 0f 30                	wrmsr
ffffff8000202055: 65 48 89 04 25 10 01 00 00   	movq	%rax, %gs:272
ffffff800020205e: 65 48 89 3c 25 00 01 00 00   	movq	%rdi, %gs:256
ffffff8000202067: b0 01                	movb	$1, %al
ffffff8000202069: 65 88 04 25 08 01 00 00      	movb	%al, %gs:264
ffffff8000202071: 58                   	popq	%rax
ffffff8000202072: c3                   	retq
ffffff8000202073: cc                   	int3
ffffff8000202074: cc                   	int3
ffffff8000202075: cc                   	int3
ffffff8000202076: cc                   	int3
ffffff8000202077: cc                   	int3
ffffff8000202078: cc                   	int3
ffffff8000202079: cc                   	int3
ffffff800020207a: cc                   	int3
ffffff800020207b: cc                   	int3
ffffff800020207c: cc                   	int3
ffffff800020207d: cc                   	int3
ffffff800020207e: cc                   	int3
ffffff800020207f: cc                   	int3

ffffff8000202080 <_ZN5axhal8platform6pc_x864misc9terminate17h89820be2effd4354E>:
ffffff8000202080: 48 81 ec 88 00 00 00 	subq	$136, %rsp
ffffff8000202087: 48 8b 05 a2 0f 05 00 	movq	331682(%rip), %rax      # 0xffffff8000253030 <_ZN3log20MAX_LOG_LEVEL_FILTER17h9ec50564a00176a0E.0>
ffffff800020208e: 48 83 f8 03          	cmpq	$3, %rax
ffffff8000202092: 0f 82 c5 00 00 00    	jb	0xffffff800020215d <_ZN5axhal8platform6pc_x864misc9terminate17h89820be2effd4354E+0xdd>
ffffff8000202098: 48 8b 05 89 0f 05 00 	movq	331657(%rip), %rax      # 0xffffff8000253028 <_ZN5libax2io5stdio6stdout8INSTANCE17h4c5dc04dc8abc6f2E>
ffffff800020209f: 48 83 f8 02          	cmpq	$2, %rax
ffffff80002020a3: 48 8d 05 1e eb 00 00 	leaq	60190(%rip), %rax       # 0xffffff8000210bc8 <_ZN5axhal8platform6pc_x864time12CPU_FREQ_MHZ17hcbee90971ca93e77E.0+0xa40>
ffffff80002020aa: 48 0f 44 05 4e eb 00 00      	cmoveq	60238(%rip), %rax # 0xffffff8000210c00 <_ZN3log6LOGGER17h48756037b7073395E.1>
ffffff80002020b2: 48 8b 0d 57 ec 00 00 	movq	60503(%rip), %rcx       # 0xffffff8000210d10 <_ZN3log6LOGGER17h48756037b7073395E.1+0x110>
ffffff80002020b9: 48 8d 3d e7 8e 00 00 	leaq	36583(%rip), %rdi       # 0xffffff800020afa7 <_ZN3log6logger3NOP17hf5a5c7f8a7401e67E>
ffffff80002020c0: 48 0f 44 f9          	cmoveq	%rcx, %rdi
ffffff80002020c4: 48 8d 15 1d 7b 00 00 	leaq	31517(%rip), %rdx       # 0xffffff8000209be8 <trap_handler_table+0xbe8>
ffffff80002020cb: 48 89 54 24 40       	movq	%rdx, 64(%rsp)
ffffff80002020d0: 48 c7 44 24 48 1d 00 00 00   	movq	$29, 72(%rsp)
ffffff80002020d9: 48 c7 44 24 50 03 00 00 00   	movq	$3, 80(%rsp)
ffffff80002020e2: 48 c7 44 24 08 00 00 00 00   	movq	$0, 8(%rsp)
ffffff80002020eb: 48 8d 35 76 e0 00 00 	leaq	57462(%rip), %rsi       # 0xffffff8000210168 <sdata+0x4168>
ffffff80002020f2: 48 89 74 24 18       	movq	%rsi, 24(%rsp)
ffffff80002020f7: 48 c7 44 24 20 01 00 00 00   	movq	$1, 32(%rsp)
ffffff8000202100: 48 89 4c 24 28       	movq	%rcx, 40(%rsp)
ffffff8000202105: 48 c7 44 24 30 00 00 00 00   	movq	$0, 48(%rsp)
ffffff800020210e: 48 c7 44 24 58 00 00 00 00   	movq	$0, 88(%rsp)
ffffff8000202117: 48 89 54 24 60       	movq	%rdx, 96(%rsp)
ffffff800020211c: 48 c7 44 24 68 1d 00 00 00   	movq	$29, 104(%rsp)
ffffff8000202125: 48 c7 44 24 70 00 00 00 00   	movq	$0, 112(%rsp)
ffffff800020212e: 48 8d 0d d0 7a 00 00 	leaq	31440(%rip), %rcx       # 0xffffff8000209c05 <trap_handler_table+0xc05>
ffffff8000202135: 48 89 4c 24 78       	movq	%rcx, 120(%rsp)
ffffff800020213a: 48 c7 84 24 80 00 00 00 29 00 00 00  	movq	$41, 128(%rsp)
ffffff8000202146: 48 b9 01 00 00 00 07 00 00 00	movabsq	$30064771073, %rcx # imm = 0x700000001
ffffff8000202150: 48 89 4c 24 38       	movq	%rcx, 56(%rsp)
ffffff8000202155: 48 8d 74 24 08       	leaq	8(%rsp), %rsi
ffffff800020215a: ff 50 28             	callq	*40(%rax)
ffffff800020215d: 66 ba 04 06          	movw	$1540, %dx              # imm = 0x604
ffffff8000202161: 66 b8 00 20          	movw	$8192, %ax              # imm = 0x2000
ffffff8000202165: 66 ef                	outw	%ax, %dx
ffffff8000202167: fa                   	cli
ffffff8000202168: f4                   	hlt
ffffff8000202169: 48 8b 05 c0 0e 05 00 	movq	331456(%rip), %rax      # 0xffffff8000253030 <_ZN3log20MAX_LOG_LEVEL_FILTER17h9ec50564a00176a0E.0>
ffffff8000202170: 48 83 f8 02          	cmpq	$2, %rax
ffffff8000202174: 0f 82 c6 00 00 00    	jb	0xffffff8000202240 <_ZN5axhal8platform6pc_x864misc9terminate17h89820be2effd4354E+0x1c0>
ffffff800020217a: 48 8b 05 a7 0e 05 00 	movq	331431(%rip), %rax      # 0xffffff8000253028 <_ZN5libax2io5stdio6stdout8INSTANCE17h4c5dc04dc8abc6f2E>
ffffff8000202181: 48 83 f8 02          	cmpq	$2, %rax
ffffff8000202185: 48 8d 05 3c ea 00 00 	leaq	59964(%rip), %rax       # 0xffffff8000210bc8 <_ZN5axhal8platform6pc_x864time12CPU_FREQ_MHZ17hcbee90971ca93e77E.0+0xa40>
ffffff800020218c: 48 0f 44 05 6c ea 00 00      	cmoveq	60012(%rip), %rax # 0xffffff8000210c00 <_ZN3log6LOGGER17h48756037b7073395E.1>
ffffff8000202194: 48 8b 0d 75 eb 00 00 	movq	60277(%rip), %rcx       # 0xffffff8000210d10 <_ZN3log6LOGGER17h48756037b7073395E.1+0x110>
ffffff800020219b: 48 8d 3d 05 8e 00 00 	leaq	36357(%rip), %rdi       # 0xffffff800020afa7 <_ZN3log6logger3NOP17hf5a5c7f8a7401e67E>
ffffff80002021a2: 48 0f 44 f9          	cmoveq	%rcx, %rdi
ffffff80002021a6: 48 8d 15 3b 7a 00 00 	leaq	31291(%rip), %rdx       # 0xffffff8000209be8 <trap_handler_table+0xbe8>
ffffff80002021ad: 48 89 54 24 40       	movq	%rdx, 64(%rsp)
ffffff80002021b2: 48 c7 44 24 48 1d 00 00 00   	movq	$29, 72(%rsp)
ffffff80002021bb: 48 c7 44 24 50 02 00 00 00   	movq	$2, 80(%rsp)
ffffff80002021c4: 48 c7 44 24 08 00 00 00 00   	movq	$0, 8(%rsp)
ffffff80002021cd: 48 8d 35 a4 df 00 00 	leaq	57252(%rip), %rsi       # 0xffffff8000210178 <sdata+0x4178>
ffffff80002021d4: 48 89 74 24 18       	movq	%rsi, 24(%rsp)
ffffff80002021d9: 48 c7 44 24 20 01 00 00 00   	movq	$1, 32(%rsp)
ffffff80002021e2: 48 89 4c 24 28       	movq	%rcx, 40(%rsp)
ffffff80002021e7: 48 c7 44 24 30 00 00 00 00   	movq	$0, 48(%rsp)
ffffff80002021f0: 48 c7 44 24 58 00 00 00 00   	movq	$0, 88(%rsp)
ffffff80002021f9: 48 89 54 24 60       	movq	%rdx, 96(%rsp)
ffffff80002021fe: 48 c7 44 24 68 1d 00 00 00   	movq	$29, 104(%rsp)
ffffff8000202207: 48 c7 44 24 70 00 00 00 00   	movq	$0, 112(%rsp)
ffffff8000202210: 48 8d 0d ee 79 00 00 	leaq	31214(%rip), %rcx       # 0xffffff8000209c05 <trap_handler_table+0xc05>
ffffff8000202217: 48 89 4c 24 78       	movq	%rcx, 120(%rsp)
ffffff800020221c: 48 c7 84 24 80 00 00 00 29 00 00 00  	movq	$41, 128(%rsp)
ffffff8000202228: 48 b9 01 00 00 00 0a 00 00 00	movabsq	$42949672961, %rcx # imm = 0xA00000001
ffffff8000202232: 48 89 4c 24 38       	movq	%rcx, 56(%rsp)
ffffff8000202237: 48 8d 74 24 08       	leaq	8(%rsp), %rsi
ffffff800020223c: ff 50 28             	callq	*40(%rax)
ffffff800020223f: 90                   	nop
ffffff8000202240: fa                   	cli
ffffff8000202241: f4                   	hlt
ffffff8000202242: eb fc                	jmp	0xffffff8000202240 <_ZN5axhal8platform6pc_x864misc9terminate17h89820be2effd4354E+0x1c0>
ffffff8000202244: cc                   	int3
ffffff8000202245: cc                   	int3
ffffff8000202246: cc                   	int3
ffffff8000202247: cc                   	int3
ffffff8000202248: cc                   	int3
ffffff8000202249: cc                   	int3
ffffff800020224a: cc                   	int3
ffffff800020224b: cc                   	int3
ffffff800020224c: cc                   	int3
ffffff800020224d: cc                   	int3
ffffff800020224e: cc                   	int3
ffffff800020224f: cc                   	int3

ffffff8000202250 <_ZN42_$LT$$RF$T$u20$as$u20$core..fmt..Debug$GT$3fmt17h3847677b3ed11941E>:
ffffff8000202250: 55                   	pushq	%rbp
ffffff8000202251: 41 57                	pushq	%r15
ffffff8000202253: 41 56                	pushq	%r14
ffffff8000202255: 41 55                	pushq	%r13
ffffff8000202257: 41 54                	pushq	%r12
ffffff8000202259: 53                   	pushq	%rbx
ffffff800020225a: 48 83 ec 48          	subq	$72, %rsp
ffffff800020225e: 48 8b 07             	movq	(%rdi), %rax
ffffff8000202261: 48 89 04 24          	movq	%rax, (%rsp)
ffffff8000202265: 48 8b 47 08          	movq	8(%rdi), %rax
ffffff8000202269: 48 89 44 24 08       	movq	%rax, 8(%rsp)
ffffff800020226e: 48 8b 1e             	movq	(%rsi), %rbx
ffffff8000202271: 48 8b 46 08          	movq	8(%rsi), %rax
ffffff8000202275: 48 89 44 24 30       	movq	%rax, 48(%rsp)
ffffff800020227a: 48 8b 40 20          	movq	32(%rax), %rax
ffffff800020227e: 48 89 df             	movq	%rbx, %rdi
ffffff8000202281: be 22 00 00 00       	movl	$34, %esi
ffffff8000202286: 48 89 44 24 38       	movq	%rax, 56(%rsp)
ffffff800020228b: ff d0                	callq	*%rax
ffffff800020228d: 84 c0                	testb	%al, %al
ffffff800020228f: 74 11                	je	0xffffff80002022a2 <_ZN42_$LT$$RF$T$u20$as$u20$core..fmt..Debug$GT$3fmt17h3847677b3ed11941E+0x52>
ffffff8000202291: b0 01                	movb	$1, %al
ffffff8000202293: 48 83 c4 48          	addq	$72, %rsp
ffffff8000202297: 5b                   	popq	%rbx
ffffff8000202298: 41 5c                	popq	%r12
ffffff800020229a: 41 5d                	popq	%r13
ffffff800020229c: 41 5e                	popq	%r14
ffffff800020229e: 41 5f                	popq	%r15
ffffff80002022a0: 5d                   	popq	%rbp
ffffff80002022a1: c3                   	retq
ffffff80002022a2: 4c 8b 4c 24 08       	movq	8(%rsp), %r9
ffffff80002022a7: 4d 85 c9             	testq	%r9, %r9
ffffff80002022aa: 0f 84 58 03 00 00    	je	0xffffff8000202608 <_ZN42_$LT$$RF$T$u20$as$u20$core..fmt..Debug$GT$3fmt17h3847677b3ed11941E+0x3b8>
ffffff80002022b0: 48 8b 34 24          	movq	(%rsp), %rsi
ffffff80002022b4: 4a 8d 04 0e          	leaq	(%rsi,%r9), %rax
ffffff80002022b8: 48 89 44 24 40       	movq	%rax, 64(%rsp)
ffffff80002022bd: 45 31 ed             	xorl	%r13d, %r13d
ffffff80002022c0: 4c 8d 35 cd 75 00 00 	leaq	30157(%rip), %r14       # 0xffffff8000209894 <trap_handler_table+0x894>
ffffff80002022c7: 48 89 f7             	movq	%rsi, %rdi
ffffff80002022ca: 31 c9                	xorl	%ecx, %ecx
ffffff80002022cc: 49 89 fa             	movq	%rdi, %r10
ffffff80002022cf: 0f b6 3f             	movzbl	(%rdi), %edi
ffffff80002022d2: 40 84 ff             	testb	%dil, %dil
ffffff80002022d5: 78 09                	js	0xffffff80002022e0 <_ZN42_$LT$$RF$T$u20$as$u20$core..fmt..Debug$GT$3fmt17h3847677b3ed11941E+0x90>
ffffff80002022d7: 4d 8d 42 01          	leaq	1(%r10), %r8
ffffff80002022db: eb 73                	jmp	0xffffff8000202350 <_ZN42_$LT$$RF$T$u20$as$u20$core..fmt..Debug$GT$3fmt17h3847677b3ed11941E+0x100>
ffffff80002022dd: 0f 1f 00             	nopl	(%rax)
ffffff80002022e0: 89 f8                	movl	%edi, %eax
ffffff80002022e2: 83 e0 1f             	andl	$31, %eax
ffffff80002022e5: 41 0f b6 52 01       	movzbl	1(%r10), %edx
ffffff80002022ea: 83 e2 3f             	andl	$63, %edx
ffffff80002022ed: 40 80 ff df          	cmpb	$-33, %dil
ffffff80002022f1: 76 3d                	jbe	0xffffff8000202330 <_ZN42_$LT$$RF$T$u20$as$u20$core..fmt..Debug$GT$3fmt17h3847677b3ed11941E+0xe0>
ffffff80002022f3: 4d 8d 42 03          	leaq	3(%r10), %r8
ffffff80002022f7: 41 0f b6 6a 02       	movzbl	2(%r10), %ebp
ffffff80002022fc: c1 e2 06             	shll	$6, %edx
ffffff80002022ff: 83 e5 3f             	andl	$63, %ebp
ffffff8000202302: 09 d5                	orl	%edx, %ebp
ffffff8000202304: 40 80 ff f0          	cmpb	$-16, %dil
ffffff8000202308: 72 33                	jb	0xffffff800020233d <_ZN42_$LT$$RF$T$u20$as$u20$core..fmt..Debug$GT$3fmt17h3847677b3ed11941E+0xed>
ffffff800020230a: 41 0f b6 38          	movzbl	(%r8), %edi
ffffff800020230e: 83 e0 07             	andl	$7, %eax
ffffff8000202311: c1 e0 12             	shll	$18, %eax
ffffff8000202314: c1 e5 06             	shll	$6, %ebp
ffffff8000202317: 83 e7 3f             	andl	$63, %edi
ffffff800020231a: 09 ef                	orl	%ebp, %edi
ffffff800020231c: 09 c7                	orl	%eax, %edi
ffffff800020231e: 81 ff 00 00 11 00    	cmpl	$1114112, %edi          # imm = 0x110000
ffffff8000202324: 0f 84 1e 03 00 00    	je	0xffffff8000202648 <_ZN42_$LT$$RF$T$u20$as$u20$core..fmt..Debug$GT$3fmt17h3847677b3ed11941E+0x3f8>
ffffff800020232a: 4d 8d 42 04          	leaq	4(%r10), %r8
ffffff800020232e: eb 20                	jmp	0xffffff8000202350 <_ZN42_$LT$$RF$T$u20$as$u20$core..fmt..Debug$GT$3fmt17h3847677b3ed11941E+0x100>
ffffff8000202330: 4d 8d 42 02          	leaq	2(%r10), %r8
ffffff8000202334: c1 e0 06             	shll	$6, %eax
ffffff8000202337: 09 d0                	orl	%edx, %eax
ffffff8000202339: 89 c7                	movl	%eax, %edi
ffffff800020233b: eb 13                	jmp	0xffffff8000202350 <_ZN42_$LT$$RF$T$u20$as$u20$core..fmt..Debug$GT$3fmt17h3847677b3ed11941E+0x100>
ffffff800020233d: c1 e0 0c             	shll	$12, %eax
ffffff8000202340: 09 c5                	orl	%eax, %ebp
ffffff8000202342: 89 ef                	movl	%ebp, %edi
ffffff8000202344: 66 66 66 2e 0f 1f 84 00 00 00 00 00  	nopw	%cs:(%rax,%rax)
ffffff8000202350: 41 bf 02 00 11 00    	movl	$1114114, %r15d         # imm = 0x110002
ffffff8000202356: 83 ff 22             	cmpl	$34, %edi
ffffff8000202359: 48 89 4c 24 10       	movq	%rcx, 16(%rsp)
ffffff800020235e: 4c 89 54 24 20       	movq	%r10, 32(%rsp)
ffffff8000202363: 4c 89 44 24 18       	movq	%r8, 24(%rsp)
ffffff8000202368: 77 2f                	ja	0xffffff8000202399 <_ZN42_$LT$$RF$T$u20$as$u20$core..fmt..Debug$GT$3fmt17h3847677b3ed11941E+0x149>
ffffff800020236a: 41 bc 30 00 00 00    	movl	$48, %r12d
ffffff8000202370: 89 f8                	movl	%edi, %eax
ffffff8000202372: 48 8d 15 8f 74 00 00 	leaq	29839(%rip), %rdx       # 0xffffff8000209808 <trap_handler_table+0x808>
ffffff8000202379: 48 63 04 82          	movslq	(%rdx,%rax,4), %rax
ffffff800020237d: 48 01 d0             	addq	%rdx, %rax
ffffff8000202380: ff e0                	jmpq	*%rax
ffffff8000202382: 41 bc 74 00 00 00    	movl	$116, %r12d
ffffff8000202388: 48 89 ca             	movq	%rcx, %rdx
ffffff800020238b: 4c 29 ea             	subq	%r13, %rdx
ffffff800020238e: 0f 83 88 00 00 00    	jae	0xffffff800020241c <_ZN42_$LT$$RF$T$u20$as$u20$core..fmt..Debug$GT$3fmt17h3847677b3ed11941E+0x1cc>
ffffff8000202394: e9 58 02 00 00       	jmp	0xffffff80002025f1 <_ZN42_$LT$$RF$T$u20$as$u20$core..fmt..Debug$GT$3fmt17h3847677b3ed11941E+0x3a1>
ffffff8000202399: 83 ff 5c             	cmpl	$92, %edi
ffffff800020239c: 75 10                	jne	0xffffff80002023ae <_ZN42_$LT$$RF$T$u20$as$u20$core..fmt..Debug$GT$3fmt17h3847677b3ed11941E+0x15e>
ffffff800020239e: 41 89 fc             	movl	%edi, %r12d
ffffff80002023a1: 48 89 ca             	movq	%rcx, %rdx
ffffff80002023a4: 4c 29 ea             	subq	%r13, %rdx
ffffff80002023a7: 73 73                	jae	0xffffff800020241c <_ZN42_$LT$$RF$T$u20$as$u20$core..fmt..Debug$GT$3fmt17h3847677b3ed11941E+0x1cc>
ffffff80002023a9: e9 43 02 00 00       	jmp	0xffffff80002025f1 <_ZN42_$LT$$RF$T$u20$as$u20$core..fmt..Debug$GT$3fmt17h3847677b3ed11941E+0x3a1>
ffffff80002023ae: 41 89 ff             	movl	%edi, %r15d
ffffff80002023b1: e8 ea 50 00 00       	callq	0xffffff80002074a0 <_ZN4core7unicode12unicode_data15grapheme_extend6lookup17h7fa976c0a05ab13eE>
ffffff80002023b6: 84 c0                	testb	%al, %al
ffffff80002023b8: 75 0c                	jne	0xffffff80002023c6 <_ZN42_$LT$$RF$T$u20$as$u20$core..fmt..Debug$GT$3fmt17h3847677b3ed11941E+0x176>
ffffff80002023ba: 44 89 ff             	movl	%r15d, %edi
ffffff80002023bd: e8 1e 52 00 00       	callq	0xffffff80002075e0 <_ZN4core7unicode9printable12is_printable17h1cea438ea4fda24bE>
ffffff80002023c2: 84 c0                	testb	%al, %al
ffffff80002023c4: 75 0d                	jne	0xffffff80002023d3 <_ZN42_$LT$$RF$T$u20$as$u20$core..fmt..Debug$GT$3fmt17h3847677b3ed11941E+0x183>
ffffff80002023c6: 41 81 ff 01 00 11 00 	cmpl	$1114113, %r15d         # imm = 0x110001
ffffff80002023cd: 0f 85 eb 01 00 00    	jne	0xffffff80002025be <_ZN42_$LT$$RF$T$u20$as$u20$core..fmt..Debug$GT$3fmt17h3847677b3ed11941E+0x36e>
ffffff80002023d3: 4c 8b 4c 24 08       	movq	8(%rsp), %r9
ffffff80002023d8: 48 8b 4c 24 10       	movq	16(%rsp), %rcx
ffffff80002023dd: 48 8b 44 24 20       	movq	32(%rsp), %rax
ffffff80002023e2: 48 8b 7c 24 18       	movq	24(%rsp), %rdi
ffffff80002023e7: 48 8b 34 24          	movq	(%rsp), %rsi
ffffff80002023eb: e9 b8 01 00 00       	jmp	0xffffff80002025a8 <_ZN42_$LT$$RF$T$u20$as$u20$core..fmt..Debug$GT$3fmt17h3847677b3ed11941E+0x358>
ffffff80002023f0: 41 bc 6e 00 00 00    	movl	$110, %r12d
ffffff80002023f6: 48 89 ca             	movq	%rcx, %rdx
ffffff80002023f9: 4c 29 ea             	subq	%r13, %rdx
ffffff80002023fc: 73 1e                	jae	0xffffff800020241c <_ZN42_$LT$$RF$T$u20$as$u20$core..fmt..Debug$GT$3fmt17h3847677b3ed11941E+0x1cc>
ffffff80002023fe: e9 ee 01 00 00       	jmp	0xffffff80002025f1 <_ZN42_$LT$$RF$T$u20$as$u20$core..fmt..Debug$GT$3fmt17h3847677b3ed11941E+0x3a1>
ffffff8000202403: 41 bc 72 00 00 00    	movl	$114, %r12d
ffffff8000202409: 0f 1f 80 00 00 00 00 	nopl	(%rax)
ffffff8000202410: 48 89 ca             	movq	%rcx, %rdx
ffffff8000202413: 4c 29 ea             	subq	%r13, %rdx
ffffff8000202416: 0f 82 d5 01 00 00    	jb	0xffffff80002025f1 <_ZN42_$LT$$RF$T$u20$as$u20$core..fmt..Debug$GT$3fmt17h3847677b3ed11941E+0x3a1>
ffffff800020241c: 4d 85 ed             	testq	%r13, %r13
ffffff800020241f: 74 17                	je	0xffffff8000202438 <_ZN42_$LT$$RF$T$u20$as$u20$core..fmt..Debug$GT$3fmt17h3847677b3ed11941E+0x1e8>
ffffff8000202421: 4d 39 cd             	cmpq	%r9, %r13
ffffff8000202424: 73 0c                	jae	0xffffff8000202432 <_ZN42_$LT$$RF$T$u20$as$u20$core..fmt..Debug$GT$3fmt17h3847677b3ed11941E+0x1e2>
ffffff8000202426: 42 80 3c 2e c0       	cmpb	$-64, (%rsi,%r13)
ffffff800020242b: 7d 0b                	jge	0xffffff8000202438 <_ZN42_$LT$$RF$T$u20$as$u20$core..fmt..Debug$GT$3fmt17h3847677b3ed11941E+0x1e8>
ffffff800020242d: e9 bf 01 00 00       	jmp	0xffffff80002025f1 <_ZN42_$LT$$RF$T$u20$as$u20$core..fmt..Debug$GT$3fmt17h3847677b3ed11941E+0x3a1>
ffffff8000202432: 0f 85 b9 01 00 00    	jne	0xffffff80002025f1 <_ZN42_$LT$$RF$T$u20$as$u20$core..fmt..Debug$GT$3fmt17h3847677b3ed11941E+0x3a1>
ffffff8000202438: 48 85 c9             	testq	%rcx, %rcx
ffffff800020243b: 74 16                	je	0xffffff8000202453 <_ZN42_$LT$$RF$T$u20$as$u20$core..fmt..Debug$GT$3fmt17h3847677b3ed11941E+0x203>
ffffff800020243d: 4c 39 c9             	cmpq	%r9, %rcx
ffffff8000202440: 73 0b                	jae	0xffffff800020244d <_ZN42_$LT$$RF$T$u20$as$u20$core..fmt..Debug$GT$3fmt17h3847677b3ed11941E+0x1fd>
ffffff8000202442: 80 3c 0e bf          	cmpb	$-65, (%rsi,%rcx)
ffffff8000202446: 7f 0b                	jg	0xffffff8000202453 <_ZN42_$LT$$RF$T$u20$as$u20$core..fmt..Debug$GT$3fmt17h3847677b3ed11941E+0x203>
ffffff8000202448: e9 a4 01 00 00       	jmp	0xffffff80002025f1 <_ZN42_$LT$$RF$T$u20$as$u20$core..fmt..Debug$GT$3fmt17h3847677b3ed11941E+0x3a1>
ffffff800020244d: 0f 85 9e 01 00 00    	jne	0xffffff80002025f1 <_ZN42_$LT$$RF$T$u20$as$u20$core..fmt..Debug$GT$3fmt17h3847677b3ed11941E+0x3a1>
ffffff8000202453: 89 7c 24 2c          	movl	%edi, 44(%rsp)
ffffff8000202457: 49 01 f5             	addq	%rsi, %r13
ffffff800020245a: 48 89 df             	movq	%rbx, %rdi
ffffff800020245d: 4c 89 ee             	movq	%r13, %rsi
ffffff8000202460: 48 8b 44 24 30       	movq	48(%rsp), %rax
ffffff8000202465: ff 50 18             	callq	*24(%rax)
ffffff8000202468: 84 c0                	testb	%al, %al
ffffff800020246a: 0f 85 21 fe ff ff    	jne	0xffffff8000202291 <_ZN42_$LT$$RF$T$u20$as$u20$core..fmt..Debug$GT$3fmt17h3847677b3ed11941E+0x41>
ffffff8000202470: 44 89 e5             	movl	%r12d, %ebp
ffffff8000202473: 41 b4 05             	movb	$5, %r12b
ffffff8000202476: eb 2e                	jmp	0xffffff80002024a6 <_ZN42_$LT$$RF$T$u20$as$u20$core..fmt..Debug$GT$3fmt17h3847677b3ed11941E+0x256>
ffffff8000202478: 0f 1f 84 00 00 00 00 00      	nopl	(%rax,%rax)
ffffff8000202480: 41 bd 00 00 11 00    	movl	$1114112, %r13d         # imm = 0x110000
ffffff8000202486: 89 ee                	movl	%ebp, %esi
ffffff8000202488: 81 fd 00 00 11 00    	cmpl	$1114112, %ebp          # imm = 0x110000
ffffff800020248e: 0f 84 cc 00 00 00    	je	0xffffff8000202560 <_ZN42_$LT$$RF$T$u20$as$u20$core..fmt..Debug$GT$3fmt17h3847677b3ed11941E+0x310>
ffffff8000202494: 48 89 df             	movq	%rbx, %rdi
ffffff8000202497: ff 54 24 38          	callq	*56(%rsp)
ffffff800020249b: 45 89 ef             	movl	%r13d, %r15d
ffffff800020249e: 84 c0                	testb	%al, %al
ffffff80002024a0: 0f 85 eb fd ff ff    	jne	0xffffff8000202291 <_ZN42_$LT$$RF$T$u20$as$u20$core..fmt..Debug$GT$3fmt17h3847677b3ed11941E+0x41>
ffffff80002024a6: 41 8d 87 00 00 ef ff 	leal	-1114112(%r15), %eax
ffffff80002024ad: 41 81 ff 00 00 11 00 	cmpl	$1114112, %r15d         # imm = 0x110000
ffffff80002024b4: b9 03 00 00 00       	movl	$3, %ecx
ffffff80002024b9: 0f 42 c1             	cmovbl	%ecx, %eax
ffffff80002024bc: 41 bd 01 00 11 00    	movl	$1114113, %r13d         # imm = 0x110001
ffffff80002024c2: 49 63 04 86          	movslq	(%r14,%rax,4), %rax
ffffff80002024c6: 4c 01 f0             	addq	%r14, %rax
ffffff80002024c9: be 5c 00 00 00       	movl	$92, %esi
ffffff80002024ce: ff e0                	jmpq	*%rax
ffffff80002024d0: be 7d 00 00 00       	movl	$125, %esi
ffffff80002024d5: 41 0f b6 c4          	movzbl	%r12b, %eax
ffffff80002024d9: 48 8d 0d c4 73 00 00 	leaq	29636(%rip), %rcx       # 0xffffff80002098a4 <trap_handler_table+0x8a4>
ffffff80002024e0: 48 63 04 81          	movslq	(%rcx,%rax,4), %rax
ffffff80002024e4: 48 01 c8             	addq	%rcx, %rax
ffffff80002024e7: 45 31 e4             	xorl	%r12d, %r12d
ffffff80002024ea: 45 89 fd             	movl	%r15d, %r13d
ffffff80002024ed: ff e0                	jmpq	*%rax
ffffff80002024ef: 48 83 fd 01          	cmpq	$1, %rbp
ffffff80002024f3: 41 b4 02             	movb	$2, %r12b
ffffff80002024f6: 41 80 dc 00          	sbbb	$0, %r12b
ffffff80002024fa: 48 89 e8             	movq	%rbp, %rax
ffffff80002024fd: 48 83 e8 01          	subq	$1, %rax
ffffff8000202501: ba 00 00 00 00       	movl	$0, %edx
ffffff8000202506: 48 0f 43 d0          	cmovaeq	%rax, %rdx
ffffff800020250a: c1 e5 02             	shll	$2, %ebp
ffffff800020250d: 44 89 f8             	movl	%r15d, %eax
ffffff8000202510: 89 e9                	movl	%ebp, %ecx
ffffff8000202512: d3 e8                	shrl	%cl, %eax
ffffff8000202514: 83 e0 0f             	andl	$15, %eax
ffffff8000202517: 8d 48 57             	leal	87(%rax), %ecx
ffffff800020251a: 89 c6                	movl	%eax, %esi
ffffff800020251c: 83 ce 30             	orl	$48, %esi
ffffff800020251f: 3c 0a                	cmpb	$10, %al
ffffff8000202521: 0f 43 f1             	cmovael	%ecx, %esi
ffffff8000202524: 45 89 fd             	movl	%r15d, %r13d
ffffff8000202527: 48 89 d5             	movq	%rdx, %rbp
ffffff800020252a: e9 65 ff ff ff       	jmp	0xffffff8000202494 <_ZN42_$LT$$RF$T$u20$as$u20$core..fmt..Debug$GT$3fmt17h3847677b3ed11941E+0x244>
ffffff800020252f: 41 b4 03             	movb	$3, %r12b
ffffff8000202532: be 75 00 00 00       	movl	$117, %esi
ffffff8000202537: 45 89 fd             	movl	%r15d, %r13d
ffffff800020253a: e9 55 ff ff ff       	jmp	0xffffff8000202494 <_ZN42_$LT$$RF$T$u20$as$u20$core..fmt..Debug$GT$3fmt17h3847677b3ed11941E+0x244>
ffffff800020253f: 41 b4 02             	movb	$2, %r12b
ffffff8000202542: be 7b 00 00 00       	movl	$123, %esi
ffffff8000202547: 45 89 fd             	movl	%r15d, %r13d
ffffff800020254a: e9 45 ff ff ff       	jmp	0xffffff8000202494 <_ZN42_$LT$$RF$T$u20$as$u20$core..fmt..Debug$GT$3fmt17h3847677b3ed11941E+0x244>
ffffff800020254f: 41 b4 04             	movb	$4, %r12b
ffffff8000202552: be 5c 00 00 00       	movl	$92, %esi
ffffff8000202557: 45 89 fd             	movl	%r15d, %r13d
ffffff800020255a: e9 35 ff ff ff       	jmp	0xffffff8000202494 <_ZN42_$LT$$RF$T$u20$as$u20$core..fmt..Debug$GT$3fmt17h3847677b3ed11941E+0x244>
ffffff800020255f: 90                   	nop
ffffff8000202560: 41 bd 01 00 00 00    	movl	$1, %r13d
ffffff8000202566: 8b 44 24 2c          	movl	44(%rsp), %eax
ffffff800020256a: 3d 80 00 00 00       	cmpl	$128, %eax
ffffff800020256f: 72 1c                	jb	0xffffff800020258d <_ZN42_$LT$$RF$T$u20$as$u20$core..fmt..Debug$GT$3fmt17h3847677b3ed11941E+0x33d>
ffffff8000202571: 41 bd 02 00 00 00    	movl	$2, %r13d
ffffff8000202577: 3d ff 07 00 00       	cmpl	$2047, %eax             # imm = 0x7FF
ffffff800020257c: 76 0f                	jbe	0xffffff800020258d <_ZN42_$LT$$RF$T$u20$as$u20$core..fmt..Debug$GT$3fmt17h3847677b3ed11941E+0x33d>
ffffff800020257e: 3d 00 00 01 00       	cmpl	$65536, %eax            # imm = 0x10000
ffffff8000202583: 41 bd 04 00 00 00    	movl	$4, %r13d
ffffff8000202589: 49 83 dd 00          	sbbq	$0, %r13
ffffff800020258d: 48 8b 4c 24 10       	movq	16(%rsp), %rcx
ffffff8000202592: 49 01 cd             	addq	%rcx, %r13
ffffff8000202595: 48 8b 34 24          	movq	(%rsp), %rsi
ffffff8000202599: 4c 8b 4c 24 08       	movq	8(%rsp), %r9
ffffff800020259e: 48 8b 44 24 20       	movq	32(%rsp), %rax
ffffff80002025a3: 48 8b 7c 24 18       	movq	24(%rsp), %rdi
ffffff80002025a8: 48 29 c1             	subq	%rax, %rcx
ffffff80002025ab: 48 01 f9             	addq	%rdi, %rcx
ffffff80002025ae: 48 3b 7c 24 40       	cmpq	64(%rsp), %rdi
ffffff80002025b3: 0f 85 13 fd ff ff    	jne	0xffffff80002022cc <_ZN42_$LT$$RF$T$u20$as$u20$core..fmt..Debug$GT$3fmt17h3847677b3ed11941E+0x7c>
ffffff80002025b9: e9 8a 00 00 00       	jmp	0xffffff8000202648 <_ZN42_$LT$$RF$T$u20$as$u20$core..fmt..Debug$GT$3fmt17h3847677b3ed11941E+0x3f8>
ffffff80002025be: 44 89 ff             	movl	%r15d, %edi
ffffff80002025c1: 44 89 f8             	movl	%r15d, %eax
ffffff80002025c4: 83 c8 01             	orl	$1, %eax
ffffff80002025c7: 44 0f bd e0          	bsrl	%eax, %r12d
ffffff80002025cb: 41 83 f4 1c          	xorl	$28, %r12d
ffffff80002025cf: 41 c1 ec 02          	shrl	$2, %r12d
ffffff80002025d3: 41 83 f4 07          	xorl	$7, %r12d
ffffff80002025d7: 4c 8b 4c 24 08       	movq	8(%rsp), %r9
ffffff80002025dc: 48 8b 4c 24 10       	movq	16(%rsp), %rcx
ffffff80002025e1: 48 8b 34 24          	movq	(%rsp), %rsi
ffffff80002025e5: 48 89 ca             	movq	%rcx, %rdx
ffffff80002025e8: 4c 29 ea             	subq	%r13, %rdx
ffffff80002025eb: 0f 83 2b fe ff ff    	jae	0xffffff800020241c <_ZN42_$LT$$RF$T$u20$as$u20$core..fmt..Debug$GT$3fmt17h3847677b3ed11941E+0x1cc>
ffffff80002025f1: 4c 8d 05 10 e3 00 00 	leaq	58128(%rip), %r8        # 0xffffff8000210908 <_ZN5axhal8platform6pc_x864time12CPU_FREQ_MHZ17hcbee90971ca93e77E.0+0x780>
ffffff80002025f8: 48 89 f7             	movq	%rsi, %rdi
ffffff80002025fb: 4c 89 ce             	movq	%r9, %rsi
ffffff80002025fe: 4c 89 ea             	movq	%r13, %rdx
ffffff8000202601: e8 8a 4e 00 00       	callq	0xffffff8000207490 <_ZN4core3str16slice_error_fail17h6c2f4383cb1ee393E>
ffffff8000202606: 0f 0b                	ud2
ffffff8000202608: 45 31 ed             	xorl	%r13d, %r13d
ffffff800020260b: 45 31 c9             	xorl	%r9d, %r9d
ffffff800020260e: 48 8b 34 24          	movq	(%rsp), %rsi
ffffff8000202612: 4c 01 ee             	addq	%r13, %rsi
ffffff8000202615: 48 89 df             	movq	%rbx, %rdi
ffffff8000202618: 4c 89 ca             	movq	%r9, %rdx
ffffff800020261b: 48 8b 44 24 30       	movq	48(%rsp), %rax
ffffff8000202620: ff 50 18             	callq	*24(%rax)
ffffff8000202623: 84 c0                	testb	%al, %al
ffffff8000202625: 0f 85 66 fc ff ff    	jne	0xffffff8000202291 <_ZN42_$LT$$RF$T$u20$as$u20$core..fmt..Debug$GT$3fmt17h3847677b3ed11941E+0x41>
ffffff800020262b: 48 89 df             	movq	%rbx, %rdi
ffffff800020262e: be 22 00 00 00       	movl	$34, %esi
ffffff8000202633: 48 8b 44 24 38       	movq	56(%rsp), %rax
ffffff8000202638: 48 83 c4 48          	addq	$72, %rsp
ffffff800020263c: 5b                   	popq	%rbx
ffffff800020263d: 41 5c                	popq	%r12
ffffff800020263f: 41 5d                	popq	%r13
ffffff8000202641: 41 5e                	popq	%r14
ffffff8000202643: 41 5f                	popq	%r15
ffffff8000202645: 5d                   	popq	%rbp
ffffff8000202646: ff e0                	jmpq	*%rax
ffffff8000202648: 4d 85 ed             	testq	%r13, %r13
ffffff800020264b: 74 11                	je	0xffffff800020265e <_ZN42_$LT$$RF$T$u20$as$u20$core..fmt..Debug$GT$3fmt17h3847677b3ed11941E+0x40e>
ffffff800020264d: 4c 89 c8             	movq	%r9, %rax
ffffff8000202650: 4c 29 e8             	subq	%r13, %rax
ffffff8000202653: 76 0e                	jbe	0xffffff8000202663 <_ZN42_$LT$$RF$T$u20$as$u20$core..fmt..Debug$GT$3fmt17h3847677b3ed11941E+0x413>
ffffff8000202655: 42 80 3c 2e bf       	cmpb	$-65, (%rsi,%r13)
ffffff800020265a: 7f 0c                	jg	0xffffff8000202668 <_ZN42_$LT$$RF$T$u20$as$u20$core..fmt..Debug$GT$3fmt17h3847677b3ed11941E+0x418>
ffffff800020265c: eb 0f                	jmp	0xffffff800020266d <_ZN42_$LT$$RF$T$u20$as$u20$core..fmt..Debug$GT$3fmt17h3847677b3ed11941E+0x41d>
ffffff800020265e: 45 31 ed             	xorl	%r13d, %r13d
ffffff8000202661: eb af                	jmp	0xffffff8000202612 <_ZN42_$LT$$RF$T$u20$as$u20$core..fmt..Debug$GT$3fmt17h3847677b3ed11941E+0x3c2>
ffffff8000202663: 75 08                	jne	0xffffff800020266d <_ZN42_$LT$$RF$T$u20$as$u20$core..fmt..Debug$GT$3fmt17h3847677b3ed11941E+0x41d>
ffffff8000202665: 4d 89 cd             	movq	%r9, %r13
ffffff8000202668: 49 89 c1             	movq	%rax, %r9
ffffff800020266b: eb a5                	jmp	0xffffff8000202612 <_ZN42_$LT$$RF$T$u20$as$u20$core..fmt..Debug$GT$3fmt17h3847677b3ed11941E+0x3c2>
ffffff800020266d: 4c 8d 05 ac e2 00 00 	leaq	58028(%rip), %r8        # 0xffffff8000210920 <_ZN5axhal8platform6pc_x864time12CPU_FREQ_MHZ17hcbee90971ca93e77E.0+0x798>
ffffff8000202674: 48 89 f7             	movq	%rsi, %rdi
ffffff8000202677: 4c 89 ce             	movq	%r9, %rsi
ffffff800020267a: 4c 89 ea             	movq	%r13, %rdx
ffffff800020267d: 4c 89 c9             	movq	%r9, %rcx
ffffff8000202680: e8 0b 4e 00 00       	callq	0xffffff8000207490 <_ZN4core3str16slice_error_fail17h6c2f4383cb1ee393E>
ffffff8000202685: 0f 0b                	ud2
ffffff8000202687: cc                   	int3
ffffff8000202688: cc                   	int3
ffffff8000202689: cc                   	int3
ffffff800020268a: cc                   	int3
ffffff800020268b: cc                   	int3
ffffff800020268c: cc                   	int3
ffffff800020268d: cc                   	int3
ffffff800020268e: cc                   	int3
ffffff800020268f: cc                   	int3

ffffff8000202690 <_ZN42_$LT$$RF$T$u20$as$u20$core..fmt..Debug$GT$3fmt17haa94bce6727616a1E>:
ffffff8000202690: 48 81 ec 88 00 00 00 	subq	$136, %rsp
ffffff8000202697: 48 8b 07             	movq	(%rdi), %rax
ffffff800020269a: 8b 4e 30             	movl	48(%rsi), %ecx
ffffff800020269d: f6 c1 10             	testb	$16, %cl
ffffff80002026a0: 0f 85 dc 00 00 00    	jne	0xffffff8000202782 <_ZN42_$LT$$RF$T$u20$as$u20$core..fmt..Debug$GT$3fmt17haa94bce6727616a1E+0xf2>
ffffff80002026a6: f6 c1 20             	testb	$32, %cl
ffffff80002026a9: 0f 85 1e 01 00 00    	jne	0xffffff80002027cd <_ZN42_$LT$$RF$T$u20$as$u20$core..fmt..Debug$GT$3fmt17haa94bce6727616a1E+0x13d>
ffffff80002026af: 4c 8b 10             	movq	(%rax), %r10
ffffff80002026b2: b9 27 00 00 00       	movl	$39, %ecx
ffffff80002026b7: 49 81 fa 10 27 00 00 	cmpq	$10000, %r10            # imm = 0x2710
ffffff80002026be: 0f 82 89 01 00 00    	jb	0xffffff800020284d <_ZN42_$LT$$RF$T$u20$as$u20$core..fmt..Debug$GT$3fmt17haa94bce6727616a1E+0x1bd>
ffffff80002026c4: 41 bb 27 00 00 00    	movl	$39, %r11d
ffffff80002026ca: 49 b8 4b 59 86 38 d6 c5 6d 34	movabsq	$3777893186295716171, %r8 # imm = 0x346DC5D63886594B
ffffff80002026d4: 4c 8d 0d 75 7c 00 00 	leaq	31861(%rip), %r9        # 0xffffff800020a350 <str.0+0x630>
ffffff80002026db: 0f 1f 44 00 00       	nopl	(%rax,%rax)
ffffff80002026e0: 4c 89 d0             	movq	%r10, %rax
ffffff80002026e3: 49 f7 e0             	mulq	%r8
ffffff80002026e6: 48 c1 ea 0b          	shrq	$11, %rdx
ffffff80002026ea: 69 c2 10 27 00 00    	imull	$10000, %edx, %eax      # imm = 0x2710
ffffff80002026f0: 44 89 d1             	movl	%r10d, %ecx
ffffff80002026f3: 29 c1                	subl	%eax, %ecx
ffffff80002026f5: 0f b7 c1             	movzwl	%cx, %eax
ffffff80002026f8: c1 e8 02             	shrl	$2, %eax
ffffff80002026fb: 69 c0 7b 14 00 00    	imull	$5243, %eax, %eax       # imm = 0x147B
ffffff8000202701: c1 e8 11             	shrl	$17, %eax
ffffff8000202704: 6b f8 64             	imull	$100, %eax, %edi
ffffff8000202707: 29 f9                	subl	%edi, %ecx
ffffff8000202709: 0f b7 f9             	movzwl	%cx, %edi
ffffff800020270c: 49 8d 4b fc          	leaq	-4(%r11), %rcx
ffffff8000202710: 41 0f b7 04 41       	movzwl	(%r9,%rax,2), %eax
ffffff8000202715: 66 42 89 44 1c 04    	movw	%ax, 4(%rsp,%r11)
ffffff800020271b: 41 0f b7 04 79       	movzwl	(%r9,%rdi,2), %eax
ffffff8000202720: 66 42 89 44 1c 06    	movw	%ax, 6(%rsp,%r11)
ffffff8000202726: 49 89 cb             	movq	%rcx, %r11
ffffff8000202729: 49 81 fa ff e0 f5 05 	cmpq	$99999999, %r10         # imm = 0x5F5E0FF
ffffff8000202730: 49 89 d2             	movq	%rdx, %r10
ffffff8000202733: 77 ab                	ja	0xffffff80002026e0 <_ZN42_$LT$$RF$T$u20$as$u20$core..fmt..Debug$GT$3fmt17haa94bce6727616a1E+0x50>
ffffff8000202735: 48 83 fa 63          	cmpq	$99, %rdx
ffffff8000202739: 76 2e                	jbe	0xffffff8000202769 <_ZN42_$LT$$RF$T$u20$as$u20$core..fmt..Debug$GT$3fmt17haa94bce6727616a1E+0xd9>
ffffff800020273b: 0f b7 c2             	movzwl	%dx, %eax
ffffff800020273e: c1 e8 02             	shrl	$2, %eax
ffffff8000202741: 69 c0 7b 14 00 00    	imull	$5243, %eax, %eax       # imm = 0x147B
ffffff8000202747: c1 e8 11             	shrl	$17, %eax
ffffff800020274a: 6b f8 64             	imull	$100, %eax, %edi
ffffff800020274d: 29 fa                	subl	%edi, %edx
ffffff800020274f: 0f b7 d2             	movzwl	%dx, %edx
ffffff8000202752: 48 8d 3d f7 7b 00 00 	leaq	31735(%rip), %rdi       # 0xffffff800020a350 <str.0+0x630>
ffffff8000202759: 0f b7 14 57          	movzwl	(%rdi,%rdx,2), %edx
ffffff800020275d: 66 89 54 0c 06       	movw	%dx, 6(%rsp,%rcx)
ffffff8000202762: 48 83 c1 fe          	addq	$-2, %rcx
ffffff8000202766: 48 89 c2             	movq	%rax, %rdx
ffffff8000202769: 48 83 fa 0a          	cmpq	$10, %rdx
ffffff800020276d: 0f 83 ec 00 00 00    	jae	0xffffff800020285f <_ZN42_$LT$$RF$T$u20$as$u20$core..fmt..Debug$GT$3fmt17haa94bce6727616a1E+0x1cf>
ffffff8000202773: 80 c2 30             	addb	$48, %dl
ffffff8000202776: 88 54 0c 07          	movb	%dl, 7(%rsp,%rcx)
ffffff800020277a: 48 ff c9             	decq	%rcx
ffffff800020277d: e9 f1 00 00 00       	jmp	0xffffff8000202873 <_ZN42_$LT$$RF$T$u20$as$u20$core..fmt..Debug$GT$3fmt17haa94bce6727616a1E+0x1e3>
ffffff8000202782: 48 8b 00             	movq	(%rax), %rax
ffffff8000202785: 4c 8d 84 24 88 00 00 00      	leaq	136(%rsp), %r8
ffffff800020278d: 45 31 c9             	xorl	%r9d, %r9d
ffffff8000202790: 41 ba 30 00 00 00    	movl	$48, %r10d
ffffff8000202796: 48 89 c2             	movq	%rax, %rdx
ffffff8000202799: 0f 1f 80 00 00 00 00 	nopl	(%rax)
ffffff80002027a0: 48 c1 ea 04          	shrq	$4, %rdx
ffffff80002027a4: 89 c1                	movl	%eax, %ecx
ffffff80002027a6: 80 e1 0f             	andb	$15, %cl
ffffff80002027a9: 80 f9 0a             	cmpb	$10, %cl
ffffff80002027ac: bf 57 00 00 00       	movl	$87, %edi
ffffff80002027b1: 41 0f 42 fa          	cmovbl	%r10d, %edi
ffffff80002027b5: 40 00 cf             	addb	%cl, %dil
ffffff80002027b8: 41 88 78 ff          	movb	%dil, -1(%r8)
ffffff80002027bc: 49 ff c8             	decq	%r8
ffffff80002027bf: 49 ff c1             	incq	%r9
ffffff80002027c2: 48 83 f8 0f          	cmpq	$15, %rax
ffffff80002027c6: 48 89 d0             	movq	%rdx, %rax
ffffff80002027c9: 77 d5                	ja	0xffffff80002027a0 <_ZN42_$LT$$RF$T$u20$as$u20$core..fmt..Debug$GT$3fmt17haa94bce6727616a1E+0x110>
ffffff80002027cb: eb 4e                	jmp	0xffffff800020281b <_ZN42_$LT$$RF$T$u20$as$u20$core..fmt..Debug$GT$3fmt17haa94bce6727616a1E+0x18b>
ffffff80002027cd: 48 8b 00             	movq	(%rax), %rax
ffffff80002027d0: 4c 8d 84 24 88 00 00 00      	leaq	136(%rsp), %r8
ffffff80002027d8: 45 31 c9             	xorl	%r9d, %r9d
ffffff80002027db: 41 ba 30 00 00 00    	movl	$48, %r10d
ffffff80002027e1: 48 89 c2             	movq	%rax, %rdx
ffffff80002027e4: 66 66 66 2e 0f 1f 84 00 00 00 00 00  	nopw	%cs:(%rax,%rax)
ffffff80002027f0: 48 c1 ea 04          	shrq	$4, %rdx
ffffff80002027f4: 89 c1                	movl	%eax, %ecx
ffffff80002027f6: 80 e1 0f             	andb	$15, %cl
ffffff80002027f9: 80 f9 0a             	cmpb	$10, %cl
ffffff80002027fc: bf 37 00 00 00       	movl	$55, %edi
ffffff8000202801: 41 0f 42 fa          	cmovbl	%r10d, %edi
ffffff8000202805: 40 00 cf             	addb	%cl, %dil
ffffff8000202808: 41 88 78 ff          	movb	%dil, -1(%r8)
ffffff800020280c: 49 ff c8             	decq	%r8
ffffff800020280f: 49 ff c1             	incq	%r9
ffffff8000202812: 48 83 f8 0f          	cmpq	$15, %rax
ffffff8000202816: 48 89 d0             	movq	%rdx, %rax
ffffff8000202819: 77 d5                	ja	0xffffff80002027f0 <_ZN42_$LT$$RF$T$u20$as$u20$core..fmt..Debug$GT$3fmt17haa94bce6727616a1E+0x160>
ffffff800020281b: bf 80 00 00 00       	movl	$128, %edi
ffffff8000202820: 4c 29 cf             	subq	%r9, %rdi
ffffff8000202823: 48 81 ff 81 00 00 00 	cmpq	$129, %rdi
ffffff800020282a: 73 76                	jae	0xffffff80002028a2 <_ZN42_$LT$$RF$T$u20$as$u20$core..fmt..Debug$GT$3fmt17haa94bce6727616a1E+0x212>
ffffff800020282c: 48 8d 15 1b 7b 00 00 	leaq	31515(%rip), %rdx       # 0xffffff800020a34e <str.0+0x62e>
ffffff8000202833: b9 02 00 00 00       	movl	$2, %ecx
ffffff8000202838: 48 89 f7             	movq	%rsi, %rdi
ffffff800020283b: be 01 00 00 00       	movl	$1, %esi
ffffff8000202840: e8 3b 2f 00 00       	callq	0xffffff8000205780 <_ZN4core3fmt9Formatter12pad_integral17h43fecee5ed9182e1E>
ffffff8000202845: 48 81 c4 88 00 00 00 	addq	$136, %rsp
ffffff800020284c: c3                   	retq
ffffff800020284d: 4c 89 d2             	movq	%r10, %rdx
ffffff8000202850: 48 83 fa 63          	cmpq	$99, %rdx
ffffff8000202854: 0f 87 e1 fe ff ff    	ja	0xffffff800020273b <_ZN42_$LT$$RF$T$u20$as$u20$core..fmt..Debug$GT$3fmt17haa94bce6727616a1E+0xab>
ffffff800020285a: e9 0a ff ff ff       	jmp	0xffffff8000202769 <_ZN42_$LT$$RF$T$u20$as$u20$core..fmt..Debug$GT$3fmt17haa94bce6727616a1E+0xd9>
ffffff800020285f: 48 8d 05 ea 7a 00 00 	leaq	31466(%rip), %rax       # 0xffffff800020a350 <str.0+0x630>
ffffff8000202866: 0f b7 04 50          	movzwl	(%rax,%rdx,2), %eax
ffffff800020286a: 66 89 44 0c 06       	movw	%ax, 6(%rsp,%rcx)
ffffff800020286f: 48 83 c1 fe          	addq	$-2, %rcx
ffffff8000202873: 4c 8d 04 0c          	leaq	(%rsp,%rcx), %r8
ffffff8000202877: 49 83 c0 08          	addq	$8, %r8
ffffff800020287b: 41 b9 27 00 00 00    	movl	$39, %r9d
ffffff8000202881: 49 29 c9             	subq	%rcx, %r9
ffffff8000202884: 48 8b 15 85 e4 00 00 	movq	58501(%rip), %rdx       # 0xffffff8000210d10 <_ZN3log6LOGGER17h48756037b7073395E.1+0x110>
ffffff800020288b: 48 89 f7             	movq	%rsi, %rdi
ffffff800020288e: be 01 00 00 00       	movl	$1, %esi
ffffff8000202893: 31 c9                	xorl	%ecx, %ecx
ffffff8000202895: e8 e6 2e 00 00       	callq	0xffffff8000205780 <_ZN4core3fmt9Formatter12pad_integral17h43fecee5ed9182e1E>
ffffff800020289a: 48 81 c4 88 00 00 00 	addq	$136, %rsp
ffffff80002028a1: c3                   	retq
ffffff80002028a2: 48 8d 15 17 e0 00 00 	leaq	57367(%rip), %rdx       # 0xffffff80002108c0 <_ZN5axhal8platform6pc_x864time12CPU_FREQ_MHZ17hcbee90971ca93e77E.0+0x738>
ffffff80002028a9: be 80 00 00 00       	movl	$128, %esi
ffffff80002028ae: e8 3d 32 00 00       	callq	0xffffff8000205af0 <_ZN4core5slice5index26slice_start_index_len_fail17h2bd13147effaa2ceE>
ffffff80002028b3: 0f 0b                	ud2
ffffff80002028b5: cc                   	int3
ffffff80002028b6: cc                   	int3
ffffff80002028b7: cc                   	int3
ffffff80002028b8: cc                   	int3
ffffff80002028b9: cc                   	int3
ffffff80002028ba: cc                   	int3
ffffff80002028bb: cc                   	int3
ffffff80002028bc: cc                   	int3
ffffff80002028bd: cc                   	int3
ffffff80002028be: cc                   	int3
ffffff80002028bf: cc                   	int3

ffffff80002028c0 <_ZN45_$LT$$RF$T$u20$as$u20$core..fmt..LowerHex$GT$3fmt17hd3b8e179dc711370E>:
ffffff80002028c0: 48 81 ec 88 00 00 00 	subq	$136, %rsp
ffffff80002028c7: 48 8b 07             	movq	(%rdi), %rax
ffffff80002028ca: 48 8b 00             	movq	(%rax), %rax
ffffff80002028cd: 4c 8d 84 24 88 00 00 00      	leaq	136(%rsp), %r8
ffffff80002028d5: 45 31 c9             	xorl	%r9d, %r9d
ffffff80002028d8: 41 ba 30 00 00 00    	movl	$48, %r10d
ffffff80002028de: 48 89 c2             	movq	%rax, %rdx
ffffff80002028e1: 66 66 66 66 66 66 2e 0f 1f 84 00 00 00 00 00 	nopw	%cs:(%rax,%rax)
ffffff80002028f0: 48 c1 ea 04          	shrq	$4, %rdx
ffffff80002028f4: 89 c1                	movl	%eax, %ecx
ffffff80002028f6: 80 e1 0f             	andb	$15, %cl
ffffff80002028f9: 80 f9 0a             	cmpb	$10, %cl
ffffff80002028fc: bf 57 00 00 00       	movl	$87, %edi
ffffff8000202901: 41 0f 42 fa          	cmovbl	%r10d, %edi
ffffff8000202905: 40 00 cf             	addb	%cl, %dil
ffffff8000202908: 41 88 78 ff          	movb	%dil, -1(%r8)
ffffff800020290c: 49 ff c8             	decq	%r8
ffffff800020290f: 49 ff c1             	incq	%r9
ffffff8000202912: 48 83 f8 0f          	cmpq	$15, %rax
ffffff8000202916: 48 89 d0             	movq	%rdx, %rax
ffffff8000202919: 77 d5                	ja	0xffffff80002028f0 <_ZN45_$LT$$RF$T$u20$as$u20$core..fmt..LowerHex$GT$3fmt17hd3b8e179dc711370E+0x30>
ffffff800020291b: bf 80 00 00 00       	movl	$128, %edi
ffffff8000202920: 4c 29 cf             	subq	%r9, %rdi
ffffff8000202923: 48 81 ff 81 00 00 00 	cmpq	$129, %rdi
ffffff800020292a: 73 21                	jae	0xffffff800020294d <_ZN45_$LT$$RF$T$u20$as$u20$core..fmt..LowerHex$GT$3fmt17hd3b8e179dc711370E+0x8d>
ffffff800020292c: 48 8d 15 1b 7a 00 00 	leaq	31259(%rip), %rdx       # 0xffffff800020a34e <str.0+0x62e>
ffffff8000202933: b9 02 00 00 00       	movl	$2, %ecx
ffffff8000202938: 48 89 f7             	movq	%rsi, %rdi
ffffff800020293b: be 01 00 00 00       	movl	$1, %esi
ffffff8000202940: e8 3b 2e 00 00       	callq	0xffffff8000205780 <_ZN4core3fmt9Formatter12pad_integral17h43fecee5ed9182e1E>
ffffff8000202945: 48 81 c4 88 00 00 00 	addq	$136, %rsp
ffffff800020294c: c3                   	retq
ffffff800020294d: 48 8d 15 6c df 00 00 	leaq	57196(%rip), %rdx       # 0xffffff80002108c0 <_ZN5axhal8platform6pc_x864time12CPU_FREQ_MHZ17hcbee90971ca93e77E.0+0x738>
ffffff8000202954: be 80 00 00 00       	movl	$128, %esi
ffffff8000202959: e8 92 31 00 00       	callq	0xffffff8000205af0 <_ZN4core5slice5index26slice_start_index_len_fail17h2bd13147effaa2ceE>
ffffff800020295e: 0f 0b                	ud2

ffffff8000202960 <_ZN5axhal8platform6pc_x864time10init_early17hd4240019769cc964E>:
ffffff8000202960: 53                   	pushq	%rbx
ffffff8000202961: 48 83 ec 70          	subq	$112, %rsp
ffffff8000202965: 48 8d 7c 24 58       	leaq	88(%rsp), %rdi
ffffff800020296a: e8 31 5f 00 00       	callq	0xffffff80002088a0 <_ZN9raw_cpuid55CpuId$LT$raw_cpuid..native_cpuid..CpuIdReaderNative$GT$3new17h36285f2bc8151782E>
ffffff800020296f: 83 7c 24 68 16       	cmpl	$22, 104(%rsp)
ffffff8000202974: 0f 82 a3 00 00 00    	jb	0xffffff8000202a1d <_ZN5axhal8platform6pc_x864time10init_early17hd4240019769cc964E+0xbd>
ffffff800020297a: b8 16 00 00 00       	movl	$22, %eax
ffffff800020297f: 31 c9                	xorl	%ecx, %ecx
ffffff8000202981: 48 89 de             	movq	%rbx, %rsi
ffffff8000202984: 0f a2                	cpuid
ffffff8000202986: 48 87 f3             	xchgq	%rbx, %rsi
ffffff8000202989: 66 89 44 24 0e       	movw	%ax, 14(%rsp)
ffffff800020298e: 66 85 c0             	testw	%ax, %ax
ffffff8000202991: 0f 84 86 00 00 00    	je	0xffffff8000202a1d <_ZN5axhal8platform6pc_x864time10init_early17hd4240019769cc964E+0xbd>
ffffff8000202997: 48 8d 44 24 0e       	leaq	14(%rsp), %rax
ffffff800020299c: 48 89 44 24 18       	movq	%rax, 24(%rsp)
ffffff80002029a1: 48 8d 05 e8 41 00 00 	leaq	16872(%rip), %rax       # 0xffffff8000206b90 <_ZN4core3fmt3num3imp52_$LT$impl$u20$core..fmt..Display$u20$for$u20$u16$GT$3fmt17hf3ec0b6410e70552E>
ffffff80002029a8: 48 89 44 24 20       	movq	%rax, 32(%rsp)
ffffff80002029ad: 9c                   	pushfq
ffffff80002029ae: 5b                   	popq	%rbx
ffffff80002029af: fa                   	cli
ffffff80002029b0: 48 8d 44 24 08       	leaq	8(%rsp), %rax
ffffff80002029b5: 48 89 44 24 10       	movq	%rax, 16(%rsp)
ffffff80002029ba: 48 c7 44 24 28 00 00 00 00   	movq	$0, 40(%rsp)
ffffff80002029c3: 48 8d 05 de d7 00 00 	leaq	55262(%rip), %rax       # 0xffffff80002101a8 <_ZN5axhal8platform6pc_x864time12CPU_FREQ_MHZ17hcbee90971ca93e77E.0+0x20>
ffffff80002029ca: 48 89 44 24 38       	movq	%rax, 56(%rsp)
ffffff80002029cf: 48 c7 44 24 40 02 00 00 00   	movq	$2, 64(%rsp)
ffffff80002029d8: 48 8d 44 24 18       	leaq	24(%rsp), %rax
ffffff80002029dd: 48 89 44 24 48       	movq	%rax, 72(%rsp)
ffffff80002029e2: 48 c7 44 24 50 01 00 00 00   	movq	$1, 80(%rsp)
ffffff80002029eb: 48 8d 35 de da 00 00 	leaq	56030(%rip), %rsi       # 0xffffff80002104d0 <_ZN5axhal8platform6pc_x864time12CPU_FREQ_MHZ17hcbee90971ca93e77E.0+0x348>
ffffff80002029f2: 48 8d 7c 24 10       	leaq	16(%rsp), %rdi
ffffff80002029f7: 48 8d 54 24 28       	leaq	40(%rsp), %rdx
ffffff80002029fc: e8 bf 39 00 00       	callq	0xffffff80002063c0 <_ZN4core3fmt5write17h3e64ac24810c32e1E>
ffffff8000202a01: 84 c0                	testb	%al, %al
ffffff8000202a03: 75 2e                	jne	0xffffff8000202a33 <_ZN5axhal8platform6pc_x864time10init_early17hd4240019769cc964E+0xd3>
ffffff8000202a05: f7 c3 00 02 00 00    	testl	$512, %ebx              # imm = 0x200
ffffff8000202a0b: 75 03                	jne	0xffffff8000202a10 <_ZN5axhal8platform6pc_x864time10init_early17hd4240019769cc964E+0xb0>
ffffff8000202a0d: fa                   	cli
ffffff8000202a0e: eb 01                	jmp	0xffffff8000202a11 <_ZN5axhal8platform6pc_x864time10init_early17hd4240019769cc964E+0xb1>
ffffff8000202a10: fb                   	sti
ffffff8000202a11: 0f b7 44 24 0e       	movzwl	14(%rsp), %eax
ffffff8000202a16: 48 89 05 6b d7 00 00 	movq	%rax, 55147(%rip)       # 0xffffff8000210188 <_ZN5axhal8platform6pc_x864time12CPU_FREQ_MHZ17hcbee90971ca93e77E.0>
ffffff8000202a1d: 0f 31                	rdtsc
ffffff8000202a1f: 48 c1 e2 20          	shlq	$32, %rdx
ffffff8000202a23: 48 09 c2             	orq	%rax, %rdx
ffffff8000202a26: 48 89 15 e3 05 05 00 	movq	%rdx, 329187(%rip)      # 0xffffff8000253010 <_ZN5axhal8platform6pc_x864time9INIT_TICK17hea66eec51d641b35E.0>
ffffff8000202a2d: 48 83 c4 70          	addq	$112, %rsp
ffffff8000202a31: 5b                   	popq	%rbx
ffffff8000202a32: c3                   	retq
ffffff8000202a33: 48 8d 3d 40 85 00 00 	leaq	34112(%rip), %rdi       # 0xffffff800020af7a <_ZN4core7unicode12unicode_data15grapheme_extend7OFFSETS17ha79b4a14ed4d5bccE+0x322>
ffffff8000202a3a: 48 8d 0d 5f db 00 00 	leaq	56159(%rip), %rcx       # 0xffffff80002105a0 <_ZN5axhal8platform6pc_x864time12CPU_FREQ_MHZ17hcbee90971ca93e77E.0+0x418>
ffffff8000202a41: 4c 8d 05 78 db 00 00 	leaq	56184(%rip), %r8        # 0xffffff80002105c0 <_ZN5axhal8platform6pc_x864time12CPU_FREQ_MHZ17hcbee90971ca93e77E.0+0x438>
ffffff8000202a48: 48 8d 54 24 08       	leaq	8(%rsp), %rdx
ffffff8000202a4d: be 2b 00 00 00       	movl	$43, %esi
ffffff8000202a52: e8 f9 3f 00 00       	callq	0xffffff8000206a50 <_ZN4core6result13unwrap_failed17he358196271332538E>
ffffff8000202a57: 0f 0b                	ud2
ffffff8000202a59: cc                   	int3
ffffff8000202a5a: cc                   	int3
ffffff8000202a5b: cc                   	int3
ffffff8000202a5c: cc                   	int3
ffffff8000202a5d: cc                   	int3
ffffff8000202a5e: cc                   	int3
ffffff8000202a5f: cc                   	int3

ffffff8000202a60 <_ZN63_$LT$axhal..mem..MemRegionFlags$u20$as$u20$core..fmt..Debug$GT$3fmt17h95d3bccb79f875e8E>:
ffffff8000202a60: 55                   	pushq	%rbp
ffffff8000202a61: 41 57                	pushq	%r15
ffffff8000202a63: 41 56                	pushq	%r14
ffffff8000202a65: 41 55                	pushq	%r13
ffffff8000202a67: 41 54                	pushq	%r12
ffffff8000202a69: 53                   	pushq	%rbx
ffffff8000202a6a: 48 81 ec 98 00 00 00 	subq	$152, %rsp
ffffff8000202a71: 48 8b 1f             	movq	(%rdi), %rbx
ffffff8000202a74: 48 85 db             	testq	%rbx, %rbx
ffffff8000202a77: 0f 84 28 02 00 00    	je	0xffffff8000202ca5 <_ZN63_$LT$axhal..mem..MemRegionFlags$u20$as$u20$core..fmt..Debug$GT$3fmt17h95d3bccb79f875e8E+0x245>
ffffff8000202a7d: 48 8b 06             	movq	(%rsi), %rax
ffffff8000202a80: 48 89 44 24 08       	movq	%rax, 8(%rsp)
ffffff8000202a85: 48 8b 46 08          	movq	8(%rsi), %rax
ffffff8000202a89: 48 89 44 24 10       	movq	%rax, 16(%rsp)
ffffff8000202a8e: 31 d2                	xorl	%edx, %edx
ffffff8000202a90: 48 89 dd             	movq	%rbx, %rbp
ffffff8000202a93: 48 f7 d5             	notq	%rbp
ffffff8000202a96: 31 c0                	xorl	%eax, %eax
ffffff8000202a98: eb 53                	jmp	0xffffff8000202aed <_ZN63_$LT$axhal..mem..MemRegionFlags$u20$as$u20$core..fmt..Debug$GT$3fmt17h95d3bccb79f875e8E+0x8d>
ffffff8000202a9a: 66 0f 1f 44 00 00    	nopw	(%rax,%rax)
ffffff8000202aa0: ba 03 00 00 00       	movl	$3, %edx
ffffff8000202aa5: 48 8b 7c 24 08       	movq	8(%rsp), %rdi
ffffff8000202aaa: 48 8d 35 4f 70 00 00 	leaq	28751(%rip), %rsi       # 0xffffff8000209b00 <trap_handler_table+0xb00>
ffffff8000202ab1: 41 ff d5             	callq	*%r13
ffffff8000202ab4: 84 c0                	testb	%al, %al
ffffff8000202ab6: 0f 85 40 03 00 00    	jne	0xffffff8000202dfc <_ZN63_$LT$axhal..mem..MemRegionFlags$u20$as$u20$core..fmt..Debug$GT$3fmt17h95d3bccb79f875e8E+0x39c>
ffffff8000202abc: 4b 8d 04 7f          	leaq	(%r15,%r15,2), %rax
ffffff8000202ac0: 49 f7 d6             	notq	%r14
ffffff8000202ac3: 4c 21 f3             	andq	%r14, %rbx
ffffff8000202ac6: 48 8d 0d 73 d9 00 00 	leaq	55667(%rip), %rcx       # 0xffffff8000210440 <_ZN5axhal8platform6pc_x864time12CPU_FREQ_MHZ17hcbee90971ca93e77E.0+0x2b8>
ffffff8000202acd: 48 8b 34 c1          	movq	(%rcx,%rax,8), %rsi
ffffff8000202ad1: 48 8b 54 c1 08       	movq	8(%rcx,%rax,8), %rdx
ffffff8000202ad6: 48 8b 7c 24 08       	movq	8(%rsp), %rdi
ffffff8000202adb: 41 ff d5             	callq	*%r13
ffffff8000202ade: 89 c1                	movl	%eax, %ecx
ffffff8000202ae0: b0 01                	movb	$1, %al
ffffff8000202ae2: 4c 89 e2             	movq	%r12, %rdx
ffffff8000202ae5: 84 c9                	testb	%cl, %cl
ffffff8000202ae7: 0f 85 15 03 00 00    	jne	0xffffff8000202e02 <_ZN63_$LT$axhal..mem..MemRegionFlags$u20$as$u20$core..fmt..Debug$GT$3fmt17h95d3bccb79f875e8E+0x3a2>
ffffff8000202aed: b9 00 00 00 00       	movl	$0, %ecx
ffffff8000202af2: 48 83 fa 06          	cmpq	$6, %rdx
ffffff8000202af6: 48 0f 43 cb          	cmovaeq	%rbx, %rcx
ffffff8000202afa: 0f 83 46 02 00 00    	jae	0xffffff8000202d46 <_ZN63_$LT$axhal..mem..MemRegionFlags$u20$as$u20$core..fmt..Debug$GT$3fmt17h95d3bccb79f875e8E+0x2e6>
ffffff8000202b00: 48 85 db             	testq	%rbx, %rbx
ffffff8000202b03: 0f 84 3d 02 00 00    	je	0xffffff8000202d46 <_ZN63_$LT$axhal..mem..MemRegionFlags$u20$as$u20$core..fmt..Debug$GT$3fmt17h95d3bccb79f875e8E+0x2e6>
ffffff8000202b09: 4c 8d 7a 01          	leaq	1(%rdx), %r15
ffffff8000202b0d: 48 8d 0c 52          	leaq	(%rdx,%rdx,2), %rcx
ffffff8000202b11: 48 8d 35 28 d9 00 00 	leaq	55592(%rip), %rsi       # 0xffffff8000210440 <_ZN5axhal8platform6pc_x864time12CPU_FREQ_MHZ17hcbee90971ca93e77E.0+0x2b8>
ffffff8000202b18: 4c 8b 74 ce 10       	movq	16(%rsi,%rcx,8), %r14
ffffff8000202b1d: 49 85 ee             	testq	%rbp, %r14
ffffff8000202b20: 75 1e                	jne	0xffffff8000202b40 <_ZN63_$LT$axhal..mem..MemRegionFlags$u20$as$u20$core..fmt..Debug$GT$3fmt17h95d3bccb79f875e8E+0xe0>
ffffff8000202b22: 4d 89 fc             	movq	%r15, %r12
ffffff8000202b25: 49 89 d7             	movq	%rdx, %r15
ffffff8000202b28: 48 8b 4c 24 10       	movq	16(%rsp), %rcx
ffffff8000202b2d: 4c 8b 69 18          	movq	24(%rcx), %r13
ffffff8000202b31: a8 01                	testb	$1, %al
ffffff8000202b33: 74 87                	je	0xffffff8000202abc <_ZN63_$LT$axhal..mem..MemRegionFlags$u20$as$u20$core..fmt..Debug$GT$3fmt17h95d3bccb79f875e8E+0x5c>
ffffff8000202b35: e9 66 ff ff ff       	jmp	0xffffff8000202aa0 <_ZN63_$LT$axhal..mem..MemRegionFlags$u20$as$u20$core..fmt..Debug$GT$3fmt17h95d3bccb79f875e8E+0x40>
ffffff8000202b3a: 66 0f 1f 44 00 00    	nopw	(%rax,%rax)
ffffff8000202b40: b9 00 00 00 00       	movl	$0, %ecx
ffffff8000202b45: 49 83 ff 06          	cmpq	$6, %r15
ffffff8000202b49: 48 0f 43 cb          	cmovaeq	%rbx, %rcx
ffffff8000202b4d: 0f 83 f3 01 00 00    	jae	0xffffff8000202d46 <_ZN63_$LT$axhal..mem..MemRegionFlags$u20$as$u20$core..fmt..Debug$GT$3fmt17h95d3bccb79f875e8E+0x2e6>
ffffff8000202b53: 48 85 db             	testq	%rbx, %rbx
ffffff8000202b56: 0f 84 ea 01 00 00    	je	0xffffff8000202d46 <_ZN63_$LT$axhal..mem..MemRegionFlags$u20$as$u20$core..fmt..Debug$GT$3fmt17h95d3bccb79f875e8E+0x2e6>
ffffff8000202b5c: 48 8d 72 02          	leaq	2(%rdx), %rsi
ffffff8000202b60: 4b 8d 0c 7f          	leaq	(%r15,%r15,2), %rcx
ffffff8000202b64: 48 8d 3d d5 d8 00 00 	leaq	55509(%rip), %rdi       # 0xffffff8000210440 <_ZN5axhal8platform6pc_x864time12CPU_FREQ_MHZ17hcbee90971ca93e77E.0+0x2b8>
ffffff8000202b6b: 4c 8b 74 cf 10       	movq	16(%rdi,%rcx,8), %r14
ffffff8000202b70: 49 85 ee             	testq	%rbp, %r14
ffffff8000202b73: 75 1b                	jne	0xffffff8000202b90 <_ZN63_$LT$axhal..mem..MemRegionFlags$u20$as$u20$core..fmt..Debug$GT$3fmt17h95d3bccb79f875e8E+0x130>
ffffff8000202b75: 49 89 f4             	movq	%rsi, %r12
ffffff8000202b78: 48 8b 4c 24 10       	movq	16(%rsp), %rcx
ffffff8000202b7d: 4c 8b 69 18          	movq	24(%rcx), %r13
ffffff8000202b81: a8 01                	testb	$1, %al
ffffff8000202b83: 0f 84 33 ff ff ff    	je	0xffffff8000202abc <_ZN63_$LT$axhal..mem..MemRegionFlags$u20$as$u20$core..fmt..Debug$GT$3fmt17h95d3bccb79f875e8E+0x5c>
ffffff8000202b89: e9 12 ff ff ff       	jmp	0xffffff8000202aa0 <_ZN63_$LT$axhal..mem..MemRegionFlags$u20$as$u20$core..fmt..Debug$GT$3fmt17h95d3bccb79f875e8E+0x40>
ffffff8000202b8e: 66 90                	nop
ffffff8000202b90: b9 00 00 00 00       	movl	$0, %ecx
ffffff8000202b95: 48 83 fe 06          	cmpq	$6, %rsi
ffffff8000202b99: 48 0f 43 cb          	cmovaeq	%rbx, %rcx
ffffff8000202b9d: 0f 83 a3 01 00 00    	jae	0xffffff8000202d46 <_ZN63_$LT$axhal..mem..MemRegionFlags$u20$as$u20$core..fmt..Debug$GT$3fmt17h95d3bccb79f875e8E+0x2e6>
ffffff8000202ba3: 48 85 db             	testq	%rbx, %rbx
ffffff8000202ba6: 0f 84 9a 01 00 00    	je	0xffffff8000202d46 <_ZN63_$LT$axhal..mem..MemRegionFlags$u20$as$u20$core..fmt..Debug$GT$3fmt17h95d3bccb79f875e8E+0x2e6>
ffffff8000202bac: 4c 8d 7a 03          	leaq	3(%rdx), %r15
ffffff8000202bb0: 48 8d 0c 76          	leaq	(%rsi,%rsi,2), %rcx
ffffff8000202bb4: 48 8d 3d 85 d8 00 00 	leaq	55429(%rip), %rdi       # 0xffffff8000210440 <_ZN5axhal8platform6pc_x864time12CPU_FREQ_MHZ17hcbee90971ca93e77E.0+0x2b8>
ffffff8000202bbb: 4c 8b 74 cf 10       	movq	16(%rdi,%rcx,8), %r14
ffffff8000202bc0: 49 85 ee             	testq	%rbp, %r14
ffffff8000202bc3: 75 1c                	jne	0xffffff8000202be1 <_ZN63_$LT$axhal..mem..MemRegionFlags$u20$as$u20$core..fmt..Debug$GT$3fmt17h95d3bccb79f875e8E+0x181>
ffffff8000202bc5: 4d 89 fc             	movq	%r15, %r12
ffffff8000202bc8: 49 89 f7             	movq	%rsi, %r15
ffffff8000202bcb: 48 8b 4c 24 10       	movq	16(%rsp), %rcx
ffffff8000202bd0: 4c 8b 69 18          	movq	24(%rcx), %r13
ffffff8000202bd4: a8 01                	testb	$1, %al
ffffff8000202bd6: 0f 84 e0 fe ff ff    	je	0xffffff8000202abc <_ZN63_$LT$axhal..mem..MemRegionFlags$u20$as$u20$core..fmt..Debug$GT$3fmt17h95d3bccb79f875e8E+0x5c>
ffffff8000202bdc: e9 bf fe ff ff       	jmp	0xffffff8000202aa0 <_ZN63_$LT$axhal..mem..MemRegionFlags$u20$as$u20$core..fmt..Debug$GT$3fmt17h95d3bccb79f875e8E+0x40>
ffffff8000202be1: b9 00 00 00 00       	movl	$0, %ecx
ffffff8000202be6: 49 83 ff 06          	cmpq	$6, %r15
ffffff8000202bea: 48 0f 43 cb          	cmovaeq	%rbx, %rcx
ffffff8000202bee: 0f 83 52 01 00 00    	jae	0xffffff8000202d46 <_ZN63_$LT$axhal..mem..MemRegionFlags$u20$as$u20$core..fmt..Debug$GT$3fmt17h95d3bccb79f875e8E+0x2e6>
ffffff8000202bf4: 48 85 db             	testq	%rbx, %rbx
ffffff8000202bf7: 0f 84 49 01 00 00    	je	0xffffff8000202d46 <_ZN63_$LT$axhal..mem..MemRegionFlags$u20$as$u20$core..fmt..Debug$GT$3fmt17h95d3bccb79f875e8E+0x2e6>
ffffff8000202bfd: 48 8d 72 04          	leaq	4(%rdx), %rsi
ffffff8000202c01: 4b 8d 0c 7f          	leaq	(%r15,%r15,2), %rcx
ffffff8000202c05: 48 8d 3d 34 d8 00 00 	leaq	55348(%rip), %rdi       # 0xffffff8000210440 <_ZN5axhal8platform6pc_x864time12CPU_FREQ_MHZ17hcbee90971ca93e77E.0+0x2b8>
ffffff8000202c0c: 4c 8b 74 cf 10       	movq	16(%rdi,%rcx,8), %r14
ffffff8000202c11: 49 85 ee             	testq	%rbp, %r14
ffffff8000202c14: 0f 84 5b ff ff ff    	je	0xffffff8000202b75 <_ZN63_$LT$axhal..mem..MemRegionFlags$u20$as$u20$core..fmt..Debug$GT$3fmt17h95d3bccb79f875e8E+0x115>
ffffff8000202c1a: b9 00 00 00 00       	movl	$0, %ecx
ffffff8000202c1f: 48 83 fe 06          	cmpq	$6, %rsi
ffffff8000202c23: 48 0f 43 cb          	cmovaeq	%rbx, %rcx
ffffff8000202c27: 0f 83 19 01 00 00    	jae	0xffffff8000202d46 <_ZN63_$LT$axhal..mem..MemRegionFlags$u20$as$u20$core..fmt..Debug$GT$3fmt17h95d3bccb79f875e8E+0x2e6>
ffffff8000202c2d: 48 85 db             	testq	%rbx, %rbx
ffffff8000202c30: 0f 84 10 01 00 00    	je	0xffffff8000202d46 <_ZN63_$LT$axhal..mem..MemRegionFlags$u20$as$u20$core..fmt..Debug$GT$3fmt17h95d3bccb79f875e8E+0x2e6>
ffffff8000202c36: 4c 8d 7a 05          	leaq	5(%rdx), %r15
ffffff8000202c3a: 48 8d 0c 76          	leaq	(%rsi,%rsi,2), %rcx
ffffff8000202c3e: 48 8d 3d fb d7 00 00 	leaq	55291(%rip), %rdi       # 0xffffff8000210440 <_ZN5axhal8platform6pc_x864time12CPU_FREQ_MHZ17hcbee90971ca93e77E.0+0x2b8>
ffffff8000202c45: 4c 8b 74 cf 10       	movq	16(%rdi,%rcx,8), %r14
ffffff8000202c4a: 49 85 ee             	testq	%rbp, %r14
ffffff8000202c4d: 0f 84 72 ff ff ff    	je	0xffffff8000202bc5 <_ZN63_$LT$axhal..mem..MemRegionFlags$u20$as$u20$core..fmt..Debug$GT$3fmt17h95d3bccb79f875e8E+0x165>
ffffff8000202c53: b9 00 00 00 00       	movl	$0, %ecx
ffffff8000202c58: 49 83 ff 06          	cmpq	$6, %r15
ffffff8000202c5c: 48 0f 43 cb          	cmovaeq	%rbx, %rcx
ffffff8000202c60: 0f 83 e0 00 00 00    	jae	0xffffff8000202d46 <_ZN63_$LT$axhal..mem..MemRegionFlags$u20$as$u20$core..fmt..Debug$GT$3fmt17h95d3bccb79f875e8E+0x2e6>
ffffff8000202c66: 48 85 db             	testq	%rbx, %rbx
ffffff8000202c69: 0f 84 d7 00 00 00    	je	0xffffff8000202d46 <_ZN63_$LT$axhal..mem..MemRegionFlags$u20$as$u20$core..fmt..Debug$GT$3fmt17h95d3bccb79f875e8E+0x2e6>
ffffff8000202c6f: 4b 8d 0c 7f          	leaq	(%r15,%r15,2), %rcx
ffffff8000202c73: 48 8d 35 c6 d7 00 00 	leaq	55238(%rip), %rsi       # 0xffffff8000210440 <_ZN5axhal8platform6pc_x864time12CPU_FREQ_MHZ17hcbee90971ca93e77E.0+0x2b8>
ffffff8000202c7a: 4c 8b 74 ce 10       	movq	16(%rsi,%rcx,8), %r14
ffffff8000202c7f: 49 85 ee             	testq	%rbp, %r14
ffffff8000202c82: 0f 85 8c 01 00 00    	jne	0xffffff8000202e14 <_ZN63_$LT$axhal..mem..MemRegionFlags$u20$as$u20$core..fmt..Debug$GT$3fmt17h95d3bccb79f875e8E+0x3b4>
ffffff8000202c88: 48 83 c2 06          	addq	$6, %rdx
ffffff8000202c8c: 49 89 d4             	movq	%rdx, %r12
ffffff8000202c8f: 48 8b 4c 24 10       	movq	16(%rsp), %rcx
ffffff8000202c94: 4c 8b 69 18          	movq	24(%rcx), %r13
ffffff8000202c98: a8 01                	testb	$1, %al
ffffff8000202c9a: 0f 84 1c fe ff ff    	je	0xffffff8000202abc <_ZN63_$LT$axhal..mem..MemRegionFlags$u20$as$u20$core..fmt..Debug$GT$3fmt17h95d3bccb79f875e8E+0x5c>
ffffff8000202ca0: e9 fb fd ff ff       	jmp	0xffffff8000202aa0 <_ZN63_$LT$axhal..mem..MemRegionFlags$u20$as$u20$core..fmt..Debug$GT$3fmt17h95d3bccb79f875e8E+0x40>
ffffff8000202ca5: 48 8d 05 cc 6d 00 00 	leaq	28108(%rip), %rax       # 0xffffff8000209a78 <trap_handler_table+0xa78>
ffffff8000202cac: 48 89 44 24 20       	movq	%rax, 32(%rsp)
ffffff8000202cb1: 48 8d 05 58 53 00 00 	leaq	21336(%rip), %rax       # 0xffffff8000208010 <_ZN4core3fmt3num53_$LT$impl$u20$core..fmt..LowerHex$u20$for$u20$i64$GT$3fmt17h4fa87f856a4ce963E>
ffffff8000202cb8: 48 89 44 24 28       	movq	%rax, 40(%rsp)
ffffff8000202cbd: 48 c7 44 24 30 02 00 00 00   	movq	$2, 48(%rsp)
ffffff8000202cc6: 48 c7 44 24 40 02 00 00 00   	movq	$2, 64(%rsp)
ffffff8000202ccf: 48 b8 04 00 00 00 20 00 00 00	movabsq	$137438953476, %rax # imm = 0x2000000004
ffffff8000202cd9: 48 89 44 24 50       	movq	%rax, 80(%rsp)
ffffff8000202cde: c6 44 24 58 03       	movb	$3, 88(%rsp)
ffffff8000202ce3: 48 c7 44 24 60 00 00 00 00   	movq	$0, 96(%rsp)
ffffff8000202cec: 48 8b 3e             	movq	(%rsi), %rdi
ffffff8000202cef: 48 8b 76 08          	movq	8(%rsi), %rsi
ffffff8000202cf3: 48 8d 44 24 30       	leaq	48(%rsp), %rax
ffffff8000202cf8: 48 89 44 24 68       	movq	%rax, 104(%rsp)
ffffff8000202cfd: 48 c7 44 24 70 01 00 00 00   	movq	$1, 112(%rsp)
ffffff8000202d06: 48 8d 05 0b df 00 00 	leaq	57099(%rip), %rax       # 0xffffff8000210c18 <_ZN3log6LOGGER17h48756037b7073395E.1+0x18>
ffffff8000202d0d: 48 89 44 24 78       	movq	%rax, 120(%rsp)
ffffff8000202d12: 48 c7 84 24 80 00 00 00 01 00 00 00  	movq	$1, 128(%rsp)
ffffff8000202d1e: 48 8d 44 24 20       	leaq	32(%rsp), %rax
ffffff8000202d23: 48 89 84 24 88 00 00 00      	movq	%rax, 136(%rsp)
ffffff8000202d2b: 48 c7 84 24 90 00 00 00 01 00 00 00  	movq	$1, 144(%rsp)
ffffff8000202d37: 48 8d 54 24 68       	leaq	104(%rsp), %rdx
ffffff8000202d3c: e8 7f 36 00 00       	callq	0xffffff80002063c0 <_ZN4core3fmt5write17h3e64ac24810c32e1E>
ffffff8000202d41: e9 bc 00 00 00       	jmp	0xffffff8000202e02 <_ZN63_$LT$axhal..mem..MemRegionFlags$u20$as$u20$core..fmt..Debug$GT$3fmt17h95d3bccb79f875e8E+0x3a2>
ffffff8000202d46: 48 89 4c 24 18       	movq	%rcx, 24(%rsp)
ffffff8000202d4b: 48 85 c9             	testq	%rcx, %rcx
ffffff8000202d4e: 0f 84 ac 00 00 00    	je	0xffffff8000202e00 <_ZN63_$LT$axhal..mem..MemRegionFlags$u20$as$u20$core..fmt..Debug$GT$3fmt17h95d3bccb79f875e8E+0x3a0>
ffffff8000202d54: 48 8b 4c 24 10       	movq	16(%rsp), %rcx
ffffff8000202d59: 48 8b 59 18          	movq	24(%rcx), %rbx
ffffff8000202d5d: a8 01                	testb	$1, %al
ffffff8000202d5f: 74 1b                	je	0xffffff8000202d7c <_ZN63_$LT$axhal..mem..MemRegionFlags$u20$as$u20$core..fmt..Debug$GT$3fmt17h95d3bccb79f875e8E+0x31c>
ffffff8000202d61: 48 8d 35 98 6d 00 00 	leaq	28056(%rip), %rsi       # 0xffffff8000209b00 <trap_handler_table+0xb00>
ffffff8000202d68: ba 03 00 00 00       	movl	$3, %edx
ffffff8000202d6d: 48 8b 7c 24 08       	movq	8(%rsp), %rdi
ffffff8000202d72: ff d3                	callq	*%rbx
ffffff8000202d74: 84 c0                	testb	%al, %al
ffffff8000202d76: 0f 85 80 00 00 00    	jne	0xffffff8000202dfc <_ZN63_$LT$axhal..mem..MemRegionFlags$u20$as$u20$core..fmt..Debug$GT$3fmt17h95d3bccb79f875e8E+0x39c>
ffffff8000202d7c: 48 8d 35 cb 75 00 00 	leaq	30155(%rip), %rsi       # 0xffffff800020a34e <str.0+0x62e>
ffffff8000202d83: ba 02 00 00 00       	movl	$2, %edx
ffffff8000202d88: 48 8b 7c 24 08       	movq	8(%rsp), %rdi
ffffff8000202d8d: ff d3                	callq	*%rbx
ffffff8000202d8f: 84 c0                	testb	%al, %al
ffffff8000202d91: 75 69                	jne	0xffffff8000202dfc <_ZN63_$LT$axhal..mem..MemRegionFlags$u20$as$u20$core..fmt..Debug$GT$3fmt17h95d3bccb79f875e8E+0x39c>
ffffff8000202d93: 48 8d 44 24 18       	leaq	24(%rsp), %rax
ffffff8000202d98: 48 89 44 24 20       	movq	%rax, 32(%rsp)
ffffff8000202d9d: 48 8d 44 24 20       	leaq	32(%rsp), %rax
ffffff8000202da2: 48 89 44 24 68       	movq	%rax, 104(%rsp)
ffffff8000202da7: 48 8d 05 12 fb ff ff 	leaq	-1262(%rip), %rax       # 0xffffff80002028c0 <_ZN45_$LT$$RF$T$u20$as$u20$core..fmt..LowerHex$GT$3fmt17hd3b8e179dc711370E>
ffffff8000202dae: 48 89 44 24 70       	movq	%rax, 112(%rsp)
ffffff8000202db3: 48 c7 44 24 30 00 00 00 00   	movq	$0, 48(%rsp)
ffffff8000202dbc: 48 8d 05 55 de 00 00 	leaq	56917(%rip), %rax       # 0xffffff8000210c18 <_ZN3log6LOGGER17h48756037b7073395E.1+0x18>
ffffff8000202dc3: 48 89 44 24 40       	movq	%rax, 64(%rsp)
ffffff8000202dc8: 48 c7 44 24 48 01 00 00 00   	movq	$1, 72(%rsp)
ffffff8000202dd1: 48 8d 44 24 68       	leaq	104(%rsp), %rax
ffffff8000202dd6: 48 89 44 24 50       	movq	%rax, 80(%rsp)
ffffff8000202ddb: 48 c7 44 24 58 01 00 00 00   	movq	$1, 88(%rsp)
ffffff8000202de4: 48 8d 54 24 30       	leaq	48(%rsp), %rdx
ffffff8000202de9: 48 8b 7c 24 08       	movq	8(%rsp), %rdi
ffffff8000202dee: 48 8b 74 24 10       	movq	16(%rsp), %rsi
ffffff8000202df3: e8 c8 35 00 00       	callq	0xffffff80002063c0 <_ZN4core3fmt5write17h3e64ac24810c32e1E>
ffffff8000202df8: 84 c0                	testb	%al, %al
ffffff8000202dfa: 74 04                	je	0xffffff8000202e00 <_ZN63_$LT$axhal..mem..MemRegionFlags$u20$as$u20$core..fmt..Debug$GT$3fmt17h95d3bccb79f875e8E+0x3a0>
ffffff8000202dfc: b0 01                	movb	$1, %al
ffffff8000202dfe: eb 02                	jmp	0xffffff8000202e02 <_ZN63_$LT$axhal..mem..MemRegionFlags$u20$as$u20$core..fmt..Debug$GT$3fmt17h95d3bccb79f875e8E+0x3a2>
ffffff8000202e00: 31 c0                	xorl	%eax, %eax
ffffff8000202e02: 48 81 c4 98 00 00 00 	addq	$152, %rsp
ffffff8000202e09: 5b                   	popq	%rbx
ffffff8000202e0a: 41 5c                	popq	%r12
ffffff8000202e0c: 41 5d                	popq	%r13
ffffff8000202e0e: 41 5e                	popq	%r14
ffffff8000202e10: 41 5f                	popq	%r15
ffffff8000202e12: 5d                   	popq	%rbp
ffffff8000202e13: c3                   	retq
ffffff8000202e14: 48 89 5c 24 18       	movq	%rbx, 24(%rsp)
ffffff8000202e19: 48 8b 4c 24 10       	movq	16(%rsp), %rcx
ffffff8000202e1e: 48 8b 59 18          	movq	24(%rcx), %rbx
ffffff8000202e22: a8 01                	testb	$1, %al
ffffff8000202e24: 0f 85 37 ff ff ff    	jne	0xffffff8000202d61 <_ZN63_$LT$axhal..mem..MemRegionFlags$u20$as$u20$core..fmt..Debug$GT$3fmt17h95d3bccb79f875e8E+0x301>
ffffff8000202e2a: e9 4d ff ff ff       	jmp	0xffffff8000202d7c <_ZN63_$LT$axhal..mem..MemRegionFlags$u20$as$u20$core..fmt..Debug$GT$3fmt17h95d3bccb79f875e8E+0x31c>
ffffff8000202e2f: cc                   	int3

ffffff8000202e30 <_ZN5axhal8platform6pc_x869uart165504init17ha15ed6d78b6d5783E>:
ffffff8000202e30: 50                   	pushq	%rax
ffffff8000202e31: 9c                   	pushfq
ffffff8000202e32: 59                   	popq	%rcx
ffffff8000202e33: fa                   	cli
ffffff8000202e34: 66 ba f9 03          	movw	$1017, %dx              # imm = 0x3F9
ffffff8000202e38: 31 c0                	xorl	%eax, %eax
ffffff8000202e3a: ee                   	outb	%al, %dx
ffffff8000202e3b: 66 ba fb 03          	movw	$1019, %dx              # imm = 0x3FB
ffffff8000202e3f: b0 80                	movb	$-128, %al
ffffff8000202e41: ee                   	outb	%al, %dx
ffffff8000202e42: 66 ba f8 03          	movw	$1016, %dx              # imm = 0x3F8
ffffff8000202e46: b0 01                	movb	$1, %al
ffffff8000202e48: ee                   	outb	%al, %dx
ffffff8000202e49: 66 ba f9 03          	movw	$1017, %dx              # imm = 0x3F9
ffffff8000202e4d: 31 c0                	xorl	%eax, %eax
ffffff8000202e4f: ee                   	outb	%al, %dx
ffffff8000202e50: 66 ba fb 03          	movw	$1019, %dx              # imm = 0x3FB
ffffff8000202e54: b0 03                	movb	$3, %al
ffffff8000202e56: ee                   	outb	%al, %dx
ffffff8000202e57: 66 ba fa 03          	movw	$1018, %dx              # imm = 0x3FA
ffffff8000202e5b: b0 c7                	movb	$-57, %al
ffffff8000202e5d: ee                   	outb	%al, %dx
ffffff8000202e5e: 66 ba fc 03          	movw	$1020, %dx              # imm = 0x3FC
ffffff8000202e62: b0 0b                	movb	$11, %al
ffffff8000202e64: ee                   	outb	%al, %dx
ffffff8000202e65: f7 c1 00 02 00 00    	testl	$512, %ecx              # imm = 0x200
ffffff8000202e6b: 75 03                	jne	0xffffff8000202e70 <_ZN5axhal8platform6pc_x869uart165504init17ha15ed6d78b6d5783E+0x40>
ffffff8000202e6d: fa                   	cli
ffffff8000202e6e: 58                   	popq	%rax
ffffff8000202e6f: c3                   	retq
ffffff8000202e70: fb                   	sti
ffffff8000202e71: 58                   	popq	%rax
ffffff8000202e72: c3                   	retq
ffffff8000202e73: cc                   	int3
ffffff8000202e74: cc                   	int3
ffffff8000202e75: cc                   	int3
ffffff8000202e76: cc                   	int3
ffffff8000202e77: cc                   	int3
ffffff8000202e78: cc                   	int3
ffffff8000202e79: cc                   	int3
ffffff8000202e7a: cc                   	int3
ffffff8000202e7b: cc                   	int3
ffffff8000202e7c: cc                   	int3
ffffff8000202e7d: cc                   	int3
ffffff8000202e7e: cc                   	int3
ffffff8000202e7f: cc                   	int3

ffffff8000202e80 <_ZN50_$LT$$RF$mut$u20$T$u20$as$u20$core..fmt..Debug$GT$3fmt17h346f578aafa36848E>:
ffffff8000202e80: 55                   	pushq	%rbp
ffffff8000202e81: 41 57                	pushq	%r15
ffffff8000202e83: 41 56                	pushq	%r14
ffffff8000202e85: 41 55                	pushq	%r13
ffffff8000202e87: 41 54                	pushq	%r12
ffffff8000202e89: 53                   	pushq	%rbx
ffffff8000202e8a: 48 81 ec c8 01 00 00 	subq	$456, %rsp              # imm = 0x1C8
ffffff8000202e91: 49 89 f4             	movq	%rsi, %r12
ffffff8000202e94: 48 8b 07             	movq	(%rdi), %rax
ffffff8000202e97: 48 8d 50 08          	leaq	8(%rax), %rdx
ffffff8000202e9b: 48 8d 88 a8 00 00 00 	leaq	168(%rax), %rcx
ffffff8000202ea2: 48 89 4c 24 60       	movq	%rcx, 96(%rsp)
ffffff8000202ea7: 48 89 44 24 68       	movq	%rax, 104(%rsp)
ffffff8000202eac: 48 8d 0d 2d d5 00 00 	leaq	54573(%rip), %rcx       # 0xffffff80002103e0 <_ZN5axhal8platform6pc_x864time12CPU_FREQ_MHZ17hcbee90971ca93e77E.0+0x258>
ffffff8000202eb3: 48 89 4c 24 70       	movq	%rcx, 112(%rsp)
ffffff8000202eb8: 48 89 54 24 78       	movq	%rdx, 120(%rsp)
ffffff8000202ebd: 48 8d 50 10          	leaq	16(%rax), %rdx
ffffff8000202ec1: 48 89 8c 24 80 00 00 00      	movq	%rcx, 128(%rsp)
ffffff8000202ec9: 48 89 94 24 88 00 00 00      	movq	%rdx, 136(%rsp)
ffffff8000202ed1: 48 8d 50 18          	leaq	24(%rax), %rdx
ffffff8000202ed5: 48 89 8c 24 90 00 00 00      	movq	%rcx, 144(%rsp)
ffffff8000202edd: 48 89 94 24 98 00 00 00      	movq	%rdx, 152(%rsp)
ffffff8000202ee5: 48 8d 50 20          	leaq	32(%rax), %rdx
ffffff8000202ee9: 48 89 8c 24 a0 00 00 00      	movq	%rcx, 160(%rsp)
ffffff8000202ef1: 48 89 94 24 a8 00 00 00      	movq	%rdx, 168(%rsp)
ffffff8000202ef9: 48 8d 50 28          	leaq	40(%rax), %rdx
ffffff8000202efd: 48 89 8c 24 b0 00 00 00      	movq	%rcx, 176(%rsp)
ffffff8000202f05: 48 89 94 24 b8 00 00 00      	movq	%rdx, 184(%rsp)
ffffff8000202f0d: 48 8d 50 30          	leaq	48(%rax), %rdx
ffffff8000202f11: 48 89 8c 24 c0 00 00 00      	movq	%rcx, 192(%rsp)
ffffff8000202f19: 48 89 94 24 c8 00 00 00      	movq	%rdx, 200(%rsp)
ffffff8000202f21: 48 8d 50 38          	leaq	56(%rax), %rdx
ffffff8000202f25: 48 89 8c 24 d0 00 00 00      	movq	%rcx, 208(%rsp)
ffffff8000202f2d: 48 89 94 24 d8 00 00 00      	movq	%rdx, 216(%rsp)
ffffff8000202f35: 48 8d 50 40          	leaq	64(%rax), %rdx
ffffff8000202f39: 48 89 8c 24 e0 00 00 00      	movq	%rcx, 224(%rsp)
ffffff8000202f41: 48 89 94 24 e8 00 00 00      	movq	%rdx, 232(%rsp)
ffffff8000202f49: 48 8d 50 48          	leaq	72(%rax), %rdx
ffffff8000202f4d: 48 89 8c 24 f0 00 00 00      	movq	%rcx, 240(%rsp)
ffffff8000202f55: 48 89 94 24 f8 00 00 00      	movq	%rdx, 248(%rsp)
ffffff8000202f5d: 48 8d 50 50          	leaq	80(%rax), %rdx
ffffff8000202f61: 48 89 8c 24 00 01 00 00      	movq	%rcx, 256(%rsp)
ffffff8000202f69: 48 89 94 24 08 01 00 00      	movq	%rdx, 264(%rsp)
ffffff8000202f71: 48 8d 50 58          	leaq	88(%rax), %rdx
ffffff8000202f75: 48 89 8c 24 10 01 00 00      	movq	%rcx, 272(%rsp)
ffffff8000202f7d: 48 89 94 24 18 01 00 00      	movq	%rdx, 280(%rsp)
ffffff8000202f85: 48 8d 50 60          	leaq	96(%rax), %rdx
ffffff8000202f89: 48 89 8c 24 20 01 00 00      	movq	%rcx, 288(%rsp)
ffffff8000202f91: 48 89 94 24 28 01 00 00      	movq	%rdx, 296(%rsp)
ffffff8000202f99: 48 8d 50 68          	leaq	104(%rax), %rdx
ffffff8000202f9d: 48 89 8c 24 30 01 00 00      	movq	%rcx, 304(%rsp)
ffffff8000202fa5: 48 89 94 24 38 01 00 00      	movq	%rdx, 312(%rsp)
ffffff8000202fad: 48 8d 50 70          	leaq	112(%rax), %rdx
ffffff8000202fb1: 48 89 8c 24 40 01 00 00      	movq	%rcx, 320(%rsp)
ffffff8000202fb9: 48 89 94 24 48 01 00 00      	movq	%rdx, 328(%rsp)
ffffff8000202fc1: 48 8d 50 78          	leaq	120(%rax), %rdx
ffffff8000202fc5: 48 89 8c 24 50 01 00 00      	movq	%rcx, 336(%rsp)
ffffff8000202fcd: 48 89 94 24 58 01 00 00      	movq	%rdx, 344(%rsp)
ffffff8000202fd5: 48 8d 90 80 00 00 00 	leaq	128(%rax), %rdx
ffffff8000202fdc: 48 89 8c 24 60 01 00 00      	movq	%rcx, 352(%rsp)
ffffff8000202fe4: 48 89 94 24 68 01 00 00      	movq	%rdx, 360(%rsp)
ffffff8000202fec: 48 8d 90 88 00 00 00 	leaq	136(%rax), %rdx
ffffff8000202ff3: 48 89 8c 24 70 01 00 00      	movq	%rcx, 368(%rsp)
ffffff8000202ffb: 48 89 94 24 78 01 00 00      	movq	%rdx, 376(%rsp)
ffffff8000203003: 48 8d 90 90 00 00 00 	leaq	144(%rax), %rdx
ffffff800020300a: 48 89 8c 24 80 01 00 00      	movq	%rcx, 384(%rsp)
ffffff8000203012: 48 89 94 24 88 01 00 00      	movq	%rdx, 392(%rsp)
ffffff800020301a: 48 8d 90 98 00 00 00 	leaq	152(%rax), %rdx
ffffff8000203021: 48 89 8c 24 90 01 00 00      	movq	%rcx, 400(%rsp)
ffffff8000203029: 48 89 94 24 98 01 00 00      	movq	%rdx, 408(%rsp)
ffffff8000203031: 48 8d 80 a0 00 00 00 	leaq	160(%rax), %rax
ffffff8000203038: 48 89 8c 24 a0 01 00 00      	movq	%rcx, 416(%rsp)
ffffff8000203040: 48 89 84 24 a8 01 00 00      	movq	%rax, 424(%rsp)
ffffff8000203048: 48 89 8c 24 b0 01 00 00      	movq	%rcx, 432(%rsp)
ffffff8000203050: 48 8d 44 24 60       	leaq	96(%rsp), %rax
ffffff8000203055: 48 89 84 24 b8 01 00 00      	movq	%rax, 440(%rsp)
ffffff800020305d: 48 8d 05 9c d3 00 00 	leaq	54172(%rip), %rax       # 0xffffff8000210400 <_ZN5axhal8platform6pc_x864time12CPU_FREQ_MHZ17hcbee90971ca93e77E.0+0x278>
ffffff8000203064: 48 89 84 24 c0 01 00 00      	movq	%rax, 448(%rsp)
ffffff800020306c: 48 8b 3e             	movq	(%rsi), %rdi
ffffff800020306f: 48 8b 46 08          	movq	8(%rsi), %rax
ffffff8000203073: 48 8d 35 a5 6e 00 00 	leaq	28325(%rip), %rsi       # 0xffffff8000209f1f <str.0+0x1ff>
ffffff800020307a: ba 09 00 00 00       	movl	$9, %edx
ffffff800020307f: ff 50 18             	callq	*24(%rax)
ffffff8000203082: b3 01                	movb	$1, %bl
ffffff8000203084: 84 c0                	testb	%al, %al
ffffff8000203086: 0f 85 7a 01 00 00    	jne	0xffffff8000203206 <_ZN50_$LT$$RF$mut$u20$T$u20$as$u20$core..fmt..Debug$GT$3fmt17h346f578aafa36848E+0x386>
ffffff800020308c: 41 f6 44 24 30 04    	testb	$4, 48(%r12)
ffffff8000203092: 75 75                	jne	0xffffff8000203109 <_ZN50_$LT$$RF$mut$u20$T$u20$as$u20$core..fmt..Debug$GT$3fmt17h346f578aafa36848E+0x289>
ffffff8000203094: 49 8b 3c 24          	movq	(%r12), %rdi
ffffff8000203098: 49 8b 44 24 08       	movq	8(%r12), %rax
ffffff800020309d: 48 8d 35 85 72 00 00 	leaq	29317(%rip), %rsi       # 0xffffff800020a329 <str.0+0x609>
ffffff80002030a4: ba 03 00 00 00       	movl	$3, %edx
ffffff80002030a9: ff 50 18             	callq	*24(%rax)
ffffff80002030ac: 84 c0                	testb	%al, %al
ffffff80002030ae: 0f 85 52 01 00 00    	jne	0xffffff8000203206 <_ZN50_$LT$$RF$mut$u20$T$u20$as$u20$core..fmt..Debug$GT$3fmt17h346f578aafa36848E+0x386>
ffffff80002030b4: 49 8b 3c 24          	movq	(%r12), %rdi
ffffff80002030b8: 49 8b 44 24 08       	movq	8(%r12), %rax
ffffff80002030bd: 48 8d 35 10 6e 00 00 	leaq	28176(%rip), %rsi       # 0xffffff8000209ed4 <str.0+0x1b4>
ffffff80002030c4: ba 03 00 00 00       	movl	$3, %edx
ffffff80002030c9: ff 50 18             	callq	*24(%rax)
ffffff80002030cc: 84 c0                	testb	%al, %al
ffffff80002030ce: 0f 85 32 01 00 00    	jne	0xffffff8000203206 <_ZN50_$LT$$RF$mut$u20$T$u20$as$u20$core..fmt..Debug$GT$3fmt17h346f578aafa36848E+0x386>
ffffff80002030d4: 49 8b 3c 24          	movq	(%r12), %rdi
ffffff80002030d8: 49 8b 44 24 08       	movq	8(%r12), %rax
ffffff80002030dd: 48 8d 35 3c 72 00 00 	leaq	29244(%rip), %rsi       # 0xffffff800020a320 <str.0+0x600>
ffffff80002030e4: ba 02 00 00 00       	movl	$2, %edx
ffffff80002030e9: ff 50 18             	callq	*24(%rax)
ffffff80002030ec: 84 c0                	testb	%al, %al
ffffff80002030ee: 0f 85 12 01 00 00    	jne	0xffffff8000203206 <_ZN50_$LT$$RF$mut$u20$T$u20$as$u20$core..fmt..Debug$GT$3fmt17h346f578aafa36848E+0x386>
ffffff80002030f4: 48 8b 7c 24 68       	movq	104(%rsp), %rdi
ffffff80002030f9: 48 8b 44 24 70       	movq	112(%rsp), %rax
ffffff80002030fe: 4c 89 e6             	movq	%r12, %rsi
ffffff8000203101: ff 50 18             	callq	*24(%rax)
ffffff8000203104: e9 fb 00 00 00       	jmp	0xffffff8000203204 <_ZN50_$LT$$RF$mut$u20$T$u20$as$u20$core..fmt..Debug$GT$3fmt17h346f578aafa36848E+0x384>
ffffff8000203109: 49 8b 3c 24          	movq	(%r12), %rdi
ffffff800020310d: 49 8b 44 24 08       	movq	8(%r12), %rax
ffffff8000203112: 48 8d 35 09 72 00 00 	leaq	29193(%rip), %rsi       # 0xffffff800020a322 <str.0+0x602>
ffffff8000203119: ba 03 00 00 00       	movl	$3, %edx
ffffff800020311e: ff 50 18             	callq	*24(%rax)
ffffff8000203121: 84 c0                	testb	%al, %al
ffffff8000203123: 0f 85 dd 00 00 00    	jne	0xffffff8000203206 <_ZN50_$LT$$RF$mut$u20$T$u20$as$u20$core..fmt..Debug$GT$3fmt17h346f578aafa36848E+0x386>
ffffff8000203129: 45 8b 44 24 30       	movl	48(%r12), %r8d
ffffff800020312e: c6 44 24 07 01       	movb	$1, 7(%rsp)
ffffff8000203133: 49 8b 0c 24          	movq	(%r12), %rcx
ffffff8000203137: 49 8b 54 24 08       	movq	8(%r12), %rdx
ffffff800020313c: 48 89 4c 24 08       	movq	%rcx, 8(%rsp)
ffffff8000203141: 48 89 54 24 10       	movq	%rdx, 16(%rsp)
ffffff8000203146: 48 8d 4c 24 07       	leaq	7(%rsp), %rcx
ffffff800020314b: 48 89 4c 24 18       	movq	%rcx, 24(%rsp)
ffffff8000203150: 41 8b 4c 24 34       	movl	52(%r12), %ecx
ffffff8000203155: 41 0f b6 54 24 38    	movzbl	56(%r12), %edx
ffffff800020315b: 49 8b 74 24 10       	movq	16(%r12), %rsi
ffffff8000203160: 49 8b 7c 24 18       	movq	24(%r12), %rdi
ffffff8000203165: 49 8b 44 24 20       	movq	32(%r12), %rax
ffffff800020316a: 4d 8b 4c 24 28       	movq	40(%r12), %r9
ffffff800020316f: 44 89 44 24 50       	movl	%r8d, 80(%rsp)
ffffff8000203174: 89 4c 24 54          	movl	%ecx, 84(%rsp)
ffffff8000203178: 88 54 24 58          	movb	%dl, 88(%rsp)
ffffff800020317c: 48 89 74 24 30       	movq	%rsi, 48(%rsp)
ffffff8000203181: 48 89 7c 24 38       	movq	%rdi, 56(%rsp)
ffffff8000203186: 48 89 44 24 40       	movq	%rax, 64(%rsp)
ffffff800020318b: 4c 89 4c 24 48       	movq	%r9, 72(%rsp)
ffffff8000203190: 48 8d 7c 24 08       	leaq	8(%rsp), %rdi
ffffff8000203195: 48 89 7c 24 20       	movq	%rdi, 32(%rsp)
ffffff800020319a: 48 8d 05 ef d6 00 00 	leaq	55023(%rip), %rax       # 0xffffff8000210890 <_ZN5axhal8platform6pc_x864time12CPU_FREQ_MHZ17hcbee90971ca93e77E.0+0x708>
ffffff80002031a1: 48 89 44 24 28       	movq	%rax, 40(%rsp)
ffffff80002031a6: 48 8d 35 27 6d 00 00 	leaq	27943(%rip), %rsi       # 0xffffff8000209ed4 <str.0+0x1b4>
ffffff80002031ad: ba 03 00 00 00       	movl	$3, %edx
ffffff80002031b2: e8 19 3c 00 00       	callq	0xffffff8000206dd0 <_ZN68_$LT$core..fmt..builders..PadAdapter$u20$as$u20$core..fmt..Write$GT$9write_str17h094611df1bd204b2E>
ffffff80002031b7: 84 c0                	testb	%al, %al
ffffff80002031b9: 75 4b                	jne	0xffffff8000203206 <_ZN50_$LT$$RF$mut$u20$T$u20$as$u20$core..fmt..Debug$GT$3fmt17h346f578aafa36848E+0x386>
ffffff80002031bb: 48 8d 35 5e 71 00 00 	leaq	29022(%rip), %rsi       # 0xffffff800020a320 <str.0+0x600>
ffffff80002031c2: 48 8d 7c 24 08       	leaq	8(%rsp), %rdi
ffffff80002031c7: ba 02 00 00 00       	movl	$2, %edx
ffffff80002031cc: e8 ff 3b 00 00       	callq	0xffffff8000206dd0 <_ZN68_$LT$core..fmt..builders..PadAdapter$u20$as$u20$core..fmt..Write$GT$9write_str17h094611df1bd204b2E>
ffffff80002031d1: 84 c0                	testb	%al, %al
ffffff80002031d3: 75 31                	jne	0xffffff8000203206 <_ZN50_$LT$$RF$mut$u20$T$u20$as$u20$core..fmt..Debug$GT$3fmt17h346f578aafa36848E+0x386>
ffffff80002031d5: 48 8b 7c 24 68       	movq	104(%rsp), %rdi
ffffff80002031da: 48 8b 44 24 70       	movq	112(%rsp), %rax
ffffff80002031df: 48 8d 74 24 20       	leaq	32(%rsp), %rsi
ffffff80002031e4: ff 50 18             	callq	*24(%rax)
ffffff80002031e7: 84 c0                	testb	%al, %al
ffffff80002031e9: 75 1b                	jne	0xffffff8000203206 <_ZN50_$LT$$RF$mut$u20$T$u20$as$u20$core..fmt..Debug$GT$3fmt17h346f578aafa36848E+0x386>
ffffff80002031eb: 48 8b 7c 24 20       	movq	32(%rsp), %rdi
ffffff80002031f0: 48 8b 44 24 28       	movq	40(%rsp), %rax
ffffff80002031f5: 48 8d 35 29 71 00 00 	leaq	28969(%rip), %rsi       # 0xffffff800020a325 <str.0+0x605>
ffffff80002031fc: ba 02 00 00 00       	movl	$2, %edx
ffffff8000203201: ff 50 18             	callq	*24(%rax)
ffffff8000203204: 89 c3                	movl	%eax, %ebx
ffffff8000203206: 41 be 18 00 00 00    	movl	$24, %r14d
ffffff800020320c: 48 8d 2d 6d d0 00 00 	leaq	53357(%rip), %rbp       # 0xffffff8000210280 <_ZN5axhal8platform6pc_x864time12CPU_FREQ_MHZ17hcbee90971ca93e77E.0+0xf8>
ffffff8000203213: eb 25                	jmp	0xffffff800020323a <_ZN50_$LT$$RF$mut$u20$T$u20$as$u20$core..fmt..Debug$GT$3fmt17h346f578aafa36848E+0x3ba>
ffffff8000203215: 66 66 2e 0f 1f 84 00 00 00 00 00     	nopw	%cs:(%rax,%rax)
ffffff8000203220: b3 01                	movb	$1, %bl
ffffff8000203222: 48 8d 2d 57 d0 00 00 	leaq	53335(%rip), %rbp       # 0xffffff8000210280 <_ZN5axhal8platform6pc_x864time12CPU_FREQ_MHZ17hcbee90971ca93e77E.0+0xf8>
ffffff8000203229: 49 83 c6 10          	addq	$16, %r14
ffffff800020322d: 49 81 fe 68 01 00 00 	cmpq	$360, %r14              # imm = 0x168
ffffff8000203234: 0f 84 68 01 00 00    	je	0xffffff80002033a2 <_ZN50_$LT$$RF$mut$u20$T$u20$as$u20$core..fmt..Debug$GT$3fmt17h346f578aafa36848E+0x522>
ffffff800020323a: 89 d8                	movl	%ebx, %eax
ffffff800020323c: b3 01                	movb	$1, %bl
ffffff800020323e: a8 01                	testb	$1, %al
ffffff8000203240: 75 e7                	jne	0xffffff8000203229 <_ZN50_$LT$$RF$mut$u20$T$u20$as$u20$core..fmt..Debug$GT$3fmt17h346f578aafa36848E+0x3a9>
ffffff8000203242: 4d 8b 7c 2e f8       	movq	-8(%r14,%rbp), %r15
ffffff8000203247: 4d 8b 2c 2e          	movq	(%r14,%rbp), %r13
ffffff800020324b: 41 8b 44 24 30       	movl	48(%r12), %eax
ffffff8000203250: a8 04                	testb	$4, %al
ffffff8000203252: 75 6c                	jne	0xffffff80002032c0 <_ZN50_$LT$$RF$mut$u20$T$u20$as$u20$core..fmt..Debug$GT$3fmt17h346f578aafa36848E+0x440>
ffffff8000203254: 49 8b 3c 24          	movq	(%r12), %rdi
ffffff8000203258: 49 8b 44 24 08       	movq	8(%r12), %rax
ffffff800020325d: ba 02 00 00 00       	movl	$2, %edx
ffffff8000203262: 48 8d 35 be 70 00 00 	leaq	28862(%rip), %rsi       # 0xffffff800020a327 <str.0+0x607>
ffffff8000203269: ff 50 18             	callq	*24(%rax)
ffffff800020326c: 84 c0                	testb	%al, %al
ffffff800020326e: 75 b9                	jne	0xffffff8000203229 <_ZN50_$LT$$RF$mut$u20$T$u20$as$u20$core..fmt..Debug$GT$3fmt17h346f578aafa36848E+0x3a9>
ffffff8000203270: 49 8b 3c 24          	movq	(%r12), %rdi
ffffff8000203274: 49 8b 44 24 08       	movq	8(%r12), %rax
ffffff8000203279: 4c 89 fe             	movq	%r15, %rsi
ffffff800020327c: 4c 89 ea             	movq	%r13, %rdx
ffffff800020327f: ff 50 18             	callq	*24(%rax)
ffffff8000203282: 84 c0                	testb	%al, %al
ffffff8000203284: 75 a3                	jne	0xffffff8000203229 <_ZN50_$LT$$RF$mut$u20$T$u20$as$u20$core..fmt..Debug$GT$3fmt17h346f578aafa36848E+0x3a9>
ffffff8000203286: 49 8b 3c 24          	movq	(%r12), %rdi
ffffff800020328a: 49 8b 44 24 08       	movq	8(%r12), %rax
ffffff800020328f: ba 02 00 00 00       	movl	$2, %edx
ffffff8000203294: 48 8d 35 85 70 00 00 	leaq	28805(%rip), %rsi       # 0xffffff800020a320 <str.0+0x600>
ffffff800020329b: ff 50 18             	callq	*24(%rax)
ffffff800020329e: 84 c0                	testb	%al, %al
ffffff80002032a0: 75 87                	jne	0xffffff8000203229 <_ZN50_$LT$$RF$mut$u20$T$u20$as$u20$core..fmt..Debug$GT$3fmt17h346f578aafa36848E+0x3a9>
ffffff80002032a2: 4a 8b 7c 34 60       	movq	96(%rsp,%r14), %rdi
ffffff80002032a7: 4a 8b 44 34 68       	movq	104(%rsp,%r14), %rax
ffffff80002032ac: 4c 89 e6             	movq	%r12, %rsi
ffffff80002032af: ff 50 18             	callq	*24(%rax)
ffffff80002032b2: 89 c3                	movl	%eax, %ebx
ffffff80002032b4: e9 70 ff ff ff       	jmp	0xffffff8000203229 <_ZN50_$LT$$RF$mut$u20$T$u20$as$u20$core..fmt..Debug$GT$3fmt17h346f578aafa36848E+0x3a9>
ffffff80002032b9: 0f 1f 80 00 00 00 00 	nopl	(%rax)
ffffff80002032c0: c6 44 24 07 01       	movb	$1, 7(%rsp)
ffffff80002032c5: 49 8b 0c 24          	movq	(%r12), %rcx
ffffff80002032c9: 49 8b 54 24 08       	movq	8(%r12), %rdx
ffffff80002032ce: 48 89 4c 24 08       	movq	%rcx, 8(%rsp)
ffffff80002032d3: 48 89 54 24 10       	movq	%rdx, 16(%rsp)
ffffff80002032d8: 48 8d 4c 24 07       	leaq	7(%rsp), %rcx
ffffff80002032dd: 48 89 4c 24 18       	movq	%rcx, 24(%rsp)
ffffff80002032e2: 41 8b 4c 24 34       	movl	52(%r12), %ecx
ffffff80002032e7: 41 0f b6 54 24 38    	movzbl	56(%r12), %edx
ffffff80002032ed: 49 8b 74 24 10       	movq	16(%r12), %rsi
ffffff80002032f2: 49 8b 7c 24 18       	movq	24(%r12), %rdi
ffffff80002032f7: 49 8b 6c 24 20       	movq	32(%r12), %rbp
ffffff80002032fc: 49 8b 5c 24 28       	movq	40(%r12), %rbx
ffffff8000203301: 89 44 24 50          	movl	%eax, 80(%rsp)
ffffff8000203305: 89 4c 24 54          	movl	%ecx, 84(%rsp)
ffffff8000203309: 88 54 24 58          	movb	%dl, 88(%rsp)
ffffff800020330d: 48 89 74 24 30       	movq	%rsi, 48(%rsp)
ffffff8000203312: 48 89 7c 24 38       	movq	%rdi, 56(%rsp)
ffffff8000203317: 48 89 6c 24 40       	movq	%rbp, 64(%rsp)
ffffff800020331c: 48 89 5c 24 48       	movq	%rbx, 72(%rsp)
ffffff8000203321: 48 8d 7c 24 08       	leaq	8(%rsp), %rdi
ffffff8000203326: 48 89 7c 24 20       	movq	%rdi, 32(%rsp)
ffffff800020332b: 48 8d 05 5e d5 00 00 	leaq	54622(%rip), %rax       # 0xffffff8000210890 <_ZN5axhal8platform6pc_x864time12CPU_FREQ_MHZ17hcbee90971ca93e77E.0+0x708>
ffffff8000203332: 48 89 44 24 28       	movq	%rax, 40(%rsp)
ffffff8000203337: 4c 89 fe             	movq	%r15, %rsi
ffffff800020333a: 4c 89 ea             	movq	%r13, %rdx
ffffff800020333d: e8 8e 3a 00 00       	callq	0xffffff8000206dd0 <_ZN68_$LT$core..fmt..builders..PadAdapter$u20$as$u20$core..fmt..Write$GT$9write_str17h094611df1bd204b2E>
ffffff8000203342: 84 c0                	testb	%al, %al
ffffff8000203344: 0f 85 d6 fe ff ff    	jne	0xffffff8000203220 <_ZN50_$LT$$RF$mut$u20$T$u20$as$u20$core..fmt..Debug$GT$3fmt17h346f578aafa36848E+0x3a0>
ffffff800020334a: ba 02 00 00 00       	movl	$2, %edx
ffffff800020334f: 48 8d 7c 24 08       	leaq	8(%rsp), %rdi
ffffff8000203354: 48 8d 35 c5 6f 00 00 	leaq	28613(%rip), %rsi       # 0xffffff800020a320 <str.0+0x600>
ffffff800020335b: e8 70 3a 00 00       	callq	0xffffff8000206dd0 <_ZN68_$LT$core..fmt..builders..PadAdapter$u20$as$u20$core..fmt..Write$GT$9write_str17h094611df1bd204b2E>
ffffff8000203360: 84 c0                	testb	%al, %al
ffffff8000203362: 0f 85 b8 fe ff ff    	jne	0xffffff8000203220 <_ZN50_$LT$$RF$mut$u20$T$u20$as$u20$core..fmt..Debug$GT$3fmt17h346f578aafa36848E+0x3a0>
ffffff8000203368: 4a 8b 7c 34 60       	movq	96(%rsp,%r14), %rdi
ffffff800020336d: 4a 8b 44 34 68       	movq	104(%rsp,%r14), %rax
ffffff8000203372: 48 8d 74 24 20       	leaq	32(%rsp), %rsi
ffffff8000203377: ff 50 18             	callq	*24(%rax)
ffffff800020337a: 84 c0                	testb	%al, %al
ffffff800020337c: 0f 85 9e fe ff ff    	jne	0xffffff8000203220 <_ZN50_$LT$$RF$mut$u20$T$u20$as$u20$core..fmt..Debug$GT$3fmt17h346f578aafa36848E+0x3a0>
ffffff8000203382: 48 8b 7c 24 20       	movq	32(%rsp), %rdi
ffffff8000203387: 48 8b 44 24 28       	movq	40(%rsp), %rax
ffffff800020338c: ba 02 00 00 00       	movl	$2, %edx
ffffff8000203391: 48 8d 35 8d 6f 00 00 	leaq	28557(%rip), %rsi       # 0xffffff800020a325 <str.0+0x605>
ffffff8000203398: ff 50 18             	callq	*24(%rax)
ffffff800020339b: 89 c3                	movl	%eax, %ebx
ffffff800020339d: e9 80 fe ff ff       	jmp	0xffffff8000203222 <_ZN50_$LT$$RF$mut$u20$T$u20$as$u20$core..fmt..Debug$GT$3fmt17h346f578aafa36848E+0x3a2>
ffffff80002033a2: b0 01                	movb	$1, %al
ffffff80002033a4: 84 db                	testb	%bl, %bl
ffffff80002033a6: 75 37                	jne	0xffffff80002033df <_ZN50_$LT$$RF$mut$u20$T$u20$as$u20$core..fmt..Debug$GT$3fmt17h346f578aafa36848E+0x55f>
ffffff80002033a8: 41 f6 44 24 30 04    	testb	$4, 48(%r12)
ffffff80002033ae: 75 17                	jne	0xffffff80002033c7 <_ZN50_$LT$$RF$mut$u20$T$u20$as$u20$core..fmt..Debug$GT$3fmt17h346f578aafa36848E+0x547>
ffffff80002033b0: 49 8b 3c 24          	movq	(%r12), %rdi
ffffff80002033b4: 49 8b 44 24 08       	movq	8(%r12), %rax
ffffff80002033b9: 48 8d 35 6d 6f 00 00 	leaq	28525(%rip), %rsi       # 0xffffff800020a32d <str.0+0x60d>
ffffff80002033c0: ba 02 00 00 00       	movl	$2, %edx
ffffff80002033c5: eb 15                	jmp	0xffffff80002033dc <_ZN50_$LT$$RF$mut$u20$T$u20$as$u20$core..fmt..Debug$GT$3fmt17h346f578aafa36848E+0x55c>
ffffff80002033c7: 49 8b 3c 24          	movq	(%r12), %rdi
ffffff80002033cb: 49 8b 44 24 08       	movq	8(%r12), %rax
ffffff80002033d0: 48 8d 35 55 6f 00 00 	leaq	28501(%rip), %rsi       # 0xffffff800020a32c <str.0+0x60c>
ffffff80002033d7: ba 01 00 00 00       	movl	$1, %edx
ffffff80002033dc: ff 50 18             	callq	*24(%rax)
ffffff80002033df: 48 81 c4 c8 01 00 00 	addq	$456, %rsp              # imm = 0x1C8
ffffff80002033e6: 5b                   	popq	%rbx
ffffff80002033e7: 41 5c                	popq	%r12
ffffff80002033e9: 41 5d                	popq	%r13
ffffff80002033eb: 41 5e                	popq	%r14
ffffff80002033ed: 41 5f                	popq	%r15
ffffff80002033ef: 5d                   	popq	%rbp
ffffff80002033f0: c3                   	retq
ffffff80002033f1: cc                   	int3
ffffff80002033f2: cc                   	int3
ffffff80002033f3: cc                   	int3
ffffff80002033f4: cc                   	int3
ffffff80002033f5: cc                   	int3
ffffff80002033f6: cc                   	int3
ffffff80002033f7: cc                   	int3
ffffff80002033f8: cc                   	int3
ffffff80002033f9: cc                   	int3
ffffff80002033fa: cc                   	int3
ffffff80002033fb: cc                   	int3
ffffff80002033fc: cc                   	int3
ffffff80002033fd: cc                   	int3
ffffff80002033fe: cc                   	int3
ffffff80002033ff: cc                   	int3

ffffff8000203400 <_ZN4core3fmt3num50_$LT$impl$u20$core..fmt..Debug$u20$for$u20$u64$GT$3fmt17h7dd8586018e85dc2E>:
ffffff8000203400: 48 81 ec 88 00 00 00 	subq	$136, %rsp
ffffff8000203407: 8b 46 30             	movl	48(%rsi), %eax
ffffff800020340a: a8 10                	testb	$16, %al
ffffff800020340c: 0f 85 e0 00 00 00    	jne	0xffffff80002034f2 <_ZN4core3fmt3num50_$LT$impl$u20$core..fmt..Debug$u20$for$u20$u64$GT$3fmt17h7dd8586018e85dc2E+0xf2>
ffffff8000203412: a8 20                	testb	$32, %al
ffffff8000203414: 0f 85 23 01 00 00    	jne	0xffffff800020353d <_ZN4core3fmt3num50_$LT$impl$u20$core..fmt..Debug$u20$for$u20$u64$GT$3fmt17h7dd8586018e85dc2E+0x13d>
ffffff800020341a: 4c 8b 17             	movq	(%rdi), %r10
ffffff800020341d: b9 27 00 00 00       	movl	$39, %ecx
ffffff8000203422: 49 81 fa 10 27 00 00 	cmpq	$10000, %r10            # imm = 0x2710
ffffff8000203429: 0f 82 8e 01 00 00    	jb	0xffffff80002035bd <_ZN4core3fmt3num50_$LT$impl$u20$core..fmt..Debug$u20$for$u20$u64$GT$3fmt17h7dd8586018e85dc2E+0x1bd>
ffffff800020342f: 41 bb 27 00 00 00    	movl	$39, %r11d
ffffff8000203435: 49 b8 4b 59 86 38 d6 c5 6d 34	movabsq	$3777893186295716171, %r8 # imm = 0x346DC5D63886594B
ffffff800020343f: 4c 8d 0d 0a 6f 00 00 	leaq	28426(%rip), %r9        # 0xffffff800020a350 <str.0+0x630>
ffffff8000203446: 66 2e 0f 1f 84 00 00 00 00 00	nopw	%cs:(%rax,%rax)
ffffff8000203450: 4c 89 d0             	movq	%r10, %rax
ffffff8000203453: 49 f7 e0             	mulq	%r8
ffffff8000203456: 48 c1 ea 0b          	shrq	$11, %rdx
ffffff800020345a: 69 c2 10 27 00 00    	imull	$10000, %edx, %eax      # imm = 0x2710
ffffff8000203460: 44 89 d1             	movl	%r10d, %ecx
ffffff8000203463: 29 c1                	subl	%eax, %ecx
ffffff8000203465: 0f b7 c1             	movzwl	%cx, %eax
ffffff8000203468: c1 e8 02             	shrl	$2, %eax
ffffff800020346b: 69 c0 7b 14 00 00    	imull	$5243, %eax, %eax       # imm = 0x147B
ffffff8000203471: c1 e8 11             	shrl	$17, %eax
ffffff8000203474: 6b f8 64             	imull	$100, %eax, %edi
ffffff8000203477: 29 f9                	subl	%edi, %ecx
ffffff8000203479: 0f b7 f9             	movzwl	%cx, %edi
ffffff800020347c: 49 8d 4b fc          	leaq	-4(%r11), %rcx
ffffff8000203480: 41 0f b7 04 41       	movzwl	(%r9,%rax,2), %eax
ffffff8000203485: 66 42 89 44 1c 04    	movw	%ax, 4(%rsp,%r11)
ffffff800020348b: 41 0f b7 04 79       	movzwl	(%r9,%rdi,2), %eax
ffffff8000203490: 66 42 89 44 1c 06    	movw	%ax, 6(%rsp,%r11)
ffffff8000203496: 49 89 cb             	movq	%rcx, %r11
ffffff8000203499: 49 81 fa ff e0 f5 05 	cmpq	$99999999, %r10         # imm = 0x5F5E0FF
ffffff80002034a0: 49 89 d2             	movq	%rdx, %r10
ffffff80002034a3: 77 ab                	ja	0xffffff8000203450 <_ZN4core3fmt3num50_$LT$impl$u20$core..fmt..Debug$u20$for$u20$u64$GT$3fmt17h7dd8586018e85dc2E+0x50>
ffffff80002034a5: 48 83 fa 63          	cmpq	$99, %rdx
ffffff80002034a9: 76 2e                	jbe	0xffffff80002034d9 <_ZN4core3fmt3num50_$LT$impl$u20$core..fmt..Debug$u20$for$u20$u64$GT$3fmt17h7dd8586018e85dc2E+0xd9>
ffffff80002034ab: 0f b7 c2             	movzwl	%dx, %eax
ffffff80002034ae: c1 e8 02             	shrl	$2, %eax
ffffff80002034b1: 69 c0 7b 14 00 00    	imull	$5243, %eax, %eax       # imm = 0x147B
ffffff80002034b7: c1 e8 11             	shrl	$17, %eax
ffffff80002034ba: 6b f8 64             	imull	$100, %eax, %edi
ffffff80002034bd: 29 fa                	subl	%edi, %edx
ffffff80002034bf: 0f b7 d2             	movzwl	%dx, %edx
ffffff80002034c2: 48 8d 3d 87 6e 00 00 	leaq	28295(%rip), %rdi       # 0xffffff800020a350 <str.0+0x630>
ffffff80002034c9: 0f b7 14 57          	movzwl	(%rdi,%rdx,2), %edx
ffffff80002034cd: 66 89 54 0c 06       	movw	%dx, 6(%rsp,%rcx)
ffffff80002034d2: 48 83 c1 fe          	addq	$-2, %rcx
ffffff80002034d6: 48 89 c2             	movq	%rax, %rdx
ffffff80002034d9: 48 83 fa 0a          	cmpq	$10, %rdx
ffffff80002034dd: 0f 83 ec 00 00 00    	jae	0xffffff80002035cf <_ZN4core3fmt3num50_$LT$impl$u20$core..fmt..Debug$u20$for$u20$u64$GT$3fmt17h7dd8586018e85dc2E+0x1cf>
ffffff80002034e3: 80 c2 30             	addb	$48, %dl
ffffff80002034e6: 88 54 0c 07          	movb	%dl, 7(%rsp,%rcx)
ffffff80002034ea: 48 ff c9             	decq	%rcx
ffffff80002034ed: e9 f1 00 00 00       	jmp	0xffffff80002035e3 <_ZN4core3fmt3num50_$LT$impl$u20$core..fmt..Debug$u20$for$u20$u64$GT$3fmt17h7dd8586018e85dc2E+0x1e3>
ffffff80002034f2: 48 8b 07             	movq	(%rdi), %rax
ffffff80002034f5: 4c 8d 84 24 88 00 00 00      	leaq	136(%rsp), %r8
ffffff80002034fd: 45 31 c9             	xorl	%r9d, %r9d
ffffff8000203500: 41 ba 30 00 00 00    	movl	$48, %r10d
ffffff8000203506: 48 89 c2             	movq	%rax, %rdx
ffffff8000203509: 0f 1f 80 00 00 00 00 	nopl	(%rax)
ffffff8000203510: 48 c1 ea 04          	shrq	$4, %rdx
ffffff8000203514: 89 c1                	movl	%eax, %ecx
ffffff8000203516: 80 e1 0f             	andb	$15, %cl
ffffff8000203519: 80 f9 0a             	cmpb	$10, %cl
ffffff800020351c: bf 57 00 00 00       	movl	$87, %edi
ffffff8000203521: 41 0f 42 fa          	cmovbl	%r10d, %edi
ffffff8000203525: 40 00 cf             	addb	%cl, %dil
ffffff8000203528: 41 88 78 ff          	movb	%dil, -1(%r8)
ffffff800020352c: 49 ff c8             	decq	%r8
ffffff800020352f: 49 ff c1             	incq	%r9
ffffff8000203532: 48 83 f8 0f          	cmpq	$15, %rax
ffffff8000203536: 48 89 d0             	movq	%rdx, %rax
ffffff8000203539: 77 d5                	ja	0xffffff8000203510 <_ZN4core3fmt3num50_$LT$impl$u20$core..fmt..Debug$u20$for$u20$u64$GT$3fmt17h7dd8586018e85dc2E+0x110>
ffffff800020353b: eb 4e                	jmp	0xffffff800020358b <_ZN4core3fmt3num50_$LT$impl$u20$core..fmt..Debug$u20$for$u20$u64$GT$3fmt17h7dd8586018e85dc2E+0x18b>
ffffff800020353d: 48 8b 07             	movq	(%rdi), %rax
ffffff8000203540: 4c 8d 84 24 88 00 00 00      	leaq	136(%rsp), %r8
ffffff8000203548: 45 31 c9             	xorl	%r9d, %r9d
ffffff800020354b: 41 ba 30 00 00 00    	movl	$48, %r10d
ffffff8000203551: 48 89 c2             	movq	%rax, %rdx
ffffff8000203554: 66 66 66 2e 0f 1f 84 00 00 00 00 00  	nopw	%cs:(%rax,%rax)
ffffff8000203560: 48 c1 ea 04          	shrq	$4, %rdx
ffffff8000203564: 89 c1                	movl	%eax, %ecx
ffffff8000203566: 80 e1 0f             	andb	$15, %cl
ffffff8000203569: 80 f9 0a             	cmpb	$10, %cl
ffffff800020356c: bf 37 00 00 00       	movl	$55, %edi
ffffff8000203571: 41 0f 42 fa          	cmovbl	%r10d, %edi
ffffff8000203575: 40 00 cf             	addb	%cl, %dil
ffffff8000203578: 41 88 78 ff          	movb	%dil, -1(%r8)
ffffff800020357c: 49 ff c8             	decq	%r8
ffffff800020357f: 49 ff c1             	incq	%r9
ffffff8000203582: 48 83 f8 0f          	cmpq	$15, %rax
ffffff8000203586: 48 89 d0             	movq	%rdx, %rax
ffffff8000203589: 77 d5                	ja	0xffffff8000203560 <_ZN4core3fmt3num50_$LT$impl$u20$core..fmt..Debug$u20$for$u20$u64$GT$3fmt17h7dd8586018e85dc2E+0x160>
ffffff800020358b: bf 80 00 00 00       	movl	$128, %edi
ffffff8000203590: 4c 29 cf             	subq	%r9, %rdi
ffffff8000203593: 48 81 ff 81 00 00 00 	cmpq	$129, %rdi
ffffff800020359a: 73 76                	jae	0xffffff8000203612 <_ZN4core3fmt3num50_$LT$impl$u20$core..fmt..Debug$u20$for$u20$u64$GT$3fmt17h7dd8586018e85dc2E+0x212>
ffffff800020359c: 48 8d 15 ab 6d 00 00 	leaq	28075(%rip), %rdx       # 0xffffff800020a34e <str.0+0x62e>
ffffff80002035a3: b9 02 00 00 00       	movl	$2, %ecx
ffffff80002035a8: 48 89 f7             	movq	%rsi, %rdi
ffffff80002035ab: be 01 00 00 00       	movl	$1, %esi
ffffff80002035b0: e8 cb 21 00 00       	callq	0xffffff8000205780 <_ZN4core3fmt9Formatter12pad_integral17h43fecee5ed9182e1E>
ffffff80002035b5: 48 81 c4 88 00 00 00 	addq	$136, %rsp
ffffff80002035bc: c3                   	retq
ffffff80002035bd: 4c 89 d2             	movq	%r10, %rdx
ffffff80002035c0: 48 83 fa 63          	cmpq	$99, %rdx
ffffff80002035c4: 0f 87 e1 fe ff ff    	ja	0xffffff80002034ab <_ZN4core3fmt3num50_$LT$impl$u20$core..fmt..Debug$u20$for$u20$u64$GT$3fmt17h7dd8586018e85dc2E+0xab>
ffffff80002035ca: e9 0a ff ff ff       	jmp	0xffffff80002034d9 <_ZN4core3fmt3num50_$LT$impl$u20$core..fmt..Debug$u20$for$u20$u64$GT$3fmt17h7dd8586018e85dc2E+0xd9>
ffffff80002035cf: 48 8d 05 7a 6d 00 00 	leaq	28026(%rip), %rax       # 0xffffff800020a350 <str.0+0x630>
ffffff80002035d6: 0f b7 04 50          	movzwl	(%rax,%rdx,2), %eax
ffffff80002035da: 66 89 44 0c 06       	movw	%ax, 6(%rsp,%rcx)
ffffff80002035df: 48 83 c1 fe          	addq	$-2, %rcx
ffffff80002035e3: 4c 8d 04 0c          	leaq	(%rsp,%rcx), %r8
ffffff80002035e7: 49 83 c0 08          	addq	$8, %r8
ffffff80002035eb: 41 b9 27 00 00 00    	movl	$39, %r9d
ffffff80002035f1: 49 29 c9             	subq	%rcx, %r9
ffffff80002035f4: 48 8b 15 15 d7 00 00 	movq	55061(%rip), %rdx       # 0xffffff8000210d10 <_ZN3log6LOGGER17h48756037b7073395E.1+0x110>
ffffff80002035fb: 48 89 f7             	movq	%rsi, %rdi
ffffff80002035fe: be 01 00 00 00       	movl	$1, %esi
ffffff8000203603: 31 c9                	xorl	%ecx, %ecx
ffffff8000203605: e8 76 21 00 00       	callq	0xffffff8000205780 <_ZN4core3fmt9Formatter12pad_integral17h43fecee5ed9182e1E>
ffffff800020360a: 48 81 c4 88 00 00 00 	addq	$136, %rsp
ffffff8000203611: c3                   	retq
ffffff8000203612: 48 8d 15 a7 d2 00 00 	leaq	53927(%rip), %rdx       # 0xffffff80002108c0 <_ZN5axhal8platform6pc_x864time12CPU_FREQ_MHZ17hcbee90971ca93e77E.0+0x738>
ffffff8000203619: be 80 00 00 00       	movl	$128, %esi
ffffff800020361e: e8 cd 24 00 00       	callq	0xffffff8000205af0 <_ZN4core5slice5index26slice_start_index_len_fail17h2bd13147effaa2ceE>
ffffff8000203623: 0f 0b                	ud2
ffffff8000203625: cc                   	int3
ffffff8000203626: cc                   	int3
ffffff8000203627: cc                   	int3
ffffff8000203628: cc                   	int3
ffffff8000203629: cc                   	int3
ffffff800020362a: cc                   	int3
ffffff800020362b: cc                   	int3
ffffff800020362c: cc                   	int3
ffffff800020362d: cc                   	int3
ffffff800020362e: cc                   	int3
ffffff800020362f: cc                   	int3

ffffff8000203630 <_ZN42_$LT$axlog..Logger$u20$as$u20$log..Log$GT$3log17h75747ac124ca9ac3E>:
ffffff8000203630: 53                   	pushq	%rbx
ffffff8000203631: 48 81 ec 00 03 00 00 	subq	$768, %rsp              # imm = 0x300
ffffff8000203638: 8b 46 30             	movl	48(%rsi), %eax
ffffff800020363b: 85 c0                	testl	%eax, %eax
ffffff800020363d: 74 03                	je	0xffffff8000203642 <_ZN42_$LT$axlog..Logger$u20$as$u20$log..Log$GT$3log17h75747ac124ca9ac3E+0x12>
ffffff800020363f: 8b 46 34             	movl	52(%rsi), %eax
ffffff8000203642: 48 8b 4e 48          	movq	72(%rsi), %rcx
ffffff8000203646: 89 44 24 08          	movl	%eax, 8(%rsp)
ffffff800020364a: 48 8b 46 38          	movq	56(%rsi), %rax
ffffff800020364e: 48 8b 56 40          	movq	64(%rsi), %rdx
ffffff8000203652: 48 89 44 24 30       	movq	%rax, 48(%rsp)
ffffff8000203657: 48 89 54 24 38       	movq	%rdx, 56(%rsp)
ffffff800020365c: 48 8b 05 bd f9 04 00 	movq	326077(%rip), %rax      # 0xffffff8000253020 <_ZN9axruntime11INITED_CPUS17h3dbfc0095bf91d6fE>
ffffff8000203663: 0f 31                	rdtsc
ffffff8000203665: 48 8b 3d 1c cb 00 00 	movq	51996(%rip), %rdi       # 0xffffff8000210188 <_ZN5axhal8platform6pc_x864time12CPU_FREQ_MHZ17hcbee90971ca93e77E.0>
ffffff800020366c: 48 85 ff             	testq	%rdi, %rdi
ffffff800020366f: 0f 84 5b 04 00 00    	je	0xffffff8000203ad0 <_ZN42_$LT$axlog..Logger$u20$as$u20$log..Log$GT$3log17h75747ac124ca9ac3E+0x4a0>
ffffff8000203675: c1 e1 03             	shll	$3, %ecx
ffffff8000203678: 80 c1 f8             	addb	$-8, %cl
ffffff800020367b: 49 b8 1f 21 20 24 5a 00 00 00	movabsq	$387153142047, %r8 # imm = 0x5A2420211F
ffffff8000203685: 49 d3 e8             	shrq	%cl, %r8
ffffff8000203688: 48 c1 e2 20          	shlq	$32, %rdx
ffffff800020368c: 48 09 d0             	orq	%rdx, %rax
ffffff800020368f: 48 2b 05 7a f9 04 00 	subq	326010(%rip), %rax      # 0xffffff8000253010 <_ZN5axhal8platform6pc_x864time9INIT_TICK17hea66eec51d641b35E.0>
ffffff8000203696: 48 69 c0 e8 03 00 00 	imulq	$1000, %rax, %rax       # imm = 0x3E8
ffffff800020369d: 48 89 c1             	movq	%rax, %rcx
ffffff80002036a0: 48 09 f9             	orq	%rdi, %rcx
ffffff80002036a3: 48 c1 e9 20          	shrq	$32, %rcx
ffffff80002036a7: 74 0a                	je	0xffffff80002036b3 <_ZN42_$LT$axlog..Logger$u20$as$u20$log..Log$GT$3log17h75747ac124ca9ac3E+0x83>
ffffff80002036a9: 31 d2                	xorl	%edx, %edx
ffffff80002036ab: 48 f7 f7             	divq	%rdi
ffffff80002036ae: 48 89 c1             	movq	%rax, %rcx
ffffff80002036b1: eb 06                	jmp	0xffffff80002036b9 <_ZN42_$LT$axlog..Logger$u20$as$u20$log..Log$GT$3log17h75747ac124ca9ac3E+0x89>
ffffff80002036b3: 31 d2                	xorl	%edx, %edx
ffffff80002036b5: f7 f7                	divl	%edi
ffffff80002036b7: 89 c1                	movl	%eax, %ecx
ffffff80002036b9: 48 89 c8             	movq	%rcx, %rax
ffffff80002036bc: 48 c1 e8 09          	shrq	$9, %rax
ffffff80002036c0: 48 ba 53 5a 9b a0 2f b8 44 00	movabsq	$19342813113834067, %rdx # imm = 0x44B82FA09B5A53
ffffff80002036ca: 48 f7 e2             	mulq	%rdx
ffffff80002036cd: 48 c1 ea 0b          	shrq	$11, %rdx
ffffff80002036d1: 69 c2 00 ca 9a 3b    	imull	$1000000000, %edx, %eax # imm = 0x3B9ACA00
ffffff80002036d7: 29 c1                	subl	%eax, %ecx
ffffff80002036d9: 89 c8                	movl	%ecx, %eax
ffffff80002036db: c1 e8 09             	shrl	$9, %eax
ffffff80002036de: 48 69 c0 83 4b 04 00 	imulq	$281475, %rax, %rax     # imm = 0x44B83
ffffff80002036e5: 48 c1 e8 27          	shrq	$39, %rax
ffffff80002036e9: 69 c0 00 ca 9a 3b    	imull	$1000000000, %eax, %eax # imm = 0x3B9ACA00
ffffff80002036ef: 29 c1                	subl	%eax, %ecx
ffffff80002036f1: 48 c7 44 24 10 00 00 00 00   	movq	$0, 16(%rsp)
ffffff80002036fa: 48 89 54 24 18       	movq	%rdx, 24(%rsp)
ffffff80002036ff: 48 69 c1 d3 4d 62 10 	imulq	$274877907, %rcx, %rax  # imm = 0x10624DD3
ffffff8000203706: 48 c1 e8 26          	shrq	$38, %rax
ffffff800020370a: 89 44 24 0c          	movl	%eax, 12(%rsp)
ffffff800020370e: 44 88 44 24 07       	movb	%r8b, 7(%rsp)
ffffff8000203713: 48 89 74 24 20       	movq	%rsi, 32(%rsp)
ffffff8000203718: 48 8d 44 24 20       	leaq	32(%rsp), %rax
ffffff800020371d: 48 89 44 24 40       	movq	%rax, 64(%rsp)
ffffff8000203722: 48 8d 05 37 06 00 00 	leaq	1591(%rip), %rax        # 0xffffff8000203d60 <_ZN44_$LT$$RF$T$u20$as$u20$core..fmt..Display$GT$3fmt17h139eaa3563ce31caE>
ffffff8000203729: 48 89 44 24 48       	movq	%rax, 72(%rsp)
ffffff800020372e: 48 8d 05 e3 d4 00 00 	leaq	54499(%rip), %rax       # 0xffffff8000210c18 <_ZN3log6LOGGER17h48756037b7073395E.1+0x18>
ffffff8000203735: 48 89 84 24 60 01 00 00      	movq	%rax, 352(%rsp)
ffffff800020373d: 48 c7 84 24 68 01 00 00 01 00 00 00  	movq	$1, 360(%rsp)
ffffff8000203749: 48 c7 84 24 50 01 00 00 00 00 00 00  	movq	$0, 336(%rsp)
ffffff8000203755: 48 8d 44 24 40       	leaq	64(%rsp), %rax
ffffff800020375a: 48 89 84 24 70 01 00 00      	movq	%rax, 368(%rsp)
ffffff8000203762: 48 c7 84 24 78 01 00 00 01 00 00 00  	movq	$1, 376(%rsp)
ffffff800020376e: 48 8d 44 24 07       	leaq	7(%rsp), %rax
ffffff8000203773: 48 89 44 24 70       	movq	%rax, 112(%rsp)
ffffff8000203778: 48 8d 0d 81 33 00 00 	leaq	13185(%rip), %rcx       # 0xffffff8000206b00 <_ZN4core3fmt3num3imp51_$LT$impl$u20$core..fmt..Display$u20$for$u20$u8$GT$3fmt17h6a32e889356722f4E>
ffffff800020377f: 48 89 4c 24 78       	movq	%rcx, 120(%rsp)
ffffff8000203784: 48 8d 84 24 50 01 00 00      	leaq	336(%rsp), %rax
ffffff800020378c: 48 89 84 24 80 00 00 00      	movq	%rax, 128(%rsp)
ffffff8000203794: 48 8d 15 c5 2b 00 00 	leaq	11205(%rip), %rdx       # 0xffffff8000206360 <_ZN59_$LT$core..fmt..Arguments$u20$as$u20$core..fmt..Display$GT$3fmt17h00bea6249e048063E>
ffffff800020379b: 48 89 94 24 88 00 00 00      	movq	%rdx, 136(%rsp)
ffffff80002037a3: 48 8d 05 56 cd 00 00 	leaq	52566(%rip), %rax       # 0xffffff8000210500 <_ZN5axhal8platform6pc_x864time12CPU_FREQ_MHZ17hcbee90971ca93e77E.0+0x378>
ffffff80002037aa: 48 89 84 24 30 01 00 00      	movq	%rax, 304(%rsp)
ffffff80002037b2: 48 c7 84 24 38 01 00 00 03 00 00 00  	movq	$3, 312(%rsp)
ffffff80002037be: 48 c7 84 24 20 01 00 00 00 00 00 00  	movq	$0, 288(%rsp)
ffffff80002037ca: 48 8d 74 24 70       	leaq	112(%rsp), %rsi
ffffff80002037cf: 48 89 b4 24 40 01 00 00      	movq	%rsi, 320(%rsp)
ffffff80002037d7: 48 c7 84 24 48 01 00 00 02 00 00 00  	movq	$2, 328(%rsp)
ffffff80002037e3: 48 8d 74 24 18       	leaq	24(%rsp), %rsi
ffffff80002037e8: 48 89 b4 24 c0 00 00 00      	movq	%rsi, 192(%rsp)
ffffff80002037f0: 48 8d 35 59 1e 00 00 	leaq	7769(%rip), %rsi        # 0xffffff8000205650 <_ZN4core3fmt3num3imp52_$LT$impl$u20$core..fmt..Display$u20$for$u20$u64$GT$3fmt17h78dc0edf4b145690E>
ffffff80002037f7: 48 89 b4 24 c8 00 00 00      	movq	%rsi, 200(%rsp)
ffffff80002037ff: 48 8d 7c 24 0c       	leaq	12(%rsp), %rdi
ffffff8000203804: 48 89 bc 24 d0 00 00 00      	movq	%rdi, 208(%rsp)
ffffff800020380c: 48 8d 3d 6d 34 00 00 	leaq	13421(%rip), %rdi       # 0xffffff8000206c80 <_ZN4core3fmt3num3imp52_$LT$impl$u20$core..fmt..Display$u20$for$u20$u32$GT$3fmt17h906c1338c60cfce1E>
ffffff8000203813: 48 89 bc 24 d8 00 00 00      	movq	%rdi, 216(%rsp)
ffffff800020381b: 48 8d 5c 24 10       	leaq	16(%rsp), %rbx
ffffff8000203820: 48 89 9c 24 e0 00 00 00      	movq	%rbx, 224(%rsp)
ffffff8000203828: 48 89 b4 24 e8 00 00 00      	movq	%rsi, 232(%rsp)
ffffff8000203830: 48 8d 74 24 30       	leaq	48(%rsp), %rsi
ffffff8000203835: 48 89 b4 24 f0 00 00 00      	movq	%rsi, 240(%rsp)
ffffff800020383d: 48 8d 35 9c 49 00 00 	leaq	18844(%rip), %rsi       # 0xffffff80002081e0 <_ZN44_$LT$$RF$T$u20$as$u20$core..fmt..Display$GT$3fmt17h826ed5806fed4bf7E>
ffffff8000203844: 48 89 b4 24 f8 00 00 00      	movq	%rsi, 248(%rsp)
ffffff800020384c: 48 8d 74 24 08       	leaq	8(%rsp), %rsi
ffffff8000203851: 48 89 b4 24 00 01 00 00      	movq	%rsi, 256(%rsp)
ffffff8000203859: 48 89 bc 24 08 01 00 00      	movq	%rdi, 264(%rsp)
ffffff8000203861: 48 8d b4 24 20 01 00 00      	leaq	288(%rsp), %rsi
ffffff8000203869: 48 89 b4 24 10 01 00 00      	movq	%rsi, 272(%rsp)
ffffff8000203871: 48 89 94 24 18 01 00 00      	movq	%rdx, 280(%rsp)
ffffff8000203879: 48 c7 84 24 b0 01 00 00 02 00 00 00  	movq	$2, 432(%rsp)
ffffff8000203885: 48 c7 84 24 c0 01 00 00 00 00 00 00  	movq	$0, 448(%rsp)
ffffff8000203891: 48 c7 84 24 c8 01 00 00 03 00 00 00  	movq	$3, 456(%rsp)
ffffff800020389d: 48 be 00 00 00 00 20 00 00 00	movabsq	$137438953472, %rsi # imm = 0x2000000000
ffffff80002038a7: 48 89 b4 24 d0 01 00 00      	movq	%rsi, 464(%rsp)
ffffff80002038af: c6 84 24 d8 01 00 00 01      	movb	$1, 472(%rsp)
ffffff80002038b7: 48 c7 84 24 e0 01 00 00 00 00 00 00  	movq	$0, 480(%rsp)
ffffff80002038c3: 48 c7 84 24 e8 01 00 00 02 00 00 00  	movq	$2, 488(%rsp)
ffffff80002038cf: 48 c7 84 24 f8 01 00 00 00 00 00 00  	movq	$0, 504(%rsp)
ffffff80002038db: 48 c7 84 24 00 02 00 00 06 00 00 00  	movq	$6, 512(%rsp)
ffffff80002038e7: 48 bf 08 00 00 00 20 00 00 00	movabsq	$137438953480, %rdi # imm = 0x2000000008
ffffff80002038f1: 48 89 bc 24 08 02 00 00      	movq	%rdi, 520(%rsp)
ffffff80002038f9: c6 84 24 10 02 00 00 03      	movb	$3, 528(%rsp)
ffffff8000203901: 48 c7 84 24 18 02 00 00 01 00 00 00  	movq	$1, 536(%rsp)
ffffff800020390d: 48 c7 84 24 20 02 00 00 02 00 00 00  	movq	$2, 544(%rsp)
ffffff8000203919: 48 c7 84 24 30 02 00 00 02 00 00 00  	movq	$2, 560(%rsp)
ffffff8000203925: 48 89 b4 24 40 02 00 00      	movq	%rsi, 576(%rsp)
ffffff800020392d: c6 84 24 48 02 00 00 03      	movb	$3, 584(%rsp)
ffffff8000203935: 48 c7 84 24 50 02 00 00 02 00 00 00  	movq	$2, 592(%rsp)
ffffff8000203941: 48 c7 84 24 58 02 00 00 02 00 00 00  	movq	$2, 600(%rsp)
ffffff800020394d: 48 c7 84 24 68 02 00 00 02 00 00 00  	movq	$2, 616(%rsp)
ffffff8000203959: 48 89 b4 24 78 02 00 00      	movq	%rsi, 632(%rsp)
ffffff8000203961: c6 84 24 80 02 00 00 03      	movb	$3, 640(%rsp)
ffffff8000203969: 48 c7 84 24 88 02 00 00 03 00 00 00  	movq	$3, 648(%rsp)
ffffff8000203975: 48 c7 84 24 90 02 00 00 02 00 00 00  	movq	$2, 656(%rsp)
ffffff8000203981: 48 c7 84 24 a0 02 00 00 02 00 00 00  	movq	$2, 672(%rsp)
ffffff800020398d: 48 89 b4 24 b0 02 00 00      	movq	%rsi, 688(%rsp)
ffffff8000203995: c6 84 24 b8 02 00 00 03      	movb	$3, 696(%rsp)
ffffff800020399d: 48 c7 84 24 c0 02 00 00 04 00 00 00  	movq	$4, 704(%rsp)
ffffff80002039a9: 48 c7 84 24 c8 02 00 00 02 00 00 00  	movq	$2, 712(%rsp)
ffffff80002039b5: 48 c7 84 24 d8 02 00 00 02 00 00 00  	movq	$2, 728(%rsp)
ffffff80002039c1: 48 89 b4 24 e8 02 00 00      	movq	%rsi, 744(%rsp)
ffffff80002039c9: c6 84 24 f0 02 00 00 03      	movb	$3, 752(%rsp)
ffffff80002039d1: 48 c7 84 24 f8 02 00 00 05 00 00 00  	movq	$5, 760(%rsp)
ffffff80002039dd: 48 8d 35 4c cb 00 00 	leaq	52044(%rip), %rsi       # 0xffffff8000210530 <_ZN5axhal8platform6pc_x864time12CPU_FREQ_MHZ17hcbee90971ca93e77E.0+0x3a8>
ffffff80002039e4: 48 89 b4 24 a0 00 00 00      	movq	%rsi, 160(%rsp)
ffffff80002039ec: 48 c7 84 24 a8 00 00 00 07 00 00 00  	movq	$7, 168(%rsp)
ffffff80002039f8: 48 8d b4 24 b0 01 00 00      	leaq	432(%rsp), %rsi
ffffff8000203a00: 48 89 b4 24 90 00 00 00      	movq	%rsi, 144(%rsp)
ffffff8000203a08: 48 c7 84 24 98 00 00 00 06 00 00 00  	movq	$6, 152(%rsp)
ffffff8000203a14: 48 8d b4 24 c0 00 00 00      	leaq	192(%rsp), %rsi
ffffff8000203a1c: 48 89 b4 24 b0 00 00 00      	movq	%rsi, 176(%rsp)
ffffff8000203a24: 48 c7 84 24 b8 00 00 00 06 00 00 00  	movq	$6, 184(%rsp)
ffffff8000203a30: 48 8d 35 1e 65 00 00 	leaq	25886(%rip), %rsi       # 0xffffff8000209f55 <str.0+0x235>
ffffff8000203a37: 48 89 74 24 50       	movq	%rsi, 80(%rsp)
ffffff8000203a3c: 48 89 4c 24 58       	movq	%rcx, 88(%rsp)
ffffff8000203a41: 48 8d 8c 24 90 00 00 00      	leaq	144(%rsp), %rcx
ffffff8000203a49: 48 89 4c 24 60       	movq	%rcx, 96(%rsp)
ffffff8000203a4e: 48 89 54 24 68       	movq	%rdx, 104(%rsp)
ffffff8000203a53: 9c                   	pushfq
ffffff8000203a54: 5b                   	popq	%rbx
ffffff8000203a55: fa                   	cli
ffffff8000203a56: 48 89 e1             	movq	%rsp, %rcx
ffffff8000203a59: 48 89 4c 24 28       	movq	%rcx, 40(%rsp)
ffffff8000203a5e: 48 c7 84 24 80 01 00 00 00 00 00 00  	movq	$0, 384(%rsp)
ffffff8000203a6a: 48 89 84 24 90 01 00 00      	movq	%rax, 400(%rsp)
ffffff8000203a72: 48 c7 84 24 98 01 00 00 03 00 00 00  	movq	$3, 408(%rsp)
ffffff8000203a7e: 48 8d 44 24 50       	leaq	80(%rsp), %rax
ffffff8000203a83: 48 89 84 24 a0 01 00 00      	movq	%rax, 416(%rsp)
ffffff8000203a8b: 48 c7 84 24 a8 01 00 00 02 00 00 00  	movq	$2, 424(%rsp)
ffffff8000203a97: 48 8d 35 32 ca 00 00 	leaq	51762(%rip), %rsi       # 0xffffff80002104d0 <_ZN5axhal8platform6pc_x864time12CPU_FREQ_MHZ17hcbee90971ca93e77E.0+0x348>
ffffff8000203a9e: 48 8d 7c 24 28       	leaq	40(%rsp), %rdi
ffffff8000203aa3: 48 8d 94 24 80 01 00 00      	leaq	384(%rsp), %rdx
ffffff8000203aab: e8 10 29 00 00       	callq	0xffffff80002063c0 <_ZN4core3fmt5write17h3e64ac24810c32e1E>
ffffff8000203ab0: 84 c0                	testb	%al, %al
ffffff8000203ab2: 75 36                	jne	0xffffff8000203aea <_ZN42_$LT$axlog..Logger$u20$as$u20$log..Log$GT$3log17h75747ac124ca9ac3E+0x4ba>
ffffff8000203ab4: f7 c3 00 02 00 00    	testl	$512, %ebx              # imm = 0x200
ffffff8000203aba: 75 0a                	jne	0xffffff8000203ac6 <_ZN42_$LT$axlog..Logger$u20$as$u20$log..Log$GT$3log17h75747ac124ca9ac3E+0x496>
ffffff8000203abc: fa                   	cli
ffffff8000203abd: 48 81 c4 00 03 00 00 	addq	$768, %rsp              # imm = 0x300
ffffff8000203ac4: 5b                   	popq	%rbx
ffffff8000203ac5: c3                   	retq
ffffff8000203ac6: fb                   	sti
ffffff8000203ac7: 48 81 c4 00 03 00 00 	addq	$768, %rsp              # imm = 0x300
ffffff8000203ace: 5b                   	popq	%rbx
ffffff8000203acf: c3                   	retq
ffffff8000203ad0: 48 8d 3d 49 62 00 00 	leaq	25161(%rip), %rdi       # 0xffffff8000209d20 <str.0>
ffffff8000203ad7: 48 8d 15 b2 c6 00 00 	leaq	50866(%rip), %rdx       # 0xffffff8000210190 <_ZN5axhal8platform6pc_x864time12CPU_FREQ_MHZ17hcbee90971ca93e77E.0+0x8>
ffffff8000203ade: be 19 00 00 00       	movl	$25, %esi
ffffff8000203ae3: e8 18 28 00 00       	callq	0xffffff8000206300 <_ZN4core9panicking5panic17ha75736b023e20f84E>
ffffff8000203ae8: 0f 0b                	ud2
ffffff8000203aea: 48 8d 3d 89 74 00 00 	leaq	29833(%rip), %rdi       # 0xffffff800020af7a <_ZN4core7unicode12unicode_data15grapheme_extend7OFFSETS17ha79b4a14ed4d5bccE+0x322>
ffffff8000203af1: 48 8d 0d a8 ca 00 00 	leaq	51880(%rip), %rcx       # 0xffffff80002105a0 <_ZN5axhal8platform6pc_x864time12CPU_FREQ_MHZ17hcbee90971ca93e77E.0+0x418>
ffffff8000203af8: 4c 8d 05 c1 ca 00 00 	leaq	51905(%rip), %r8        # 0xffffff80002105c0 <_ZN5axhal8platform6pc_x864time12CPU_FREQ_MHZ17hcbee90971ca93e77E.0+0x438>
ffffff8000203aff: 48 89 e2             	movq	%rsp, %rdx
ffffff8000203b02: be 2b 00 00 00       	movl	$43, %esi
ffffff8000203b07: e8 44 2f 00 00       	callq	0xffffff8000206a50 <_ZN4core6result13unwrap_failed17he358196271332538E>
ffffff8000203b0c: 0f 0b                	ud2
ffffff8000203b0e: cc                   	int3
ffffff8000203b0f: cc                   	int3

ffffff8000203b10 <_ZN50_$LT$$RF$mut$u20$W$u20$as$u20$core..fmt..Write$GT$9write_str17h6ac52efd774955a3E>:
ffffff8000203b10: 50                   	pushq	%rax
ffffff8000203b11: 48 85 d2             	testq	%rdx, %rdx
ffffff8000203b14: 74 7b                	je	0xffffff8000203b91 <_ZN50_$LT$$RF$mut$u20$W$u20$as$u20$core..fmt..Write$GT$9write_str17h6ac52efd774955a3E+0x81>
ffffff8000203b16: 49 89 d0             	movq	%rdx, %r8
ffffff8000203b19: 49 01 f0             	addq	%rsi, %r8
ffffff8000203b1c: eb 08                	jmp	0xffffff8000203b26 <_ZN50_$LT$$RF$mut$u20$W$u20$as$u20$core..fmt..Write$GT$9write_str17h6ac52efd774955a3E+0x16>
ffffff8000203b1e: 66 90                	nop
ffffff8000203b20: fb                   	sti
ffffff8000203b21: 4c 39 c6             	cmpq	%r8, %rsi
ffffff8000203b24: 74 6b                	je	0xffffff8000203b91 <_ZN50_$LT$$RF$mut$u20$W$u20$as$u20$core..fmt..Write$GT$9write_str17h6ac52efd774955a3E+0x81>
ffffff8000203b26: 0f b6 0e             	movzbl	(%rsi), %ecx
ffffff8000203b29: 9c                   	pushfq
ffffff8000203b2a: 5f                   	popq	%rdi
ffffff8000203b2b: fa                   	cli
ffffff8000203b2c: 80 f9 0a             	cmpb	$10, %cl
ffffff8000203b2f: 75 3f                	jne	0xffffff8000203b70 <_ZN50_$LT$$RF$mut$u20$W$u20$as$u20$core..fmt..Write$GT$9write_str17h6ac52efd774955a3E+0x60>
ffffff8000203b31: 66 66 66 66 66 66 2e 0f 1f 84 00 00 00 00 00 	nopw	%cs:(%rax,%rax)
ffffff8000203b40: 66 ba fd 03          	movw	$1021, %dx              # imm = 0x3FD
ffffff8000203b44: ec                   	inb	%dx, %al
ffffff8000203b45: a8 20                	testb	$32, %al
ffffff8000203b47: 74 f7                	je	0xffffff8000203b40 <_ZN50_$LT$$RF$mut$u20$W$u20$as$u20$core..fmt..Write$GT$9write_str17h6ac52efd774955a3E+0x30>
ffffff8000203b49: 66 ba f8 03          	movw	$1016, %dx              # imm = 0x3F8
ffffff8000203b4d: b0 0d                	movb	$13, %al
ffffff8000203b4f: ee                   	outb	%al, %dx
ffffff8000203b50: 66 ba fd 03          	movw	$1021, %dx              # imm = 0x3FD
ffffff8000203b54: ec                   	inb	%dx, %al
ffffff8000203b55: a8 20                	testb	$32, %al
ffffff8000203b57: 74 f7                	je	0xffffff8000203b50 <_ZN50_$LT$$RF$mut$u20$W$u20$as$u20$core..fmt..Write$GT$9write_str17h6ac52efd774955a3E+0x40>
ffffff8000203b59: 66 ba f8 03          	movw	$1016, %dx              # imm = 0x3F8
ffffff8000203b5d: b0 0a                	movb	$10, %al
ffffff8000203b5f: ee                   	outb	%al, %dx
ffffff8000203b60: 48 ff c6             	incq	%rsi
ffffff8000203b63: f7 c7 00 02 00 00    	testl	$512, %edi              # imm = 0x200
ffffff8000203b69: 75 b5                	jne	0xffffff8000203b20 <_ZN50_$LT$$RF$mut$u20$W$u20$as$u20$core..fmt..Write$GT$9write_str17h6ac52efd774955a3E+0x10>
ffffff8000203b6b: eb 1e                	jmp	0xffffff8000203b8b <_ZN50_$LT$$RF$mut$u20$W$u20$as$u20$core..fmt..Write$GT$9write_str17h6ac52efd774955a3E+0x7b>
ffffff8000203b6d: 0f 1f 00             	nopl	(%rax)
ffffff8000203b70: 66 ba fd 03          	movw	$1021, %dx              # imm = 0x3FD
ffffff8000203b74: ec                   	inb	%dx, %al
ffffff8000203b75: a8 20                	testb	$32, %al
ffffff8000203b77: 74 f7                	je	0xffffff8000203b70 <_ZN50_$LT$$RF$mut$u20$W$u20$as$u20$core..fmt..Write$GT$9write_str17h6ac52efd774955a3E+0x60>
ffffff8000203b79: 66 ba f8 03          	movw	$1016, %dx              # imm = 0x3F8
ffffff8000203b7d: 89 c8                	movl	%ecx, %eax
ffffff8000203b7f: ee                   	outb	%al, %dx
ffffff8000203b80: 48 ff c6             	incq	%rsi
ffffff8000203b83: f7 c7 00 02 00 00    	testl	$512, %edi              # imm = 0x200
ffffff8000203b89: 75 95                	jne	0xffffff8000203b20 <_ZN50_$LT$$RF$mut$u20$W$u20$as$u20$core..fmt..Write$GT$9write_str17h6ac52efd774955a3E+0x10>
ffffff8000203b8b: fa                   	cli
ffffff8000203b8c: 4c 39 c6             	cmpq	%r8, %rsi
ffffff8000203b8f: 75 95                	jne	0xffffff8000203b26 <_ZN50_$LT$$RF$mut$u20$W$u20$as$u20$core..fmt..Write$GT$9write_str17h6ac52efd774955a3E+0x16>
ffffff8000203b91: 31 c0                	xorl	%eax, %eax
ffffff8000203b93: 59                   	popq	%rcx
ffffff8000203b94: c3                   	retq
ffffff8000203b95: cc                   	int3
ffffff8000203b96: cc                   	int3
ffffff8000203b97: cc                   	int3
ffffff8000203b98: cc                   	int3
ffffff8000203b99: cc                   	int3
ffffff8000203b9a: cc                   	int3
ffffff8000203b9b: cc                   	int3
ffffff8000203b9c: cc                   	int3
ffffff8000203b9d: cc                   	int3
ffffff8000203b9e: cc                   	int3
ffffff8000203b9f: cc                   	int3

ffffff8000203ba0 <_ZN50_$LT$$RF$mut$u20$W$u20$as$u20$core..fmt..Write$GT$10write_char17h057d8289b8683a7cE>:
ffffff8000203ba0: 50                   	pushq	%rax
ffffff8000203ba1: c7 44 24 04 00 00 00 00      	movl	$0, 4(%rsp)
ffffff8000203ba9: 81 fe 80 00 00 00    	cmpl	$128, %esi
ffffff8000203baf: 73 0f                	jae	0xffffff8000203bc0 <_ZN50_$LT$$RF$mut$u20$W$u20$as$u20$core..fmt..Write$GT$10write_char17h057d8289b8683a7cE+0x20>
ffffff8000203bb1: 40 88 74 24 04       	movb	%sil, 4(%rsp)
ffffff8000203bb6: b8 01 00 00 00       	movl	$1, %eax
ffffff8000203bbb: e9 90 00 00 00       	jmp	0xffffff8000203c50 <_ZN50_$LT$$RF$mut$u20$W$u20$as$u20$core..fmt..Write$GT$10write_char17h057d8289b8683a7cE+0xb0>
ffffff8000203bc0: 89 f0                	movl	%esi, %eax
ffffff8000203bc2: 81 fe 00 08 00 00    	cmpl	$2048, %esi             # imm = 0x800
ffffff8000203bc8: 73 1d                	jae	0xffffff8000203be7 <_ZN50_$LT$$RF$mut$u20$W$u20$as$u20$core..fmt..Write$GT$10write_char17h057d8289b8683a7cE+0x47>
ffffff8000203bca: c1 e8 06             	shrl	$6, %eax
ffffff8000203bcd: 0c c0                	orb	$-64, %al
ffffff8000203bcf: 88 44 24 04          	movb	%al, 4(%rsp)
ffffff8000203bd3: 40 80 e6 3f          	andb	$63, %sil
ffffff8000203bd7: 40 80 ce 80          	orb	$-128, %sil
ffffff8000203bdb: 40 88 74 24 05       	movb	%sil, 5(%rsp)
ffffff8000203be0: b8 02 00 00 00       	movl	$2, %eax
ffffff8000203be5: eb 69                	jmp	0xffffff8000203c50 <_ZN50_$LT$$RF$mut$u20$W$u20$as$u20$core..fmt..Write$GT$10write_char17h057d8289b8683a7cE+0xb0>
ffffff8000203be7: 81 fe 00 00 01 00    	cmpl	$65536, %esi            # imm = 0x10000
ffffff8000203bed: 73 2a                	jae	0xffffff8000203c19 <_ZN50_$LT$$RF$mut$u20$W$u20$as$u20$core..fmt..Write$GT$10write_char17h057d8289b8683a7cE+0x79>
ffffff8000203bef: c1 e8 0c             	shrl	$12, %eax
ffffff8000203bf2: 0c e0                	orb	$-32, %al
ffffff8000203bf4: 88 44 24 04          	movb	%al, 4(%rsp)
ffffff8000203bf8: 89 f0                	movl	%esi, %eax
ffffff8000203bfa: c1 e8 06             	shrl	$6, %eax
ffffff8000203bfd: 24 3f                	andb	$63, %al
ffffff8000203bff: 0c 80                	orb	$-128, %al
ffffff8000203c01: 88 44 24 05          	movb	%al, 5(%rsp)
ffffff8000203c05: 40 80 e6 3f          	andb	$63, %sil
ffffff8000203c09: 40 80 ce 80          	orb	$-128, %sil
ffffff8000203c0d: 40 88 74 24 06       	movb	%sil, 6(%rsp)
ffffff8000203c12: b8 03 00 00 00       	movl	$3, %eax
ffffff8000203c17: eb 37                	jmp	0xffffff8000203c50 <_ZN50_$LT$$RF$mut$u20$W$u20$as$u20$core..fmt..Write$GT$10write_char17h057d8289b8683a7cE+0xb0>
ffffff8000203c19: c1 e8 12             	shrl	$18, %eax
ffffff8000203c1c: 24 07                	andb	$7, %al
ffffff8000203c1e: 0c f0                	orb	$-16, %al
ffffff8000203c20: 88 44 24 04          	movb	%al, 4(%rsp)
ffffff8000203c24: 89 f0                	movl	%esi, %eax
ffffff8000203c26: c1 e8 0c             	shrl	$12, %eax
ffffff8000203c29: 24 3f                	andb	$63, %al
ffffff8000203c2b: 0c 80                	orb	$-128, %al
ffffff8000203c2d: 88 44 24 05          	movb	%al, 5(%rsp)
ffffff8000203c31: 89 f0                	movl	%esi, %eax
ffffff8000203c33: c1 e8 06             	shrl	$6, %eax
ffffff8000203c36: 24 3f                	andb	$63, %al
ffffff8000203c38: 0c 80                	orb	$-128, %al
ffffff8000203c3a: 88 44 24 06          	movb	%al, 6(%rsp)
ffffff8000203c3e: 40 80 e6 3f          	andb	$63, %sil
ffffff8000203c42: 40 80 ce 80          	orb	$-128, %sil
ffffff8000203c46: 40 88 74 24 07       	movb	%sil, 7(%rsp)
ffffff8000203c4b: b8 04 00 00 00       	movl	$4, %eax
ffffff8000203c50: 4c 8d 04 04          	leaq	(%rsp,%rax), %r8
ffffff8000203c54: 49 83 c0 04          	addq	$4, %r8
ffffff8000203c58: 48 8d 7c 24 04       	leaq	4(%rsp), %rdi
ffffff8000203c5d: eb 07                	jmp	0xffffff8000203c66 <_ZN50_$LT$$RF$mut$u20$W$u20$as$u20$core..fmt..Write$GT$10write_char17h057d8289b8683a7cE+0xc6>
ffffff8000203c5f: 90                   	nop
ffffff8000203c60: fb                   	sti
ffffff8000203c61: 4c 39 c7             	cmpq	%r8, %rdi
ffffff8000203c64: 74 6b                	je	0xffffff8000203cd1 <_ZN50_$LT$$RF$mut$u20$W$u20$as$u20$core..fmt..Write$GT$10write_char17h057d8289b8683a7cE+0x131>
ffffff8000203c66: 0f b6 0f             	movzbl	(%rdi), %ecx
ffffff8000203c69: 9c                   	pushfq
ffffff8000203c6a: 5e                   	popq	%rsi
ffffff8000203c6b: fa                   	cli
ffffff8000203c6c: 80 f9 0a             	cmpb	$10, %cl
ffffff8000203c6f: 75 3f                	jne	0xffffff8000203cb0 <_ZN50_$LT$$RF$mut$u20$W$u20$as$u20$core..fmt..Write$GT$10write_char17h057d8289b8683a7cE+0x110>
ffffff8000203c71: 66 66 66 66 66 66 2e 0f 1f 84 00 00 00 00 00 	nopw	%cs:(%rax,%rax)
ffffff8000203c80: 66 ba fd 03          	movw	$1021, %dx              # imm = 0x3FD
ffffff8000203c84: ec                   	inb	%dx, %al
ffffff8000203c85: a8 20                	testb	$32, %al
ffffff8000203c87: 74 f7                	je	0xffffff8000203c80 <_ZN50_$LT$$RF$mut$u20$W$u20$as$u20$core..fmt..Write$GT$10write_char17h057d8289b8683a7cE+0xe0>
ffffff8000203c89: 66 ba f8 03          	movw	$1016, %dx              # imm = 0x3F8
ffffff8000203c8d: b0 0d                	movb	$13, %al
ffffff8000203c8f: ee                   	outb	%al, %dx
ffffff8000203c90: 66 ba fd 03          	movw	$1021, %dx              # imm = 0x3FD
ffffff8000203c94: ec                   	inb	%dx, %al
ffffff8000203c95: a8 20                	testb	$32, %al
ffffff8000203c97: 74 f7                	je	0xffffff8000203c90 <_ZN50_$LT$$RF$mut$u20$W$u20$as$u20$core..fmt..Write$GT$10write_char17h057d8289b8683a7cE+0xf0>
ffffff8000203c99: 66 ba f8 03          	movw	$1016, %dx              # imm = 0x3F8
ffffff8000203c9d: b0 0a                	movb	$10, %al
ffffff8000203c9f: ee                   	outb	%al, %dx
ffffff8000203ca0: 48 ff c7             	incq	%rdi
ffffff8000203ca3: f7 c6 00 02 00 00    	testl	$512, %esi              # imm = 0x200
ffffff8000203ca9: 75 b5                	jne	0xffffff8000203c60 <_ZN50_$LT$$RF$mut$u20$W$u20$as$u20$core..fmt..Write$GT$10write_char17h057d8289b8683a7cE+0xc0>
ffffff8000203cab: eb 1e                	jmp	0xffffff8000203ccb <_ZN50_$LT$$RF$mut$u20$W$u20$as$u20$core..fmt..Write$GT$10write_char17h057d8289b8683a7cE+0x12b>
ffffff8000203cad: 0f 1f 00             	nopl	(%rax)
ffffff8000203cb0: 66 ba fd 03          	movw	$1021, %dx              # imm = 0x3FD
ffffff8000203cb4: ec                   	inb	%dx, %al
ffffff8000203cb5: a8 20                	testb	$32, %al
ffffff8000203cb7: 74 f7                	je	0xffffff8000203cb0 <_ZN50_$LT$$RF$mut$u20$W$u20$as$u20$core..fmt..Write$GT$10write_char17h057d8289b8683a7cE+0x110>
ffffff8000203cb9: 66 ba f8 03          	movw	$1016, %dx              # imm = 0x3F8
ffffff8000203cbd: 89 c8                	movl	%ecx, %eax
ffffff8000203cbf: ee                   	outb	%al, %dx
ffffff8000203cc0: 48 ff c7             	incq	%rdi
ffffff8000203cc3: f7 c6 00 02 00 00    	testl	$512, %esi              # imm = 0x200
ffffff8000203cc9: 75 95                	jne	0xffffff8000203c60 <_ZN50_$LT$$RF$mut$u20$W$u20$as$u20$core..fmt..Write$GT$10write_char17h057d8289b8683a7cE+0xc0>
ffffff8000203ccb: fa                   	cli
ffffff8000203ccc: 4c 39 c7             	cmpq	%r8, %rdi
ffffff8000203ccf: 75 95                	jne	0xffffff8000203c66 <_ZN50_$LT$$RF$mut$u20$W$u20$as$u20$core..fmt..Write$GT$10write_char17h057d8289b8683a7cE+0xc6>
ffffff8000203cd1: 31 c0                	xorl	%eax, %eax
ffffff8000203cd3: 59                   	popq	%rcx
ffffff8000203cd4: c3                   	retq
ffffff8000203cd5: cc                   	int3
ffffff8000203cd6: cc                   	int3
ffffff8000203cd7: cc                   	int3
ffffff8000203cd8: cc                   	int3
ffffff8000203cd9: cc                   	int3
ffffff8000203cda: cc                   	int3
ffffff8000203cdb: cc                   	int3
ffffff8000203cdc: cc                   	int3
ffffff8000203cdd: cc                   	int3
ffffff8000203cde: cc                   	int3
ffffff8000203cdf: cc                   	int3

ffffff8000203ce0 <_ZN50_$LT$$RF$mut$u20$W$u20$as$u20$core..fmt..Write$GT$9write_fmt17h75622ca0569bcd9aE>:
ffffff8000203ce0: 48 83 ec 38          	subq	$56, %rsp
ffffff8000203ce4: 48 8b 07             	movq	(%rdi), %rax
ffffff8000203ce7: 48 89 04 24          	movq	%rax, (%rsp)
ffffff8000203ceb: 48 8b 46 28          	movq	40(%rsi), %rax
ffffff8000203cef: 48 89 44 24 30       	movq	%rax, 48(%rsp)
ffffff8000203cf4: 48 8b 46 20          	movq	32(%rsi), %rax
ffffff8000203cf8: 48 89 44 24 28       	movq	%rax, 40(%rsp)
ffffff8000203cfd: 48 8b 46 18          	movq	24(%rsi), %rax
ffffff8000203d01: 48 89 44 24 20       	movq	%rax, 32(%rsp)
ffffff8000203d06: 48 8b 46 10          	movq	16(%rsi), %rax
ffffff8000203d0a: 48 89 44 24 18       	movq	%rax, 24(%rsp)
ffffff8000203d0f: 48 8b 06             	movq	(%rsi), %rax
ffffff8000203d12: 48 8b 4e 08          	movq	8(%rsi), %rcx
ffffff8000203d16: 48 89 4c 24 10       	movq	%rcx, 16(%rsp)
ffffff8000203d1b: 48 89 44 24 08       	movq	%rax, 8(%rsp)
ffffff8000203d20: 48 8d 35 a9 c7 00 00 	leaq	51113(%rip), %rsi       # 0xffffff80002104d0 <_ZN5axhal8platform6pc_x864time12CPU_FREQ_MHZ17hcbee90971ca93e77E.0+0x348>
ffffff8000203d27: 48 89 e7             	movq	%rsp, %rdi
ffffff8000203d2a: 48 8d 54 24 08       	leaq	8(%rsp), %rdx
ffffff8000203d2f: e8 8c 26 00 00       	callq	0xffffff80002063c0 <_ZN4core3fmt5write17h3e64ac24810c32e1E>
ffffff8000203d34: 48 83 c4 38          	addq	$56, %rsp
ffffff8000203d38: c3                   	retq
ffffff8000203d39: cc                   	int3
ffffff8000203d3a: cc                   	int3
ffffff8000203d3b: cc                   	int3
ffffff8000203d3c: cc                   	int3
ffffff8000203d3d: cc                   	int3
ffffff8000203d3e: cc                   	int3
ffffff8000203d3f: cc                   	int3

ffffff8000203d40 <_ZN42_$LT$axlog..Logger$u20$as$u20$log..Log$GT$5flush17h33c5572f0f0b2e53E>:
ffffff8000203d40: c3                   	retq
ffffff8000203d41: cc                   	int3
ffffff8000203d42: cc                   	int3
ffffff8000203d43: cc                   	int3
ffffff8000203d44: cc                   	int3
ffffff8000203d45: cc                   	int3
ffffff8000203d46: cc                   	int3
ffffff8000203d47: cc                   	int3
ffffff8000203d48: cc                   	int3
ffffff8000203d49: cc                   	int3
ffffff8000203d4a: cc                   	int3
ffffff8000203d4b: cc                   	int3
ffffff8000203d4c: cc                   	int3
ffffff8000203d4d: cc                   	int3
ffffff8000203d4e: cc                   	int3
ffffff8000203d4f: cc                   	int3

ffffff8000203d50 <_ZN42_$LT$axlog..Logger$u20$as$u20$log..Log$GT$7enabled17heb3d5bee78d6c7daE>:
ffffff8000203d50: b0 01                	movb	$1, %al
ffffff8000203d52: c3                   	retq
ffffff8000203d53: cc                   	int3
ffffff8000203d54: cc                   	int3
ffffff8000203d55: cc                   	int3
ffffff8000203d56: cc                   	int3
ffffff8000203d57: cc                   	int3
ffffff8000203d58: cc                   	int3
ffffff8000203d59: cc                   	int3
ffffff8000203d5a: cc                   	int3
ffffff8000203d5b: cc                   	int3
ffffff8000203d5c: cc                   	int3
ffffff8000203d5d: cc                   	int3
ffffff8000203d5e: cc                   	int3
ffffff8000203d5f: cc                   	int3

ffffff8000203d60 <_ZN44_$LT$$RF$T$u20$as$u20$core..fmt..Display$GT$3fmt17h139eaa3563ce31caE>:
ffffff8000203d60: 48 83 ec 38          	subq	$56, %rsp
ffffff8000203d64: 48 8b 07             	movq	(%rdi), %rax
ffffff8000203d67: 48 8b 3e             	movq	(%rsi), %rdi
ffffff8000203d6a: 48 8b 76 08          	movq	8(%rsi), %rsi
ffffff8000203d6e: 48 8b 48 28          	movq	40(%rax), %rcx
ffffff8000203d72: 48 89 4c 24 30       	movq	%rcx, 48(%rsp)
ffffff8000203d77: 48 8b 48 20          	movq	32(%rax), %rcx
ffffff8000203d7b: 48 89 4c 24 28       	movq	%rcx, 40(%rsp)
ffffff8000203d80: 48 8b 48 18          	movq	24(%rax), %rcx
ffffff8000203d84: 48 89 4c 24 20       	movq	%rcx, 32(%rsp)
ffffff8000203d89: 48 8b 48 10          	movq	16(%rax), %rcx
ffffff8000203d8d: 48 89 4c 24 18       	movq	%rcx, 24(%rsp)
ffffff8000203d92: 48 8b 08             	movq	(%rax), %rcx
ffffff8000203d95: 48 8b 40 08          	movq	8(%rax), %rax
ffffff8000203d99: 48 89 44 24 10       	movq	%rax, 16(%rsp)
ffffff8000203d9e: 48 89 4c 24 08       	movq	%rcx, 8(%rsp)
ffffff8000203da3: 48 8d 54 24 08       	leaq	8(%rsp), %rdx
ffffff8000203da8: e8 13 26 00 00       	callq	0xffffff80002063c0 <_ZN4core3fmt5write17h3e64ac24810c32e1E>
ffffff8000203dad: 48 83 c4 38          	addq	$56, %rsp
ffffff8000203db1: c3                   	retq
ffffff8000203db2: cc                   	int3
ffffff8000203db3: cc                   	int3
ffffff8000203db4: cc                   	int3
ffffff8000203db5: cc                   	int3
ffffff8000203db6: cc                   	int3
ffffff8000203db7: cc                   	int3
ffffff8000203db8: cc                   	int3
ffffff8000203db9: cc                   	int3
ffffff8000203dba: cc                   	int3
ffffff8000203dbb: cc                   	int3
ffffff8000203dbc: cc                   	int3
ffffff8000203dbd: cc                   	int3
ffffff8000203dbe: cc                   	int3
ffffff8000203dbf: cc                   	int3

ffffff8000203dc0 <rust_main>:
ffffff8000203dc0: 55                   	pushq	%rbp
ffffff8000203dc1: 41 57                	pushq	%r15
ffffff8000203dc3: 41 56                	pushq	%r14
ffffff8000203dc5: 41 55                	pushq	%r13
ffffff8000203dc7: 41 54                	pushq	%r12
ffffff8000203dc9: 53                   	pushq	%rbx
ffffff8000203dca: 48 81 ec 68 02 00 00 	subq	$616, %rsp              # imm = 0x268
ffffff8000203dd1: 48 89 bc 24 f0 00 00 00      	movq	%rdi, 240(%rsp)
ffffff8000203dd9: 48 89 b4 24 38 02 00 00      	movq	%rsi, 568(%rsp)
ffffff8000203de1: 48 8d 05 98 c8 00 00 	leaq	51352(%rip), %rax       # 0xffffff8000210680 <_ZN5axhal8platform6pc_x864time12CPU_FREQ_MHZ17hcbee90971ca93e77E.0+0x4f8>
ffffff8000203de8: 48 89 84 24 f8 00 00 00      	movq	%rax, 248(%rsp)
ffffff8000203df0: 48 8d 1d e9 43 00 00 	leaq	17385(%rip), %rbx       # 0xffffff80002081e0 <_ZN44_$LT$$RF$T$u20$as$u20$core..fmt..Display$GT$3fmt17h826ed5806fed4bf7E>
ffffff8000203df7: 48 89 9c 24 00 01 00 00      	movq	%rbx, 256(%rsp)
ffffff8000203dff: 9c                   	pushfq
ffffff8000203e00: 5d                   	popq	%rbp
ffffff8000203e01: fa                   	cli
ffffff8000203e02: 4c 8d 74 24 08       	leaq	8(%rsp), %r14
ffffff8000203e07: 4c 89 b4 24 b0 01 00 00      	movq	%r14, 432(%rsp)
ffffff8000203e0f: 48 c7 44 24 10 00 00 00 00   	movq	$0, 16(%rsp)
ffffff8000203e18: 48 8d 05 41 c8 00 00 	leaq	51265(%rip), %rax       # 0xffffff8000210660 <_ZN5axhal8platform6pc_x864time12CPU_FREQ_MHZ17hcbee90971ca93e77E.0+0x4d8>
ffffff8000203e1f: 48 89 44 24 20       	movq	%rax, 32(%rsp)
ffffff8000203e24: 48 c7 44 24 28 02 00 00 00   	movq	$2, 40(%rsp)
ffffff8000203e2d: 48 8d 84 24 f8 00 00 00      	leaq	248(%rsp), %rax
ffffff8000203e35: 48 89 44 24 30       	movq	%rax, 48(%rsp)
ffffff8000203e3a: 48 c7 44 24 38 01 00 00 00   	movq	$1, 56(%rsp)
ffffff8000203e43: 48 8d 35 86 c6 00 00 	leaq	50822(%rip), %rsi       # 0xffffff80002104d0 <_ZN5axhal8platform6pc_x864time12CPU_FREQ_MHZ17hcbee90971ca93e77E.0+0x348>
ffffff8000203e4a: 4c 8d bc 24 b0 01 00 00      	leaq	432(%rsp), %r15
ffffff8000203e52: 4c 8d 64 24 10       	leaq	16(%rsp), %r12
ffffff8000203e57: 4c 89 ff             	movq	%r15, %rdi
ffffff8000203e5a: 4c 89 e2             	movq	%r12, %rdx
ffffff8000203e5d: e8 5e 25 00 00       	callq	0xffffff80002063c0 <_ZN4core3fmt5write17h3e64ac24810c32e1E>
ffffff8000203e62: 84 c0                	testb	%al, %al
ffffff8000203e64: 0f 85 4e 01 00 00    	jne	0xffffff8000203fb8 <rust_main+0x1f8>
ffffff8000203e6a: f7 c5 00 02 00 00    	testl	$512, %ebp              # imm = 0x200
ffffff8000203e70: 75 03                	jne	0xffffff8000203e75 <rust_main+0xb5>
ffffff8000203e72: fa                   	cli
ffffff8000203e73: eb 01                	jmp	0xffffff8000203e76 <rust_main+0xb6>
ffffff8000203e75: fb                   	sti
ffffff8000203e76: 48 8d 05 13 63 00 00 	leaq	25363(%rip), %rax       # 0xffffff800020a190 <str.0+0x470>
ffffff8000203e7d: 48 89 84 24 48 02 00 00      	movq	%rax, 584(%rsp)
ffffff8000203e85: 48 c7 84 24 50 02 00 00 06 00 00 00  	movq	$6, 592(%rsp)
ffffff8000203e91: 48 8d 05 fe 62 00 00 	leaq	25342(%rip), %rax       # 0xffffff800020a196 <str.0+0x476>
ffffff8000203e98: 48 89 84 24 58 02 00 00      	movq	%rax, 600(%rsp)
ffffff8000203ea0: 48 c7 84 24 60 02 00 00 06 00 00 00  	movq	$6, 608(%rsp)
ffffff8000203eac: 48 8d 05 e9 62 00 00 	leaq	25321(%rip), %rax       # 0xffffff800020a19c <str.0+0x47c>
ffffff8000203eb3: 48 89 84 24 78 01 00 00      	movq	%rax, 376(%rsp)
ffffff8000203ebb: 48 c7 84 24 80 01 00 00 01 00 00 00  	movq	$1, 384(%rsp)
ffffff8000203ec7: 48 8d 05 cf 62 00 00 	leaq	25295(%rip), %rax       # 0xffffff800020a19d <str.0+0x47d>
ffffff8000203ece: 48 89 84 24 88 01 00 00      	movq	%rax, 392(%rsp)
ffffff8000203ed6: 48 c7 84 24 90 01 00 00 07 00 00 00  	movq	$7, 400(%rsp)
ffffff8000203ee2: 48 8d 05 bb 62 00 00 	leaq	25275(%rip), %rax       # 0xffffff800020a1a4 <str.0+0x484>
ffffff8000203ee9: 48 89 84 24 b0 01 00 00      	movq	%rax, 432(%rsp)
ffffff8000203ef1: 48 c7 84 24 b8 01 00 00 05 00 00 00  	movq	$5, 440(%rsp)
ffffff8000203efd: 48 8d 84 24 48 02 00 00      	leaq	584(%rsp), %rax
ffffff8000203f05: 48 89 44 24 10       	movq	%rax, 16(%rsp)
ffffff8000203f0a: 48 89 5c 24 18       	movq	%rbx, 24(%rsp)
ffffff8000203f0f: 48 8d 84 24 58 02 00 00      	leaq	600(%rsp), %rax
ffffff8000203f17: 48 89 44 24 20       	movq	%rax, 32(%rsp)
ffffff8000203f1c: 48 89 5c 24 28       	movq	%rbx, 40(%rsp)
ffffff8000203f21: 48 8d 84 24 78 01 00 00      	leaq	376(%rsp), %rax
ffffff8000203f29: 48 89 44 24 30       	movq	%rax, 48(%rsp)
ffffff8000203f2e: 48 89 5c 24 38       	movq	%rbx, 56(%rsp)
ffffff8000203f33: 48 8d 84 24 88 01 00 00      	leaq	392(%rsp), %rax
ffffff8000203f3b: 48 89 44 24 40       	movq	%rax, 64(%rsp)
ffffff8000203f40: 48 89 5c 24 48       	movq	%rbx, 72(%rsp)
ffffff8000203f45: 4c 89 7c 24 50       	movq	%r15, 80(%rsp)
ffffff8000203f4a: 48 89 5c 24 58       	movq	%rbx, 88(%rsp)
ffffff8000203f4f: 9c                   	pushfq
ffffff8000203f50: 5d                   	popq	%rbp
ffffff8000203f51: fa                   	cli
ffffff8000203f52: 4c 89 b4 24 40 02 00 00      	movq	%r14, 576(%rsp)
ffffff8000203f5a: 48 c7 84 24 f8 00 00 00 00 00 00 00  	movq	$0, 248(%rsp)
ffffff8000203f66: 48 8d 05 23 c7 00 00 	leaq	50979(%rip), %rax       # 0xffffff8000210690 <_ZN5axhal8platform6pc_x864time12CPU_FREQ_MHZ17hcbee90971ca93e77E.0+0x508>
ffffff8000203f6d: 48 89 84 24 08 01 00 00      	movq	%rax, 264(%rsp)
ffffff8000203f75: 48 c7 84 24 10 01 00 00 06 00 00 00  	movq	$6, 272(%rsp)
ffffff8000203f81: 4c 89 a4 24 18 01 00 00      	movq	%r12, 280(%rsp)
ffffff8000203f89: 48 c7 84 24 20 01 00 00 05 00 00 00  	movq	$5, 288(%rsp)
ffffff8000203f95: 48 8d 35 34 c5 00 00 	leaq	50484(%rip), %rsi       # 0xffffff80002104d0 <_ZN5axhal8platform6pc_x864time12CPU_FREQ_MHZ17hcbee90971ca93e77E.0+0x348>
ffffff8000203f9c: 48 8d bc 24 40 02 00 00      	leaq	576(%rsp), %rdi
ffffff8000203fa4: 48 8d 9c 24 f8 00 00 00      	leaq	248(%rsp), %rbx
ffffff8000203fac: 48 89 da             	movq	%rbx, %rdx
ffffff8000203faf: e8 0c 24 00 00       	callq	0xffffff80002063c0 <_ZN4core3fmt5write17h3e64ac24810c32e1E>
ffffff8000203fb4: 84 c0                	testb	%al, %al
ffffff8000203fb6: 74 26                	je	0xffffff8000203fde <rust_main+0x21e>
ffffff8000203fb8: 48 8d 3d bb 6f 00 00 	leaq	28603(%rip), %rdi       # 0xffffff800020af7a <_ZN4core7unicode12unicode_data15grapheme_extend7OFFSETS17ha79b4a14ed4d5bccE+0x322>
ffffff8000203fbf: 48 8d 0d da c5 00 00 	leaq	50650(%rip), %rcx       # 0xffffff80002105a0 <_ZN5axhal8platform6pc_x864time12CPU_FREQ_MHZ17hcbee90971ca93e77E.0+0x418>
ffffff8000203fc6: 4c 8d 05 f3 c5 00 00 	leaq	50675(%rip), %r8        # 0xffffff80002105c0 <_ZN5axhal8platform6pc_x864time12CPU_FREQ_MHZ17hcbee90971ca93e77E.0+0x438>
ffffff8000203fcd: 48 8d 54 24 08       	leaq	8(%rsp), %rdx
ffffff8000203fd2: be 2b 00 00 00       	movl	$43, %esi
ffffff8000203fd7: e8 74 2a 00 00       	callq	0xffffff8000206a50 <_ZN4core6result13unwrap_failed17he358196271332538E>
ffffff8000203fdc: 0f 0b                	ud2
ffffff8000203fde: f7 c5 00 02 00 00    	testl	$512, %ebp              # imm = 0x200
ffffff8000203fe4: 75 03                	jne	0xffffff8000203fe9 <rust_main+0x229>
ffffff8000203fe6: fa                   	cli
ffffff8000203fe7: eb 01                	jmp	0xffffff8000203fea <rust_main+0x22a>
ffffff8000203fe9: fb                   	sti
ffffff8000203fea: b9 01 00 00 00       	movl	$1, %ecx
ffffff8000203fef: 31 c0                	xorl	%eax, %eax
ffffff8000203ff1: f0                   	lock
ffffff8000203ff2: 48 0f b1 0d 2e f0 04 00      	cmpxchgq	%rcx, 323630(%rip) # 0xffffff8000253028 <_ZN5libax2io5stdio6stdout8INSTANCE17h4c5dc04dc8abc6f2E>
ffffff8000203ffa: 48 85 c0             	testq	%rax, %rax
ffffff8000203ffd: 74 46                	je	0xffffff8000204045 <rust_main+0x285>
ffffff8000203fff: 48 83 f8 01          	cmpq	$1, %rax
ffffff8000204003: 74 0d                	je	0xffffff8000204012 <rust_main+0x252>
ffffff8000204005: eb 18                	jmp	0xffffff800020401f <rust_main+0x25f>
ffffff8000204007: 66 0f 1f 84 00 00 00 00 00   	nopw	(%rax,%rax)
ffffff8000204010: f3 90                	pause
ffffff8000204012: 48 8b 05 0f f0 04 00 	movq	323599(%rip), %rax      # 0xffffff8000253028 <_ZN5libax2io5stdio6stdout8INSTANCE17h4c5dc04dc8abc6f2E>
ffffff8000204019: 48 83 f8 01          	cmpq	$1, %rax
ffffff800020401d: 74 f1                	je	0xffffff8000204010 <rust_main+0x250>
ffffff800020401f: 48 8d 3d 54 6f 00 00 	leaq	28500(%rip), %rdi       # 0xffffff800020af7a <_ZN4core7unicode12unicode_data15grapheme_extend7OFFSETS17ha79b4a14ed4d5bccE+0x322>
ffffff8000204026: 48 8d 0d fb c5 00 00 	leaq	50683(%rip), %rcx       # 0xffffff8000210628 <_ZN5axhal8platform6pc_x864time12CPU_FREQ_MHZ17hcbee90971ca93e77E.0+0x4a0>
ffffff800020402d: 4c 8d 05 14 c6 00 00 	leaq	50708(%rip), %r8        # 0xffffff8000210648 <_ZN5axhal8platform6pc_x864time12CPU_FREQ_MHZ17hcbee90971ca93e77E.0+0x4c0>
ffffff8000204034: 48 8d 54 24 08       	leaq	8(%rsp), %rdx
ffffff8000204039: be 2b 00 00 00       	movl	$43, %esi
ffffff800020403e: e8 0d 2a 00 00       	callq	0xffffff8000206a50 <_ZN4core6result13unwrap_failed17he358196271332538E>
ffffff8000204043: 0f 0b                	ud2
ffffff8000204045: 48 8d 05 a4 c5 00 00 	leaq	50596(%rip), %rax       # 0xffffff80002105f0 <_ZN5axhal8platform6pc_x864time12CPU_FREQ_MHZ17hcbee90971ca93e77E.0+0x468>
ffffff800020404c: 48 89 05 ad cb 00 00 	movq	%rax, 52141(%rip)       # 0xffffff8000210c00 <_ZN3log6LOGGER17h48756037b7073395E.1>
ffffff8000204053: b8 02 00 00 00       	movl	$2, %eax
ffffff8000204058: 48 87 05 c9 ef 04 00 	xchgq	%rax, 323529(%rip)      # 0xffffff8000253028 <_ZN5libax2io5stdio6stdout8INSTANCE17h4c5dc04dc8abc6f2E>
ffffff800020405f: 48 c7 05 c6 ef 04 00 02 00 00 00     	movq	$2, 323526(%rip) # 0xffffff8000253030 <_ZN3log20MAX_LOG_LEVEL_FILTER17h9ec50564a00176a0E.0>
ffffff800020406a: 48 c7 05 bb ef 04 00 05 00 00 00     	movq	$5, 323515(%rip) # 0xffffff8000253030 <_ZN3log20MAX_LOG_LEVEL_FILTER17h9ec50564a00176a0E.0>
ffffff8000204075: 48 8b 05 b4 ef 04 00 	movq	323508(%rip), %rax      # 0xffffff8000253030 <_ZN3log20MAX_LOG_LEVEL_FILTER17h9ec50564a00176a0E.0>
ffffff800020407c: 48 83 f8 03          	cmpq	$3, %rax
ffffff8000204080: 0f 83 65 0a 00 00    	jae	0xffffff8000204aeb <rust_main+0xd2b>
ffffff8000204086: 48 8b 05 a3 ef 04 00 	movq	323491(%rip), %rax      # 0xffffff8000253030 <_ZN3log20MAX_LOG_LEVEL_FILTER17h9ec50564a00176a0E.0>
ffffff800020408d: 49 be 00 00 00 00 20 00 00 00	movabsq	$137438953472, %r14 # imm = 0x2000000000
ffffff8000204097: 48 83 f8 03          	cmpq	$3, %rax
ffffff800020409b: 0f 83 2d 0b 00 00    	jae	0xffffff8000204bce <rust_main+0xe0e>
ffffff80002040a1: 48 8b 05 88 ef 04 00 	movq	323464(%rip), %rax      # 0xffffff8000253030 <_ZN3log20MAX_LOG_LEVEL_FILTER17h9ec50564a00176a0E.0>
ffffff80002040a8: 48 83 f8 02          	cmpq	$2, %rax
ffffff80002040ac: 0f 86 c8 00 00 00    	jbe	0xffffff800020417a <rust_main+0x3ba>
ffffff80002040b2: 48 8b 05 6f ef 04 00 	movq	323439(%rip), %rax      # 0xffffff8000253028 <_ZN5libax2io5stdio6stdout8INSTANCE17h4c5dc04dc8abc6f2E>
ffffff80002040b9: 48 83 f8 02          	cmpq	$2, %rax
ffffff80002040bd: 48 8d 05 04 cb 00 00 	leaq	51972(%rip), %rax       # 0xffffff8000210bc8 <_ZN5axhal8platform6pc_x864time12CPU_FREQ_MHZ17hcbee90971ca93e77E.0+0xa40>
ffffff80002040c4: 48 0f 44 05 34 cb 00 00      	cmoveq	52020(%rip), %rax # 0xffffff8000210c00 <_ZN3log6LOGGER17h48756037b7073395E.1>
ffffff80002040cc: 48 8b 0d 3d cc 00 00 	movq	52285(%rip), %rcx       # 0xffffff8000210d10 <_ZN3log6LOGGER17h48756037b7073395E.1+0x110>
ffffff80002040d3: 48 8d 3d cd 6e 00 00 	leaq	28365(%rip), %rdi       # 0xffffff800020afa7 <_ZN3log6logger3NOP17hf5a5c7f8a7401e67E>
ffffff80002040da: 48 0f 44 f9          	cmoveq	%rcx, %rdi
ffffff80002040de: 48 8d 15 d7 60 00 00 	leaq	24791(%rip), %rdx       # 0xffffff800020a1bc <str.0+0x49c>
ffffff80002040e5: 48 89 54 24 48       	movq	%rdx, 72(%rsp)
ffffff80002040ea: 48 c7 44 24 50 09 00 00 00   	movq	$9, 80(%rsp)
ffffff80002040f3: 48 c7 44 24 58 03 00 00 00   	movq	$3, 88(%rsp)
ffffff80002040fc: 48 c7 44 24 10 00 00 00 00   	movq	$0, 16(%rsp)
ffffff8000204105: 48 8d 35 24 c6 00 00 	leaq	50724(%rip), %rsi       # 0xffffff8000210730 <_ZN5axhal8platform6pc_x864time12CPU_FREQ_MHZ17hcbee90971ca93e77E.0+0x5a8>
ffffff800020410c: 48 89 74 24 20       	movq	%rsi, 32(%rsp)
ffffff8000204111: 48 c7 44 24 28 01 00 00 00   	movq	$1, 40(%rsp)
ffffff800020411a: 48 89 4c 24 30       	movq	%rcx, 48(%rsp)
ffffff800020411f: 48 c7 44 24 38 00 00 00 00   	movq	$0, 56(%rsp)
ffffff8000204128: 48 c7 44 24 60 00 00 00 00   	movq	$0, 96(%rsp)
ffffff8000204131: 48 89 54 24 68       	movq	%rdx, 104(%rsp)
ffffff8000204136: 48 c7 44 24 70 09 00 00 00   	movq	$9, 112(%rsp)
ffffff800020413f: 48 c7 44 24 78 00 00 00 00   	movq	$0, 120(%rsp)
ffffff8000204148: 48 8d 0d 76 60 00 00 	leaq	24694(%rip), %rcx       # 0xffffff800020a1c5 <str.0+0x4a5>
ffffff800020414f: 48 89 8c 24 80 00 00 00      	movq	%rcx, 128(%rsp)
ffffff8000204157: 48 c7 84 24 88 00 00 00 1c 00 00 00  	movq	$28, 136(%rsp)
ffffff8000204163: 48 b9 01 00 00 00 8f 00 00 00	movabsq	$614180323329, %rcx # imm = 0x8F00000001
ffffff800020416d: 48 89 4c 24 40       	movq	%rcx, 64(%rsp)
ffffff8000204172: 48 8d 74 24 10       	leaq	16(%rsp), %rsi
ffffff8000204177: ff 50 28             	callq	*40(%rax)
ffffff800020417a: 4c 8d 3d df 5b 00 00 	leaq	23519(%rip), %r15       # 0xffffff8000209d60 <str.0+0x40>
ffffff8000204181: 48 b8 ff 0f 00 00 80 00 00 00	movabsq	$549755817983, %rax # imm = 0x8000000FFF
ffffff800020418b: 48 03 05 be cb 00 00 	addq	52158(%rip), %rax       # 0xffffff8000210d50 <_ZN3log6LOGGER17h48756037b7073395E.1+0x150>
ffffff8000204192: 49 83 c7 98          	addq	$-104, %r15
ffffff8000204196: 48 25 00 f0 ff ff    	andq	$-4096, %rax            # imm = 0xF000
ffffff800020419c: b9 00 00 00 08       	movl	$134217728, %ecx        # imm = 0x8000000
ffffff80002041a1: 48 89 84 24 30 02 00 00      	movq	%rax, 560(%rsp)
ffffff80002041a9: 48 29 c1             	subq	%rax, %rcx
ffffff80002041ac: 48 89 8c 24 28 02 00 00      	movq	%rcx, 552(%rsp)
ffffff80002041b4: 48 8b 05 9d cb 00 00 	movq	52125(%rip), %rax       # 0xffffff8000210d58 <_ZN3log6LOGGER17h48756037b7073395E.1+0x158>
ffffff80002041bb: 48 8b 0d 9e cb 00 00 	movq	52126(%rip), %rcx       # 0xffffff8000210d60 <_ZN3log6LOGGER17h48756037b7073395E.1+0x160>
ffffff80002041c2: 48 29 c1             	subq	%rax, %rcx
ffffff80002041c5: 48 89 8c 24 18 02 00 00      	movq	%rcx, 536(%rsp)
ffffff80002041cd: 48 b9 00 00 00 00 80 00 00 00	movabsq	$549755813888, %rcx # imm = 0x8000000000
ffffff80002041d7: 48 01 c8             	addq	%rcx, %rax
ffffff80002041da: 48 89 84 24 20 02 00 00      	movq	%rax, 544(%rsp)
ffffff80002041e2: 48 8b 05 7f cb 00 00 	movq	52095(%rip), %rax       # 0xffffff8000210d68 <_ZN3log6LOGGER17h48756037b7073395E.1+0x168>
ffffff80002041e9: 48 2b 05 80 cb 00 00 	subq	52096(%rip), %rax       # 0xffffff8000210d70 <_ZN3log6LOGGER17h48756037b7073395E.1+0x170>
ffffff80002041f0: 48 89 84 24 10 02 00 00      	movq	%rax, 528(%rsp)
ffffff80002041f8: 48 8b 05 21 cb 00 00 	movq	52001(%rip), %rax       # 0xffffff8000210d20 <_ZN3log6LOGGER17h48756037b7073395E.1+0x120>
ffffff80002041ff: 48 2b 05 72 cb 00 00 	subq	52082(%rip), %rax       # 0xffffff8000210d78 <_ZN3log6LOGGER17h48756037b7073395E.1+0x178>
ffffff8000204206: 48 89 84 24 08 02 00 00      	movq	%rax, 520(%rsp)
ffffff800020420e: 48 8b 05 6b cb 00 00 	movq	52075(%rip), %rax       # 0xffffff8000210d80 <_ZN3log6LOGGER17h48756037b7073395E.1+0x180>
ffffff8000204215: 48 2b 05 2c cb 00 00 	subq	52012(%rip), %rax       # 0xffffff8000210d48 <_ZN3log6LOGGER17h48756037b7073395E.1+0x148>
ffffff800020421c: 48 89 84 24 00 02 00 00      	movq	%rax, 512(%rsp)
ffffff8000204224: 48 8b 05 5d cb 00 00 	movq	52061(%rip), %rax       # 0xffffff8000210d88 <_ZN3log6LOGGER17h48756037b7073395E.1+0x188>
ffffff800020422b: 48 2b 05 5e cb 00 00 	subq	52062(%rip), %rax       # 0xffffff8000210d90 <_ZN3log6LOGGER17h48756037b7073395E.1+0x190>
ffffff8000204232: 48 89 84 24 f8 01 00 00      	movq	%rax, 504(%rsp)
ffffff800020423a: 48 8b 05 e7 ca 00 00 	movq	51943(%rip), %rax       # 0xffffff8000210d28 <_ZN3log6LOGGER17h48756037b7073395E.1+0x128>
ffffff8000204241: 48 2b 05 e8 ca 00 00 	subq	51944(%rip), %rax       # 0xffffff8000210d30 <_ZN3log6LOGGER17h48756037b7073395E.1+0x130>
ffffff8000204248: 48 89 84 24 f0 01 00 00      	movq	%rax, 496(%rsp)
ffffff8000204250: 45 31 e4             	xorl	%r12d, %r12d
ffffff8000204253: 4c 8d 2d 86 45 00 00 	leaq	17798(%rip), %r13       # 0xffffff80002087e0 <_ZN58_$LT$memory_addr..PhysAddr$u20$as$u20$core..fmt..Debug$GT$3fmt17hbf203c75531fc3ccE>
ffffff800020425a: 48 bd 10 00 00 00 20 00 00 00	movabsq	$137438953488, %rbp # imm = 0x2000000010
ffffff8000204264: eb 11                	jmp	0xffffff8000204277 <rust_main+0x4b7>
ffffff8000204266: 66 2e 0f 1f 84 00 00 00 00 00	nopw	%cs:(%rax,%rax)
ffffff8000204270: 49 83 c7 10          	addq	$16, %r15
ffffff8000204274: 49 ff c4             	incq	%r12
ffffff8000204277: 4d 85 e4             	testq	%r12, %r12
ffffff800020427a: 74 44                	je	0xffffff80002042c0 <rust_main+0x500>
ffffff800020427c: 49 83 fc 0d          	cmpq	$13, %r12
ffffff8000204280: 0f 84 18 04 00 00    	je	0xffffff800020469e <rust_main+0x8de>
ffffff8000204286: 49 83 fc 0b          	cmpq	$11, %r12
ffffff800020428a: 0f 86 c0 02 00 00    	jbe	0xffffff8000204550 <rust_main+0x790>
ffffff8000204290: b8 43 00 00 00       	movl	$67, %eax
ffffff8000204295: ba 0b 00 00 00       	movl	$11, %edx
ffffff800020429a: 48 8d 35 87 5c 00 00 	leaq	23687(%rip), %rsi       # 0xffffff8000209f28 <str.0+0x208>
ffffff80002042a1: 48 8b 8c 24 30 02 00 00      	movq	560(%rsp), %rcx
ffffff80002042a9: 48 8b bc 24 28 02 00 00      	movq	552(%rsp), %rdi
ffffff80002042b1: eb 26                	jmp	0xffffff80002042d9 <rust_main+0x519>
ffffff80002042b3: 66 66 66 66 2e 0f 1f 84 00 00 00 00 00       	nopw	%cs:(%rax,%rax)
ffffff80002042c0: b8 23 00 00 00       	movl	$35, %eax
ffffff80002042c5: bf 00 f0 09 00       	movl	$651264, %edi           # imm = 0x9F000
ffffff80002042ca: ba 0a 00 00 00       	movl	$10, %edx
ffffff80002042cf: 48 8d 35 5d 5c 00 00 	leaq	23645(%rip), %rsi       # 0xffffff8000209f33 <str.0+0x213>
ffffff80002042d6: 4c 89 e1             	movq	%r12, %rcx
ffffff80002042d9: 48 89 b4 24 88 01 00 00      	movq	%rsi, 392(%rsp)
ffffff80002042e1: 48 89 94 24 90 01 00 00      	movq	%rdx, 400(%rsp)
ffffff80002042e9: 48 89 8c 24 98 01 00 00      	movq	%rcx, 408(%rsp)
ffffff80002042f1: 48 89 bc 24 a0 01 00 00      	movq	%rdi, 416(%rsp)
ffffff80002042f9: 48 89 84 24 a8 01 00 00      	movq	%rax, 424(%rsp)
ffffff8000204301: 48 8b 05 28 ed 04 00 	movq	322856(%rip), %rax      # 0xffffff8000253030 <_ZN3log20MAX_LOG_LEVEL_FILTER17h9ec50564a00176a0E.0>
ffffff8000204308: 48 83 f8 02          	cmpq	$2, %rax
ffffff800020430c: 0f 86 5e ff ff ff    	jbe	0xffffff8000204270 <rust_main+0x4b0>
ffffff8000204312: 48 01 cf             	addq	%rcx, %rdi
ffffff8000204315: 48 89 bc 24 78 01 00 00      	movq	%rdi, 376(%rsp)
ffffff800020431d: 48 8d 84 24 98 01 00 00      	leaq	408(%rsp), %rax
ffffff8000204325: 48 89 84 24 b0 01 00 00      	movq	%rax, 432(%rsp)
ffffff800020432d: 4c 89 ac 24 b8 01 00 00      	movq	%r13, 440(%rsp)
ffffff8000204335: 48 8d 84 24 78 01 00 00      	leaq	376(%rsp), %rax
ffffff800020433d: 48 89 84 24 c0 01 00 00      	movq	%rax, 448(%rsp)
ffffff8000204345: 4c 89 ac 24 c8 01 00 00      	movq	%r13, 456(%rsp)
ffffff800020434d: 48 8d 84 24 88 01 00 00      	leaq	392(%rsp), %rax
ffffff8000204355: 48 89 84 24 d0 01 00 00      	movq	%rax, 464(%rsp)
ffffff800020435d: 48 8d 05 7c 3e 00 00 	leaq	15996(%rip), %rax       # 0xffffff80002081e0 <_ZN44_$LT$$RF$T$u20$as$u20$core..fmt..Display$GT$3fmt17h826ed5806fed4bf7E>
ffffff8000204364: 48 89 84 24 d8 01 00 00      	movq	%rax, 472(%rsp)
ffffff800020436c: 48 8d 84 24 a8 01 00 00      	leaq	424(%rsp), %rax
ffffff8000204374: 48 89 84 24 e0 01 00 00      	movq	%rax, 480(%rsp)
ffffff800020437c: 48 8d 05 dd e6 ff ff 	leaq	-6435(%rip), %rax       # 0xffffff8000202a60 <_ZN63_$LT$axhal..mem..MemRegionFlags$u20$as$u20$core..fmt..Debug$GT$3fmt17h95d3bccb79f875e8E>
ffffff8000204383: 48 89 84 24 e8 01 00 00      	movq	%rax, 488(%rsp)
ffffff800020438b: 48 c7 44 24 10 02 00 00 00   	movq	$2, 16(%rsp)
ffffff8000204394: 48 c7 44 24 20 02 00 00 00   	movq	$2, 32(%rsp)
ffffff800020439d: 48 89 6c 24 30       	movq	%rbp, 48(%rsp)
ffffff80002043a2: c6 44 24 38 03       	movb	$3, 56(%rsp)
ffffff80002043a7: 48 c7 44 24 40 00 00 00 00   	movq	$0, 64(%rsp)
ffffff80002043b0: 48 c7 44 24 48 02 00 00 00   	movq	$2, 72(%rsp)
ffffff80002043b9: 48 c7 44 24 58 02 00 00 00   	movq	$2, 88(%rsp)
ffffff80002043c2: 48 89 6c 24 68       	movq	%rbp, 104(%rsp)
ffffff80002043c7: c6 44 24 70 03       	movb	$3, 112(%rsp)
ffffff80002043cc: 48 c7 44 24 78 01 00 00 00   	movq	$1, 120(%rsp)
ffffff80002043d5: 48 c7 84 24 80 00 00 00 02 00 00 00  	movq	$2, 128(%rsp)
ffffff80002043e1: 48 c7 84 24 90 00 00 00 02 00 00 00  	movq	$2, 144(%rsp)
ffffff80002043ed: 4c 89 b4 24 a0 00 00 00      	movq	%r14, 160(%rsp)
ffffff80002043f5: c6 84 24 a8 00 00 00 03      	movb	$3, 168(%rsp)
ffffff80002043fd: 48 c7 84 24 b0 00 00 00 02 00 00 00  	movq	$2, 176(%rsp)
ffffff8000204409: 48 c7 84 24 b8 00 00 00 02 00 00 00  	movq	$2, 184(%rsp)
ffffff8000204415: 48 c7 84 24 c8 00 00 00 02 00 00 00  	movq	$2, 200(%rsp)
ffffff8000204421: 4c 89 b4 24 d8 00 00 00      	movq	%r14, 216(%rsp)
ffffff8000204429: c6 84 24 e0 00 00 00 03      	movb	$3, 224(%rsp)
ffffff8000204431: 48 c7 84 24 e8 00 00 00 03 00 00 00  	movq	$3, 232(%rsp)
ffffff800020443d: 48 8b 05 e4 eb 04 00 	movq	322532(%rip), %rax      # 0xffffff8000253028 <_ZN5libax2io5stdio6stdout8INSTANCE17h4c5dc04dc8abc6f2E>
ffffff8000204444: 48 83 f8 02          	cmpq	$2, %rax
ffffff8000204448: 48 8b 05 b1 c7 00 00 	movq	51121(%rip), %rax       # 0xffffff8000210c00 <_ZN3log6LOGGER17h48756037b7073395E.1>
ffffff800020444f: 48 8d 0d 72 c7 00 00 	leaq	51058(%rip), %rcx       # 0xffffff8000210bc8 <_ZN5axhal8platform6pc_x864time12CPU_FREQ_MHZ17hcbee90971ca93e77E.0+0xa40>
ffffff8000204456: 48 0f 45 c1          	cmovneq	%rcx, %rax
ffffff800020445a: 48 8d 3d 46 6b 00 00 	leaq	27462(%rip), %rdi       # 0xffffff800020afa7 <_ZN3log6logger3NOP17hf5a5c7f8a7401e67E>
ffffff8000204461: 48 0f 44 3d a7 c8 00 00      	cmoveq	51367(%rip), %rdi # 0xffffff8000210d10 <_ZN3log6LOGGER17h48756037b7073395E.1+0x110>
ffffff8000204469: 48 8d 0d 4c 5d 00 00 	leaq	23884(%rip), %rcx       # 0xffffff800020a1bc <str.0+0x49c>
ffffff8000204470: 48 89 8c 24 30 01 00 00      	movq	%rcx, 304(%rsp)
ffffff8000204478: 48 c7 84 24 38 01 00 00 09 00 00 00  	movq	$9, 312(%rsp)
ffffff8000204484: 48 c7 84 24 40 01 00 00 03 00 00 00  	movq	$3, 320(%rsp)
ffffff8000204490: 48 8d 54 24 10       	leaq	16(%rsp), %rdx
ffffff8000204495: 48 89 94 24 f8 00 00 00      	movq	%rdx, 248(%rsp)
ffffff800020449d: 48 c7 84 24 00 01 00 00 04 00 00 00  	movq	$4, 256(%rsp)
ffffff80002044a9: 48 8d 15 90 c2 00 00 	leaq	49808(%rip), %rdx       # 0xffffff8000210740 <_ZN5axhal8platform6pc_x864time12CPU_FREQ_MHZ17hcbee90971ca93e77E.0+0x5b8>
ffffff80002044b0: 48 89 94 24 08 01 00 00      	movq	%rdx, 264(%rsp)
ffffff80002044b8: 48 c7 84 24 10 01 00 00 05 00 00 00  	movq	$5, 272(%rsp)
ffffff80002044c4: 48 8d 94 24 b0 01 00 00      	leaq	432(%rsp), %rdx
ffffff80002044cc: 48 89 94 24 18 01 00 00      	movq	%rdx, 280(%rsp)
ffffff80002044d4: 48 c7 84 24 20 01 00 00 04 00 00 00  	movq	$4, 288(%rsp)
ffffff80002044e0: 48 c7 84 24 48 01 00 00 00 00 00 00  	movq	$0, 328(%rsp)
ffffff80002044ec: 48 89 8c 24 50 01 00 00      	movq	%rcx, 336(%rsp)
ffffff80002044f4: 48 c7 84 24 58 01 00 00 09 00 00 00  	movq	$9, 344(%rsp)
ffffff8000204500: 48 c7 84 24 60 01 00 00 00 00 00 00  	movq	$0, 352(%rsp)
ffffff800020450c: 48 8d 0d b2 5c 00 00 	leaq	23730(%rip), %rcx       # 0xffffff800020a1c5 <str.0+0x4a5>
ffffff8000204513: 48 89 8c 24 68 01 00 00      	movq	%rcx, 360(%rsp)
ffffff800020451b: 48 c7 84 24 70 01 00 00 1c 00 00 00  	movq	$28, 368(%rsp)
ffffff8000204527: 48 b9 01 00 00 00 91 00 00 00	movabsq	$622770257921, %rcx # imm = 0x9100000001
ffffff8000204531: 48 89 8c 24 28 01 00 00      	movq	%rcx, 296(%rsp)
ffffff8000204539: 48 8d b4 24 f8 00 00 00      	leaq	248(%rsp), %rsi
ffffff8000204541: ff 50 28             	callq	*40(%rax)
ffffff8000204544: e9 27 fd ff ff       	jmp	0xffffff8000204270 <rust_main+0x4b0>
ffffff8000204549: 0f 1f 80 00 00 00 00 	nopl	(%rax)
ffffff8000204550: 49 8d 4c 24 ff       	leaq	-1(%r12), %rcx
ffffff8000204555: 48 83 f9 05          	cmpq	$5, %rcx
ffffff8000204559: 77 63                	ja	0xffffff80002045be <rust_main+0x7fe>
ffffff800020455b: b8 25 00 00 00       	movl	$37, %eax
ffffff8000204560: ba 05 00 00 00       	movl	$5, %edx
ffffff8000204565: 48 8d 35 50 53 00 00 	leaq	21328(%rip), %rsi       # 0xffffff80002098bc <trap_handler_table+0x8bc>
ffffff800020456c: 48 63 1c 8e          	movslq	(%rsi,%rcx,4), %rbx
ffffff8000204570: 48 01 f3             	addq	%rsi, %rbx
ffffff8000204573: 48 8d 35 53 58 00 00 	leaq	22611(%rip), %rsi       # 0xffffff8000209dcd <str.0+0xad>
ffffff800020457a: 48 8b 8c 24 20 02 00 00      	movq	544(%rsp), %rcx
ffffff8000204582: 48 8b bc 24 18 02 00 00      	movq	536(%rsp), %rdi
ffffff800020458a: ff e3                	jmpq	*%rbx
ffffff800020458c: 48 b8 00 00 00 00 80 00 00 00	movabsq	$549755813888, %rax # imm = 0x8000000000
ffffff8000204596: 48 8b 0d d3 c7 00 00 	movq	51155(%rip), %rcx       # 0xffffff8000210d70 <_ZN3log6LOGGER17h48756037b7073395E.1+0x170>
ffffff800020459d: 48 01 c1             	addq	%rax, %rcx
ffffff80002045a0: b8 21 00 00 00       	movl	$33, %eax
ffffff80002045a5: ba 07 00 00 00       	movl	$7, %edx
ffffff80002045aa: 48 8d 35 15 58 00 00 	leaq	22549(%rip), %rsi       # 0xffffff8000209dc6 <str.0+0xa6>
ffffff80002045b1: 48 8b bc 24 10 02 00 00      	movq	528(%rsp), %rdi
ffffff80002045b9: e9 1b fd ff ff       	jmp	0xffffff80002042d9 <rust_main+0x519>
ffffff80002045be: 49 8b 4f f8          	movq	-8(%r15), %rcx
ffffff80002045c2: 49 8b 3f             	movq	(%r15), %rdi
ffffff80002045c5: b8 33 00 00 00       	movl	$51, %eax
ffffff80002045ca: ba 04 00 00 00       	movl	$4, %edx
ffffff80002045cf: 48 8d 35 72 55 00 00 	leaq	21874(%rip), %rsi       # 0xffffff8000209b48 <trap_handler_table+0xb48>
ffffff80002045d6: e9 fe fc ff ff       	jmp	0xffffff80002042d9 <rust_main+0x519>
ffffff80002045db: 48 b8 00 00 00 00 80 00 00 00	movabsq	$549755813888, %rax # imm = 0x8000000000
ffffff80002045e5: 48 8b 0d 8c c7 00 00 	movq	51084(%rip), %rcx       # 0xffffff8000210d78 <_ZN3log6LOGGER17h48756037b7073395E.1+0x178>
ffffff80002045ec: 48 01 c1             	addq	%rax, %rcx
ffffff80002045ef: b8 23 00 00 00       	movl	$35, %eax
ffffff80002045f4: 48 8d 35 c6 57 00 00 	leaq	22470(%rip), %rsi       # 0xffffff8000209dc1 <str.0+0xa1>
ffffff80002045fb: 48 8b bc 24 08 02 00 00      	movq	520(%rsp), %rdi
ffffff8000204603: e9 d1 fc ff ff       	jmp	0xffffff80002042d9 <rust_main+0x519>
ffffff8000204608: 48 b8 00 00 00 00 80 00 00 00	movabsq	$549755813888, %rax # imm = 0x8000000000
ffffff8000204612: 48 8b 0d 2f c7 00 00 	movq	50991(%rip), %rcx       # 0xffffff8000210d48 <_ZN3log6LOGGER17h48756037b7073395E.1+0x148>
ffffff8000204619: 48 01 c1             	addq	%rax, %rcx
ffffff800020461c: b8 23 00 00 00       	movl	$35, %eax
ffffff8000204621: ba 07 00 00 00       	movl	$7, %edx
ffffff8000204626: 48 8d 35 8d 57 00 00 	leaq	22413(%rip), %rsi       # 0xffffff8000209dba <str.0+0x9a>
ffffff800020462d: 48 8b bc 24 00 02 00 00      	movq	512(%rsp), %rdi
ffffff8000204635: e9 9f fc ff ff       	jmp	0xffffff80002042d9 <rust_main+0x519>
ffffff800020463a: 48 b8 00 00 00 00 80 00 00 00	movabsq	$549755813888, %rax # imm = 0x8000000000
ffffff8000204644: 48 8b 0d 45 c7 00 00 	movq	51013(%rip), %rcx       # 0xffffff8000210d90 <_ZN3log6LOGGER17h48756037b7073395E.1+0x190>
ffffff800020464b: 48 01 c1             	addq	%rax, %rcx
ffffff800020464e: b8 23 00 00 00       	movl	$35, %eax
ffffff8000204653: ba 0a 00 00 00       	movl	$10, %edx
ffffff8000204658: 48 8d 35 51 57 00 00 	leaq	22353(%rip), %rsi       # 0xffffff8000209db0 <str.0+0x90>
ffffff800020465f: 48 8b bc 24 f8 01 00 00      	movq	504(%rsp), %rdi
ffffff8000204667: e9 6d fc ff ff       	jmp	0xffffff80002042d9 <rust_main+0x519>
ffffff800020466c: 48 b8 00 00 00 00 80 00 00 00	movabsq	$549755813888, %rax # imm = 0x8000000000
ffffff8000204676: 48 8b 0d b3 c6 00 00 	movq	50867(%rip), %rcx       # 0xffffff8000210d30 <_ZN3log6LOGGER17h48756037b7073395E.1+0x130>
ffffff800020467d: 48 01 c1             	addq	%rax, %rcx
ffffff8000204680: b8 23 00 00 00       	movl	$35, %eax
ffffff8000204685: ba 04 00 00 00       	movl	$4, %edx
ffffff800020468a: 48 8d 35 a7 54 00 00 	leaq	21671(%rip), %rsi       # 0xffffff8000209b38 <trap_handler_table+0xb38>
ffffff8000204691: 48 8b bc 24 f0 01 00 00      	movq	496(%rsp), %rdi
ffffff8000204699: e9 3b fc ff ff       	jmp	0xffffff80002042d9 <rust_main+0x519>
ffffff800020469e: 48 8b 05 8b e9 04 00 	movq	321931(%rip), %rax      # 0xffffff8000253030 <_ZN3log20MAX_LOG_LEVEL_FILTER17h9ec50564a00176a0E.0>
ffffff80002046a5: 48 83 f8 03          	cmpq	$3, %rax
ffffff80002046a9: 0f 82 cb 00 00 00    	jb	0xffffff800020477a <rust_main+0x9ba>
ffffff80002046af: 48 8b 05 72 e9 04 00 	movq	321906(%rip), %rax      # 0xffffff8000253028 <_ZN5libax2io5stdio6stdout8INSTANCE17h4c5dc04dc8abc6f2E>
ffffff80002046b6: 48 83 f8 02          	cmpq	$2, %rax
ffffff80002046ba: 48 8b 05 3f c5 00 00 	movq	50495(%rip), %rax       # 0xffffff8000210c00 <_ZN3log6LOGGER17h48756037b7073395E.1>
ffffff80002046c1: 48 8d 0d 00 c5 00 00 	leaq	50432(%rip), %rcx       # 0xffffff8000210bc8 <_ZN5axhal8platform6pc_x864time12CPU_FREQ_MHZ17hcbee90971ca93e77E.0+0xa40>
ffffff80002046c8: 48 0f 45 c1          	cmovneq	%rcx, %rax
ffffff80002046cc: 48 8d 3d d4 68 00 00 	leaq	26836(%rip), %rdi       # 0xffffff800020afa7 <_ZN3log6logger3NOP17hf5a5c7f8a7401e67E>
ffffff80002046d3: 48 8b 35 36 c6 00 00 	movq	50742(%rip), %rsi       # 0xffffff8000210d10 <_ZN3log6LOGGER17h48756037b7073395E.1+0x110>
ffffff80002046da: 48 0f 44 fe          	cmoveq	%rsi, %rdi
ffffff80002046de: 48 8d 15 d7 5a 00 00 	leaq	23255(%rip), %rdx       # 0xffffff800020a1bc <str.0+0x49c>
ffffff80002046e5: 48 89 54 24 48       	movq	%rdx, 72(%rsp)
ffffff80002046ea: 48 c7 44 24 50 09 00 00 00   	movq	$9, 80(%rsp)
ffffff80002046f3: 48 c7 44 24 58 03 00 00 00   	movq	$3, 88(%rsp)
ffffff80002046fc: 48 c7 44 24 10 00 00 00 00   	movq	$0, 16(%rsp)
ffffff8000204705: 48 8d 0d 84 c0 00 00 	leaq	49284(%rip), %rcx       # 0xffffff8000210790 <_ZN5axhal8platform6pc_x864time12CPU_FREQ_MHZ17hcbee90971ca93e77E.0+0x608>
ffffff800020470c: 48 89 4c 24 20       	movq	%rcx, 32(%rsp)
ffffff8000204711: 48 c7 44 24 28 01 00 00 00   	movq	$1, 40(%rsp)
ffffff800020471a: 48 89 74 24 30       	movq	%rsi, 48(%rsp)
ffffff800020471f: 48 c7 44 24 38 00 00 00 00   	movq	$0, 56(%rsp)
ffffff8000204728: 48 c7 44 24 60 00 00 00 00   	movq	$0, 96(%rsp)
ffffff8000204731: 48 89 54 24 68       	movq	%rdx, 104(%rsp)
ffffff8000204736: 48 c7 44 24 70 09 00 00 00   	movq	$9, 112(%rsp)
ffffff800020473f: 48 c7 44 24 78 00 00 00 00   	movq	$0, 120(%rsp)
ffffff8000204748: 48 8d 0d 76 5a 00 00 	leaq	23158(%rip), %rcx       # 0xffffff800020a1c5 <str.0+0x4a5>
ffffff800020474f: 48 89 8c 24 80 00 00 00      	movq	%rcx, 128(%rsp)
ffffff8000204757: 48 c7 84 24 88 00 00 00 1c 00 00 00  	movq	$28, 136(%rsp)
ffffff8000204763: 48 b9 01 00 00 00 a9 00 00 00	movabsq	$725849473025, %rcx # imm = 0xA900000001
ffffff800020476d: 48 89 4c 24 40       	movq	%rcx, 64(%rsp)
ffffff8000204772: 48 8d 74 24 10       	leaq	16(%rsp), %rsi
ffffff8000204777: ff 50 28             	callq	*40(%rax)
ffffff800020477a: 48 8b 05 af e8 04 00 	movq	321711(%rip), %rax      # 0xffffff8000253030 <_ZN3log20MAX_LOG_LEVEL_FILTER17h9ec50564a00176a0E.0>
ffffff8000204781: 48 83 f8 02          	cmpq	$2, %rax
ffffff8000204785: 0f 86 cb 00 00 00    	jbe	0xffffff8000204856 <rust_main+0xa96>
ffffff800020478b: 48 8b 05 96 e8 04 00 	movq	321686(%rip), %rax      # 0xffffff8000253028 <_ZN5libax2io5stdio6stdout8INSTANCE17h4c5dc04dc8abc6f2E>
ffffff8000204792: 48 83 f8 02          	cmpq	$2, %rax
ffffff8000204796: 48 8b 05 63 c4 00 00 	movq	50275(%rip), %rax       # 0xffffff8000210c00 <_ZN3log6LOGGER17h48756037b7073395E.1>
ffffff800020479d: 48 8d 0d 24 c4 00 00 	leaq	50212(%rip), %rcx       # 0xffffff8000210bc8 <_ZN5axhal8platform6pc_x864time12CPU_FREQ_MHZ17hcbee90971ca93e77E.0+0xa40>
ffffff80002047a4: 48 0f 45 c1          	cmovneq	%rcx, %rax
ffffff80002047a8: 48 8d 3d f8 67 00 00 	leaq	26616(%rip), %rdi       # 0xffffff800020afa7 <_ZN3log6logger3NOP17hf5a5c7f8a7401e67E>
ffffff80002047af: 48 8b 35 5a c5 00 00 	movq	50522(%rip), %rsi       # 0xffffff8000210d10 <_ZN3log6LOGGER17h48756037b7073395E.1+0x110>
ffffff80002047b6: 48 0f 44 fe          	cmoveq	%rsi, %rdi
ffffff80002047ba: 48 8d 0d 9f 56 00 00 	leaq	22175(%rip), %rcx       # 0xffffff8000209e60 <str.0+0x140>
ffffff80002047c1: 48 89 4c 24 48       	movq	%rcx, 72(%rsp)
ffffff80002047c6: 48 c7 44 24 50 1d 00 00 00   	movq	$29, 80(%rsp)
ffffff80002047cf: 48 c7 44 24 58 03 00 00 00   	movq	$3, 88(%rsp)
ffffff80002047d8: 48 c7 44 24 10 00 00 00 00   	movq	$0, 16(%rsp)
ffffff80002047e1: 48 8d 15 20 ba 00 00 	leaq	47648(%rip), %rdx       # 0xffffff8000210208 <_ZN5axhal8platform6pc_x864time12CPU_FREQ_MHZ17hcbee90971ca93e77E.0+0x80>
ffffff80002047e8: 48 89 54 24 20       	movq	%rdx, 32(%rsp)
ffffff80002047ed: 48 c7 44 24 28 01 00 00 00   	movq	$1, 40(%rsp)
ffffff80002047f6: 48 89 74 24 30       	movq	%rsi, 48(%rsp)
ffffff80002047fb: 48 c7 44 24 38 00 00 00 00   	movq	$0, 56(%rsp)
ffffff8000204804: 48 c7 44 24 60 00 00 00 00   	movq	$0, 96(%rsp)
ffffff800020480d: 48 89 4c 24 68       	movq	%rcx, 104(%rsp)
ffffff8000204812: 48 c7 44 24 70 1d 00 00 00   	movq	$29, 112(%rsp)
ffffff800020481b: 48 c7 44 24 78 00 00 00 00   	movq	$0, 120(%rsp)
ffffff8000204824: 48 8d 0d 52 56 00 00 	leaq	22098(%rip), %rcx       # 0xffffff8000209e7d <str.0+0x15d>
ffffff800020482b: 48 89 8c 24 80 00 00 00      	movq	%rcx, 128(%rsp)
ffffff8000204833: 48 c7 84 24 88 00 00 00 29 00 00 00  	movq	$41, 136(%rsp)
ffffff800020483f: 48 b9 01 00 00 00 57 00 00 00	movabsq	$373662154753, %rcx # imm = 0x5700000001
ffffff8000204849: 48 89 4c 24 40       	movq	%rcx, 64(%rsp)
ffffff800020484e: 48 8d 74 24 10       	leaq	16(%rsp), %rsi
ffffff8000204853: ff 50 28             	callq	*40(%rax)
ffffff8000204856: 66 ba 21 00          	movw	$33, %dx
ffffff800020485a: b0 ff                	movb	$-1, %al
ffffff800020485c: ee                   	outb	%al, %dx
ffffff800020485d: 66 ba a1 00          	movw	$161, %dx
ffffff8000204861: b0 ff                	movb	$-1, %al
ffffff8000204863: ee                   	outb	%al, %dx
ffffff8000204864: 48 8d 7c 24 10       	leaq	16(%rsp), %rdi
ffffff8000204869: e8 32 40 00 00       	callq	0xffffff80002088a0 <_ZN9raw_cpuid55CpuId$LT$raw_cpuid..native_cpuid..CpuIdReaderNative$GT$3new17h36285f2bc8151782E>
ffffff800020486e: 83 7c 24 20 00       	cmpl	$0, 32(%rsp)
ffffff8000204873: 0f 84 07 01 00 00    	je	0xffffff8000204980 <rust_main+0xbc0>
ffffff8000204879: b8 01 00 00 00       	movl	$1, %eax
ffffff800020487e: 31 c9                	xorl	%ecx, %ecx
ffffff8000204880: 48 89 de             	movq	%rbx, %rsi
ffffff8000204883: 0f a2                	cpuid
ffffff8000204885: 48 87 f3             	xchgq	%rbx, %rsi
ffffff8000204888: 09 ca                	orl	%ecx, %edx
ffffff800020488a: 0f 84 f0 00 00 00    	je	0xffffff8000204980 <rust_main+0xbc0>
ffffff8000204890: 81 e1 00 00 20 00    	andl	$2097152, %ecx          # imm = 0x200000
ffffff8000204896: 0f 84 e4 00 00 00    	je	0xffffff8000204980 <rust_main+0xbc0>
ffffff800020489c: 48 8b 05 8d e7 04 00 	movq	321421(%rip), %rax      # 0xffffff8000253030 <_ZN3log20MAX_LOG_LEVEL_FILTER17h9ec50564a00176a0E.0>
ffffff80002048a3: 48 83 f8 03          	cmpq	$3, %rax
ffffff80002048a7: 0f 82 cb 00 00 00    	jb	0xffffff8000204978 <rust_main+0xbb8>
ffffff80002048ad: 48 8b 05 74 e7 04 00 	movq	321396(%rip), %rax      # 0xffffff8000253028 <_ZN5libax2io5stdio6stdout8INSTANCE17h4c5dc04dc8abc6f2E>
ffffff80002048b4: 48 83 f8 02          	cmpq	$2, %rax
ffffff80002048b8: 48 8b 05 41 c3 00 00 	movq	49985(%rip), %rax       # 0xffffff8000210c00 <_ZN3log6LOGGER17h48756037b7073395E.1>
ffffff80002048bf: 48 8d 0d 02 c3 00 00 	leaq	49922(%rip), %rcx       # 0xffffff8000210bc8 <_ZN5axhal8platform6pc_x864time12CPU_FREQ_MHZ17hcbee90971ca93e77E.0+0xa40>
ffffff80002048c6: 48 0f 45 c1          	cmovneq	%rcx, %rax
ffffff80002048ca: 48 8d 3d d6 66 00 00 	leaq	26326(%rip), %rdi       # 0xffffff800020afa7 <_ZN3log6logger3NOP17hf5a5c7f8a7401e67E>
ffffff80002048d1: 48 8b 35 38 c4 00 00 	movq	50232(%rip), %rsi       # 0xffffff8000210d10 <_ZN3log6LOGGER17h48756037b7073395E.1+0x110>
ffffff80002048d8: 48 0f 44 fe          	cmoveq	%rsi, %rdi
ffffff80002048dc: 48 8d 0d 7d 55 00 00 	leaq	21885(%rip), %rcx       # 0xffffff8000209e60 <str.0+0x140>
ffffff80002048e3: 48 89 4c 24 48       	movq	%rcx, 72(%rsp)
ffffff80002048e8: 48 c7 44 24 50 1d 00 00 00   	movq	$29, 80(%rsp)
ffffff80002048f1: 48 c7 44 24 58 03 00 00 00   	movq	$3, 88(%rsp)
ffffff80002048fa: 48 c7 44 24 10 00 00 00 00   	movq	$0, 16(%rsp)
ffffff8000204903: 48 8d 15 0e b9 00 00 	leaq	47374(%rip), %rdx       # 0xffffff8000210218 <_ZN5axhal8platform6pc_x864time12CPU_FREQ_MHZ17hcbee90971ca93e77E.0+0x90>
ffffff800020490a: 48 89 54 24 20       	movq	%rdx, 32(%rsp)
ffffff800020490f: 48 c7 44 24 28 01 00 00 00   	movq	$1, 40(%rsp)
ffffff8000204918: 48 89 74 24 30       	movq	%rsi, 48(%rsp)
ffffff800020491d: 48 c7 44 24 38 00 00 00 00   	movq	$0, 56(%rsp)
ffffff8000204926: 48 c7 44 24 60 00 00 00 00   	movq	$0, 96(%rsp)
ffffff800020492f: 48 89 4c 24 68       	movq	%rcx, 104(%rsp)
ffffff8000204934: 48 c7 44 24 70 1d 00 00 00   	movq	$29, 112(%rsp)
ffffff800020493d: 48 c7 44 24 78 00 00 00 00   	movq	$0, 120(%rsp)
ffffff8000204946: 48 8d 0d 30 55 00 00 	leaq	21808(%rip), %rcx       # 0xffffff8000209e7d <str.0+0x15d>
ffffff800020494d: 48 89 8c 24 80 00 00 00      	movq	%rcx, 128(%rsp)
ffffff8000204955: 48 c7 84 24 88 00 00 00 29 00 00 00  	movq	$41, 136(%rsp)
ffffff8000204961: 48 b9 01 00 00 00 66 00 00 00	movabsq	$438086664193, %rcx # imm = 0x6600000001
ffffff800020496b: 48 89 4c 24 40       	movq	%rcx, 64(%rsp)
ffffff8000204970: 48 8d 74 24 10       	leaq	16(%rsp), %rsi
ffffff8000204975: ff 50 28             	callq	*40(%rax)
ffffff8000204978: 45 31 ff             	xorl	%r15d, %r15d
ffffff800020497b: e9 09 01 00 00       	jmp	0xffffff8000204a89 <rust_main+0xcc9>
ffffff8000204980: 48 8b 05 a9 e6 04 00 	movq	321193(%rip), %rax      # 0xffffff8000253030 <_ZN3log20MAX_LOG_LEVEL_FILTER17h9ec50564a00176a0E.0>
ffffff8000204987: 48 83 f8 02          	cmpq	$2, %rax
ffffff800020498b: 0f 86 cb 00 00 00    	jbe	0xffffff8000204a5c <rust_main+0xc9c>
ffffff8000204991: 48 8b 05 90 e6 04 00 	movq	321168(%rip), %rax      # 0xffffff8000253028 <_ZN5libax2io5stdio6stdout8INSTANCE17h4c5dc04dc8abc6f2E>
ffffff8000204998: 48 83 f8 02          	cmpq	$2, %rax
ffffff800020499c: 48 8b 05 5d c2 00 00 	movq	49757(%rip), %rax       # 0xffffff8000210c00 <_ZN3log6LOGGER17h48756037b7073395E.1>
ffffff80002049a3: 48 8d 0d 1e c2 00 00 	leaq	49694(%rip), %rcx       # 0xffffff8000210bc8 <_ZN5axhal8platform6pc_x864time12CPU_FREQ_MHZ17hcbee90971ca93e77E.0+0xa40>
ffffff80002049aa: 48 0f 45 c1          	cmovneq	%rcx, %rax
ffffff80002049ae: 48 8d 3d f2 65 00 00 	leaq	26098(%rip), %rdi       # 0xffffff800020afa7 <_ZN3log6logger3NOP17hf5a5c7f8a7401e67E>
ffffff80002049b5: 48 8b 35 54 c3 00 00 	movq	50004(%rip), %rsi       # 0xffffff8000210d10 <_ZN3log6LOGGER17h48756037b7073395E.1+0x110>
ffffff80002049bc: 48 0f 44 fe          	cmoveq	%rsi, %rdi
ffffff80002049c0: 48 8d 0d 99 54 00 00 	leaq	21657(%rip), %rcx       # 0xffffff8000209e60 <str.0+0x140>
ffffff80002049c7: 48 89 4c 24 48       	movq	%rcx, 72(%rsp)
ffffff80002049cc: 48 c7 44 24 50 1d 00 00 00   	movq	$29, 80(%rsp)
ffffff80002049d5: 48 c7 44 24 58 03 00 00 00   	movq	$3, 88(%rsp)
ffffff80002049de: 48 c7 44 24 10 00 00 00 00   	movq	$0, 16(%rsp)
ffffff80002049e7: 48 8d 15 3a b8 00 00 	leaq	47162(%rip), %rdx       # 0xffffff8000210228 <_ZN5axhal8platform6pc_x864time12CPU_FREQ_MHZ17hcbee90971ca93e77E.0+0xa0>
ffffff80002049ee: 48 89 54 24 20       	movq	%rdx, 32(%rsp)
ffffff80002049f3: 48 c7 44 24 28 01 00 00 00   	movq	$1, 40(%rsp)
ffffff80002049fc: 48 89 74 24 30       	movq	%rsi, 48(%rsp)
ffffff8000204a01: 48 c7 44 24 38 00 00 00 00   	movq	$0, 56(%rsp)
ffffff8000204a0a: 48 c7 44 24 60 00 00 00 00   	movq	$0, 96(%rsp)
ffffff8000204a13: 48 89 4c 24 68       	movq	%rcx, 104(%rsp)
ffffff8000204a18: 48 c7 44 24 70 1d 00 00 00   	movq	$29, 112(%rsp)
ffffff8000204a21: 48 c7 44 24 78 00 00 00 00   	movq	$0, 120(%rsp)
ffffff8000204a2a: 48 8d 0d 4c 54 00 00 	leaq	21580(%rip), %rcx       # 0xffffff8000209e7d <str.0+0x15d>
ffffff8000204a31: 48 89 8c 24 80 00 00 00      	movq	%rcx, 128(%rsp)
ffffff8000204a39: 48 c7 84 24 88 00 00 00 29 00 00 00  	movq	$41, 136(%rsp)
ffffff8000204a45: 48 b9 01 00 00 00 69 00 00 00	movabsq	$450971566081, %rcx # imm = 0x6900000001
ffffff8000204a4f: 48 89 4c 24 40       	movq	%rcx, 64(%rsp)
ffffff8000204a54: 48 8d 74 24 10       	leaq	16(%rsp), %rsi
ffffff8000204a59: ff 50 28             	callq	*40(%rax)
ffffff8000204a5c: b9 1b 00 00 00       	movl	$27, %ecx
ffffff8000204a61: 0f 32                	rdmsr
ffffff8000204a63: 48 c1 e2 20          	shlq	$32, %rdx
ffffff8000204a67: 89 c0                	movl	%eax, %eax
ffffff8000204a69: 48 09 d0             	orq	%rdx, %rax
ffffff8000204a6c: 48 b9 00 f0 ff ff 0f 00 00 00	movabsq	$68719472640, %rcx # imm = 0xFFFFFF000
ffffff8000204a76: 48 21 c1             	andq	%rax, %rcx
ffffff8000204a79: 49 bc 00 00 00 00 80 ff ff ff	movabsq	$-549755813888, %r12 # imm = 0xFFFFFF8000000000
ffffff8000204a83: 49 09 cc             	orq	%rcx, %r12
ffffff8000204a86: 41 b7 01             	movb	$1, %r15b
ffffff8000204a89: 31 c0                	xorl	%eax, %eax
ffffff8000204a8b: 31 c9                	xorl	%ecx, %ecx
ffffff8000204a8d: 48 89 dd             	movq	%rbx, %rbp
ffffff8000204a90: 0f a2                	cpuid
ffffff8000204a92: 48 87 eb             	xchgq	%rbx, %rbp
ffffff8000204a95: 89 ce                	movl	%ecx, %esi
ffffff8000204a97: 89 d7                	movl	%edx, %edi
ffffff8000204a99: 41 89 c5             	movl	%eax, %r13d
ffffff8000204a9c: b8 00 00 00 80       	movl	$2147483648, %eax       # imm = 0x80000000
ffffff8000204aa1: 31 c9                	xorl	%ecx, %ecx
ffffff8000204aa3: 48 89 db             	movq	%rbx, %rbx
ffffff8000204aa6: 0f a2                	cpuid
ffffff8000204aa8: 48 87 db             	xchgq	%rbx, %rbx
ffffff8000204aab: 89 ac 24 f8 00 00 00 	movl	%ebp, 248(%rsp)
ffffff8000204ab2: 89 bc 24 fc 00 00 00 	movl	%edi, 252(%rsp)
ffffff8000204ab9: 89 b4 24 00 01 00 00 	movl	%esi, 256(%rsp)
ffffff8000204ac0: 48 8d 7c 24 10       	leaq	16(%rsp), %rdi
ffffff8000204ac5: 4c 8d b4 24 f8 00 00 00      	leaq	248(%rsp), %r14
ffffff8000204acd: 4c 89 f6             	movq	%r14, %rsi
ffffff8000204ad0: e8 bb 1d 00 00       	callq	0xffffff8000206890 <_ZN4core3str8converts9from_utf817h50e67ae2817c918fE>
ffffff8000204ad5: 48 83 7c 24 10 00    	cmpq	$0, 16(%rsp)
ffffff8000204adb: 0f 85 7d 02 00 00    	jne	0xffffff8000204d5e <rust_main+0xf9e>
ffffff8000204ae1: 48 8b 44 24 18       	movq	24(%rsp), %rax
ffffff8000204ae6: e9 7a 02 00 00       	jmp	0xffffff8000204d65 <rust_main+0xfa5>
ffffff8000204aeb: 48 8b 05 36 e5 04 00 	movq	320822(%rip), %rax      # 0xffffff8000253028 <_ZN5libax2io5stdio6stdout8INSTANCE17h4c5dc04dc8abc6f2E>
ffffff8000204af2: 48 83 f8 02          	cmpq	$2, %rax
ffffff8000204af6: 48 8d 05 cb c0 00 00 	leaq	49355(%rip), %rax       # 0xffffff8000210bc8 <_ZN5axhal8platform6pc_x864time12CPU_FREQ_MHZ17hcbee90971ca93e77E.0+0xa40>
ffffff8000204afd: 48 0f 44 05 fb c0 00 00      	cmoveq	49403(%rip), %rax # 0xffffff8000210c00 <_ZN3log6LOGGER17h48756037b7073395E.1>
ffffff8000204b05: 48 8b 0d 04 c2 00 00 	movq	49668(%rip), %rcx       # 0xffffff8000210d10 <_ZN3log6LOGGER17h48756037b7073395E.1+0x110>
ffffff8000204b0c: 48 8d 3d 94 64 00 00 	leaq	25748(%rip), %rdi       # 0xffffff800020afa7 <_ZN3log6logger3NOP17hf5a5c7f8a7401e67E>
ffffff8000204b13: 48 0f 44 f9          	cmoveq	%rcx, %rdi
ffffff8000204b17: 48 8d 15 9e 56 00 00 	leaq	22174(%rip), %rdx       # 0xffffff800020a1bc <str.0+0x49c>
ffffff8000204b1e: 48 89 54 24 48       	movq	%rdx, 72(%rsp)
ffffff8000204b23: 48 c7 44 24 50 09 00 00 00   	movq	$9, 80(%rsp)
ffffff8000204b2c: 48 c7 44 24 58 03 00 00 00   	movq	$3, 88(%rsp)
ffffff8000204b35: 48 c7 44 24 10 00 00 00 00   	movq	$0, 16(%rsp)
ffffff8000204b3e: 48 8d 35 ab bb 00 00 	leaq	48043(%rip), %rsi       # 0xffffff80002106f0 <_ZN5axhal8platform6pc_x864time12CPU_FREQ_MHZ17hcbee90971ca93e77E.0+0x568>
ffffff8000204b45: 48 89 74 24 20       	movq	%rsi, 32(%rsp)
ffffff8000204b4a: 48 c7 44 24 28 01 00 00 00   	movq	$1, 40(%rsp)
ffffff8000204b53: 48 89 4c 24 30       	movq	%rcx, 48(%rsp)
ffffff8000204b58: 48 c7 44 24 38 00 00 00 00   	movq	$0, 56(%rsp)
ffffff8000204b61: 48 c7 44 24 60 00 00 00 00   	movq	$0, 96(%rsp)
ffffff8000204b6a: 48 89 54 24 68       	movq	%rdx, 104(%rsp)
ffffff8000204b6f: 48 c7 44 24 70 09 00 00 00   	movq	$9, 112(%rsp)
ffffff8000204b78: 48 c7 44 24 78 00 00 00 00   	movq	$0, 120(%rsp)
ffffff8000204b81: 48 8d 0d 3d 56 00 00 	leaq	22077(%rip), %rcx       # 0xffffff800020a1c5 <str.0+0x4a5>
ffffff8000204b88: 48 89 8c 24 80 00 00 00      	movq	%rcx, 128(%rsp)
ffffff8000204b90: 48 c7 84 24 88 00 00 00 1c 00 00 00  	movq	$28, 136(%rsp)
ffffff8000204b9c: 48 b9 01 00 00 00 89 00 00 00	movabsq	$588410519553, %rcx # imm = 0x8900000001
ffffff8000204ba6: 48 89 4c 24 40       	movq	%rcx, 64(%rsp)
ffffff8000204bab: 48 8d 74 24 10       	leaq	16(%rsp), %rsi
ffffff8000204bb0: ff 50 28             	callq	*40(%rax)
ffffff8000204bb3: 48 8b 05 76 e4 04 00 	movq	320630(%rip), %rax      # 0xffffff8000253030 <_ZN3log20MAX_LOG_LEVEL_FILTER17h9ec50564a00176a0E.0>
ffffff8000204bba: 49 be 00 00 00 00 20 00 00 00	movabsq	$137438953472, %r14 # imm = 0x2000000000
ffffff8000204bc4: 48 83 f8 03          	cmpq	$3, %rax
ffffff8000204bc8: 0f 82 d3 f4 ff ff    	jb	0xffffff80002040a1 <rust_main+0x2e1>
ffffff8000204bce: 48 8d 84 24 f0 00 00 00      	leaq	240(%rsp), %rax
ffffff8000204bd6: 48 89 84 24 b0 01 00 00      	movq	%rax, 432(%rsp)
ffffff8000204bde: 48 8d 05 6b 0a 00 00 	leaq	2667(%rip), %rax        # 0xffffff8000205650 <_ZN4core3fmt3num3imp52_$LT$impl$u20$core..fmt..Display$u20$for$u20$u64$GT$3fmt17h78dc0edf4b145690E>
ffffff8000204be5: 48 89 84 24 b8 01 00 00      	movq	%rax, 440(%rsp)
ffffff8000204bed: 48 8d 84 24 38 02 00 00      	leaq	568(%rsp), %rax
ffffff8000204bf5: 48 89 84 24 c0 01 00 00      	movq	%rax, 448(%rsp)
ffffff8000204bfd: 48 8d 05 0c 34 00 00 	leaq	13324(%rip), %rax       # 0xffffff8000208010 <_ZN4core3fmt3num53_$LT$impl$u20$core..fmt..LowerHex$u20$for$u20$i64$GT$3fmt17h4fa87f856a4ce963E>
ffffff8000204c04: 48 89 84 24 c8 01 00 00      	movq	%rax, 456(%rsp)
ffffff8000204c0c: 48 c7 84 24 f8 00 00 00 02 00 00 00  	movq	$2, 248(%rsp)
ffffff8000204c18: 48 c7 84 24 08 01 00 00 02 00 00 00  	movq	$2, 264(%rsp)
ffffff8000204c24: 4c 89 b4 24 18 01 00 00      	movq	%r14, 280(%rsp)
ffffff8000204c2c: c6 84 24 20 01 00 00 03      	movb	$3, 288(%rsp)
ffffff8000204c34: 48 c7 84 24 28 01 00 00 00 00 00 00  	movq	$0, 296(%rsp)
ffffff8000204c40: 48 c7 84 24 30 01 00 00 02 00 00 00  	movq	$2, 304(%rsp)
ffffff8000204c4c: 48 c7 84 24 40 01 00 00 02 00 00 00  	movq	$2, 320(%rsp)
ffffff8000204c58: 48 b8 04 00 00 00 20 00 00 00	movabsq	$137438953476, %rax # imm = 0x2000000004
ffffff8000204c62: 48 89 84 24 50 01 00 00      	movq	%rax, 336(%rsp)
ffffff8000204c6a: c6 84 24 58 01 00 00 03      	movb	$3, 344(%rsp)
ffffff8000204c72: 48 c7 84 24 60 01 00 00 01 00 00 00  	movq	$1, 352(%rsp)
ffffff8000204c7e: 48 8b 05 a3 e3 04 00 	movq	320419(%rip), %rax      # 0xffffff8000253028 <_ZN5libax2io5stdio6stdout8INSTANCE17h4c5dc04dc8abc6f2E>
ffffff8000204c85: 48 83 f8 02          	cmpq	$2, %rax
ffffff8000204c89: 48 8d 05 38 bf 00 00 	leaq	48952(%rip), %rax       # 0xffffff8000210bc8 <_ZN5axhal8platform6pc_x864time12CPU_FREQ_MHZ17hcbee90971ca93e77E.0+0xa40>
ffffff8000204c90: 48 0f 44 05 68 bf 00 00      	cmoveq	49000(%rip), %rax # 0xffffff8000210c00 <_ZN3log6LOGGER17h48756037b7073395E.1>
ffffff8000204c98: 48 8d 3d 08 63 00 00 	leaq	25352(%rip), %rdi       # 0xffffff800020afa7 <_ZN3log6logger3NOP17hf5a5c7f8a7401e67E>
ffffff8000204c9f: 48 0f 44 3d 69 c0 00 00      	cmoveq	49257(%rip), %rdi # 0xffffff8000210d10 <_ZN3log6LOGGER17h48756037b7073395E.1+0x110>
ffffff8000204ca7: 48 8d 0d 0e 55 00 00 	leaq	21774(%rip), %rcx       # 0xffffff800020a1bc <str.0+0x49c>
ffffff8000204cae: 48 89 4c 24 48       	movq	%rcx, 72(%rsp)
ffffff8000204cb3: 48 c7 44 24 50 09 00 00 00   	movq	$9, 80(%rsp)
ffffff8000204cbc: 48 c7 44 24 58 03 00 00 00   	movq	$3, 88(%rsp)
ffffff8000204cc5: 48 89 5c 24 10       	movq	%rbx, 16(%rsp)
ffffff8000204cca: 48 c7 44 24 18 02 00 00 00   	movq	$2, 24(%rsp)
ffffff8000204cd3: 48 8d 15 26 ba 00 00 	leaq	47654(%rip), %rdx       # 0xffffff8000210700 <_ZN5axhal8platform6pc_x864time12CPU_FREQ_MHZ17hcbee90971ca93e77E.0+0x578>
ffffff8000204cda: 48 89 54 24 20       	movq	%rdx, 32(%rsp)
ffffff8000204cdf: 48 c7 44 24 28 03 00 00 00   	movq	$3, 40(%rsp)
ffffff8000204ce8: 4c 89 7c 24 30       	movq	%r15, 48(%rsp)
ffffff8000204ced: 48 c7 44 24 38 02 00 00 00   	movq	$2, 56(%rsp)
ffffff8000204cf6: 48 c7 44 24 60 00 00 00 00   	movq	$0, 96(%rsp)
ffffff8000204cff: 48 89 4c 24 68       	movq	%rcx, 104(%rsp)
ffffff8000204d04: 48 c7 44 24 70 09 00 00 00   	movq	$9, 112(%rsp)
ffffff8000204d0d: 48 c7 44 24 78 00 00 00 00   	movq	$0, 120(%rsp)
ffffff8000204d16: 48 8d 0d a8 54 00 00 	leaq	21672(%rip), %rcx       # 0xffffff800020a1c5 <str.0+0x4a5>
ffffff8000204d1d: 48 89 8c 24 80 00 00 00      	movq	%rcx, 128(%rsp)
ffffff8000204d25: 48 c7 84 24 88 00 00 00 1c 00 00 00  	movq	$28, 136(%rsp)
ffffff8000204d31: 48 b9 01 00 00 00 8a 00 00 00	movabsq	$592705486849, %rcx # imm = 0x8A00000001
ffffff8000204d3b: 48 89 4c 24 40       	movq	%rcx, 64(%rsp)
ffffff8000204d40: 48 8d 74 24 10       	leaq	16(%rsp), %rsi
ffffff8000204d45: ff 50 28             	callq	*40(%rax)
ffffff8000204d48: 48 8b 05 e1 e2 04 00 	movq	320225(%rip), %rax      # 0xffffff8000253030 <_ZN3log20MAX_LOG_LEVEL_FILTER17h9ec50564a00176a0E.0>
ffffff8000204d4f: 48 83 f8 02          	cmpq	$2, %rax
ffffff8000204d53: 0f 87 59 f3 ff ff    	ja	0xffffff80002040b2 <rust_main+0x2f2>
ffffff8000204d59: e9 1c f4 ff ff       	jmp	0xffffff800020417a <rust_main+0x3ba>
ffffff8000204d5e: 48 8d 05 53 62 00 00 	leaq	25171(%rip), %rax       # 0xffffff800020afb8 <SELF_PTR>
ffffff8000204d65: 75 21                	jne	0xffffff8000204d88 <rust_main+0xfc8>
ffffff8000204d67: 48 83 7c 24 20 0c    	cmpq	$12, 32(%rsp)
ffffff8000204d6d: 75 19                	jne	0xffffff8000204d88 <rust_main+0xfc8>
ffffff8000204d6f: 48 b9 47 65 6e 75 69 6e 65 49	movabsq	$5288754736637306183, %rcx # imm = 0x49656E69756E6547
ffffff8000204d79: 48 33 08             	xorq	(%rax), %rcx
ffffff8000204d7c: 8b 40 08             	movl	8(%rax), %eax
ffffff8000204d7f: 48 35 6e 74 65 6c    	xorq	$1818588270, %rax       # imm = 0x6C65746E
ffffff8000204d85: 48 09 c8             	orq	%rcx, %rax
ffffff8000204d88: 45 85 ed             	testl	%r13d, %r13d
ffffff8000204d8b: 75 0c                	jne	0xffffff8000204d99 <rust_main+0xfd9>
ffffff8000204d8d: 45 84 ff             	testb	%r15b, %r15b
ffffff8000204d90: 74 71                	je	0xffffff8000204e03 <rust_main+0x1043>
ffffff8000204d92: 41 b3 01             	movb	$1, %r11b
ffffff8000204d95: 31 c0                	xorl	%eax, %eax
ffffff8000204d97: eb 2d                	jmp	0xffffff8000204dc6 <rust_main+0x1006>
ffffff8000204d99: 48 8d 7c 24 10       	leaq	16(%rsp), %rdi
ffffff8000204d9e: be 01 00 00 00       	movl	$1, %esi
ffffff8000204da3: 31 d2                	xorl	%edx, %edx
ffffff8000204da5: e8 d6 3a 00 00       	callq	0xffffff8000208880 <_ZN9raw_cpuid12native_cpuid11cpuid_count17ha8a35f58f0619db0E>
ffffff8000204daa: 8b 4c 24 18          	movl	24(%rsp), %ecx
ffffff8000204dae: 89 c8                	movl	%ecx, %eax
ffffff8000204db0: 25 00 00 20 00       	andl	$2097152, %eax          # imm = 0x200000
ffffff8000204db5: 41 0f 94 c3          	sete	%r11b
ffffff8000204db9: c1 e8 15             	shrl	$21, %eax
ffffff8000204dbc: 41 08 c7             	orb	%al, %r15b
ffffff8000204dbf: 74 42                	je	0xffffff8000204e03 <rust_main+0x1043>
ffffff8000204dc1: 45 84 db             	testb	%r11b, %r11b
ffffff8000204dc4: 74 78                	je	0xffffff8000204e3e <rust_main+0x107e>
ffffff8000204dc6: 49 8d b4 24 f0 00 00 00      	leaq	240(%r12), %rsi
ffffff8000204dce: 49 8d 9c 24 20 03 00 00      	leaq	800(%r12), %rbx
ffffff8000204dd6: 4d 8d 84 24 50 03 00 00      	leaq	848(%r12), %r8
ffffff8000204dde: 4d 8d 8c 24 60 03 00 00      	leaq	864(%r12), %r9
ffffff8000204de6: 49 8d bc 24 70 03 00 00      	leaq	880(%r12), %rdi
ffffff8000204dee: 4d 8d 94 24 80 03 00 00      	leaq	896(%r12), %r10
ffffff8000204df6: 49 81 c4 e0 03 00 00 	addq	$992, %r12              # imm = 0x3E0
ffffff8000204dfd: 84 c0                	testb	%al, %al
ffffff8000204dff: 75 49                	jne	0xffffff8000204e4a <rust_main+0x108a>
ffffff8000204e01: eb 5f                	jmp	0xffffff8000204e62 <rust_main+0x10a2>
ffffff8000204e03: 48 8d 05 c1 61 00 00 	leaq	25025(%rip), %rax       # 0xffffff800020afcb <SELF_PTR+0x13>
ffffff8000204e0a: 48 89 44 24 10       	movq	%rax, 16(%rsp)
ffffff8000204e0f: 48 c7 44 24 18 29 00 00 00   	movq	$41, 24(%rsp)
ffffff8000204e18: 48 8d 3d 5b 61 00 00 	leaq	24923(%rip), %rdi       # 0xffffff800020af7a <_ZN4core7unicode12unicode_data15grapheme_extend7OFFSETS17ha79b4a14ed4d5bccE+0x322>
ffffff8000204e1f: 48 8d 0d 12 b4 00 00 	leaq	46098(%rip), %rcx       # 0xffffff8000210238 <_ZN5axhal8platform6pc_x864time12CPU_FREQ_MHZ17hcbee90971ca93e77E.0+0xb0>
ffffff8000204e26: 4c 8d 05 2b b4 00 00 	leaq	46123(%rip), %r8        # 0xffffff8000210258 <_ZN5axhal8platform6pc_x864time12CPU_FREQ_MHZ17hcbee90971ca93e77E.0+0xd0>
ffffff8000204e2d: 48 8d 54 24 10       	leaq	16(%rsp), %rdx
ffffff8000204e32: be 2b 00 00 00       	movl	$43, %esi
ffffff8000204e37: e8 14 1c 00 00       	callq	0xffffff8000206a50 <_ZN4core6result13unwrap_failed17he358196271332538E>
ffffff8000204e3c: 0f 0b                	ud2
ffffff8000204e3e: f7 c1 00 00 20 00    	testl	$2097152, %ecx          # imm = 0x200000
ffffff8000204e44: 0f 84 80 00 00 00    	je	0xffffff8000204eca <rust_main+0x110a>
ffffff8000204e4a: b9 1b 00 00 00       	movl	$27, %ecx
ffffff8000204e4f: 0f 32                	rdmsr
ffffff8000204e51: 0d 00 04 00 00       	orl	$1024, %eax             # imm = 0x400
ffffff8000204e56: b9 1b 00 00 00       	movl	$27, %ecx
ffffff8000204e5b: 0f 30                	wrmsr
ffffff8000204e5d: 45 84 db             	testb	%r11b, %r11b
ffffff8000204e60: 74 68                	je	0xffffff8000204eca <rust_main+0x110a>
ffffff8000204e62: b8 00 ff ff ff       	movl	$4294967040, %eax       # imm = 0xFFFFFF00
ffffff8000204e67: 8b 0b                	movl	(%rbx), %ecx
ffffff8000204e69: 21 c1                	andl	%eax, %ecx
ffffff8000204e6b: 81 c9 f0 00 00 00    	orl	$240, %ecx
ffffff8000204e71: 89 0b                	movl	%ecx, (%rbx)
ffffff8000204e73: 8b 0f                	movl	(%rdi), %ecx
ffffff8000204e75: 21 c1                	andl	%eax, %ecx
ffffff8000204e77: 81 c9 f2 00 00 00    	orl	$242, %ecx
ffffff8000204e7d: 89 0f                	movl	%ecx, (%rdi)
ffffff8000204e7f: 23 06                	andl	(%rsi), %eax
ffffff8000204e81: 0d f1 00 00 00       	orl	$241, %eax
ffffff8000204e86: 89 06                	movl	%eax, (%rsi)
ffffff8000204e88: b8 ff ff f9 ff       	movl	$4294574079, %eax       # imm = 0xFFF9FFFF
ffffff8000204e8d: 23 03                	andl	(%rbx), %eax
ffffff8000204e8f: 0d 00 00 02 00       	orl	$131072, %eax           # imm = 0x20000
ffffff8000204e94: 89 03                	movl	%eax, (%rbx)
ffffff8000204e96: 41 8b 04 24          	movl	(%r12), %eax
ffffff8000204e9a: 83 e0 f0             	andl	$-16, %eax
ffffff8000204e9d: 83 c8 0b             	orl	$11, %eax
ffffff8000204ea0: 41 89 04 24          	movl	%eax, (%r12)
ffffff8000204ea4: 41 c7 02 80 96 98 00 	movl	$10000000, (%r10)       # imm = 0x989680
ffffff8000204eab: 81 23 ff ff fe ff    	andl	$4294901759, (%rbx)     # imm = 0xFFFEFFFF
ffffff8000204eb1: 41 c7 00 00 00 00 00 	movl	$0, (%r8)
ffffff8000204eb8: 41 c7 01 00 00 00 00 	movl	$0, (%r9)
ffffff8000204ebf: 81 0e 00 01 00 00    	orl	$256, (%rsi)            # imm = 0x100
ffffff8000204ec5: e9 cc 00 00 00       	jmp	0xffffff8000204f96 <rust_main+0x11d6>
ffffff8000204eca: b9 32 08 00 00       	movl	$2098, %ecx             # imm = 0x832
ffffff8000204ecf: 0f 32                	rdmsr
ffffff8000204ed1: 25 00 ff ff ff       	andl	$4294967040, %eax       # imm = 0xFFFFFF00
ffffff8000204ed6: 0d f0 00 00 00       	orl	$240, %eax
ffffff8000204edb: b9 32 08 00 00       	movl	$2098, %ecx             # imm = 0x832
ffffff8000204ee0: 31 d2                	xorl	%edx, %edx
ffffff8000204ee2: 0f 30                	wrmsr
ffffff8000204ee4: b9 37 08 00 00       	movl	$2103, %ecx             # imm = 0x837
ffffff8000204ee9: 0f 32                	rdmsr
ffffff8000204eeb: 25 00 ff ff ff       	andl	$4294967040, %eax       # imm = 0xFFFFFF00
ffffff8000204ef0: 0d f2 00 00 00       	orl	$242, %eax
ffffff8000204ef5: b9 37 08 00 00       	movl	$2103, %ecx             # imm = 0x837
ffffff8000204efa: 31 d2                	xorl	%edx, %edx
ffffff8000204efc: 0f 30                	wrmsr
ffffff8000204efe: b9 0f 08 00 00       	movl	$2063, %ecx             # imm = 0x80F
ffffff8000204f03: 0f 32                	rdmsr
ffffff8000204f05: 25 00 ff ff ff       	andl	$4294967040, %eax       # imm = 0xFFFFFF00
ffffff8000204f0a: 0d f1 00 00 00       	orl	$241, %eax
ffffff8000204f0f: b9 0f 08 00 00       	movl	$2063, %ecx             # imm = 0x80F
ffffff8000204f14: 31 d2                	xorl	%edx, %edx
ffffff8000204f16: 0f 30                	wrmsr
ffffff8000204f18: b9 32 08 00 00       	movl	$2098, %ecx             # imm = 0x832
ffffff8000204f1d: 0f 32                	rdmsr
ffffff8000204f1f: 25 ff ff f9 ff       	andl	$4294574079, %eax       # imm = 0xFFF9FFFF
ffffff8000204f24: 0d 00 00 02 00       	orl	$131072, %eax           # imm = 0x20000
ffffff8000204f29: b9 32 08 00 00       	movl	$2098, %ecx             # imm = 0x832
ffffff8000204f2e: 31 d2                	xorl	%edx, %edx
ffffff8000204f30: 0f 30                	wrmsr
ffffff8000204f32: b9 3e 08 00 00       	movl	$2110, %ecx             # imm = 0x83E
ffffff8000204f37: 0f 32                	rdmsr
ffffff8000204f39: 83 e0 f0             	andl	$-16, %eax
ffffff8000204f3c: 83 c8 0b             	orl	$11, %eax
ffffff8000204f3f: b9 3e 08 00 00       	movl	$2110, %ecx             # imm = 0x83E
ffffff8000204f44: 31 d2                	xorl	%edx, %edx
ffffff8000204f46: 0f 30                	wrmsr
ffffff8000204f48: b9 38 08 00 00       	movl	$2104, %ecx             # imm = 0x838
ffffff8000204f4d: b8 80 96 98 00       	movl	$10000000, %eax         # imm = 0x989680
ffffff8000204f52: 31 d2                	xorl	%edx, %edx
ffffff8000204f54: 0f 30                	wrmsr
ffffff8000204f56: b9 32 08 00 00       	movl	$2098, %ecx             # imm = 0x832
ffffff8000204f5b: 0f 32                	rdmsr
ffffff8000204f5d: 25 ff ff fe ff       	andl	$4294901759, %eax       # imm = 0xFFFEFFFF
ffffff8000204f62: b9 32 08 00 00       	movl	$2098, %ecx             # imm = 0x832
ffffff8000204f67: 31 d2                	xorl	%edx, %edx
ffffff8000204f69: 0f 30                	wrmsr
ffffff8000204f6b: b9 35 08 00 00       	movl	$2101, %ecx             # imm = 0x835
ffffff8000204f70: 31 c0                	xorl	%eax, %eax
ffffff8000204f72: 31 d2                	xorl	%edx, %edx
ffffff8000204f74: 0f 30                	wrmsr
ffffff8000204f76: b9 36 08 00 00       	movl	$2102, %ecx             # imm = 0x836
ffffff8000204f7b: 31 c0                	xorl	%eax, %eax
ffffff8000204f7d: 31 d2                	xorl	%edx, %edx
ffffff8000204f7f: 0f 30                	wrmsr
ffffff8000204f81: b9 0f 08 00 00       	movl	$2063, %ecx             # imm = 0x80F
ffffff8000204f86: 0f 32                	rdmsr
ffffff8000204f88: 0d 00 01 00 00       	orl	$256, %eax              # imm = 0x100
ffffff8000204f8d: b9 0f 08 00 00       	movl	$2063, %ecx             # imm = 0x80F
ffffff8000204f92: 31 d2                	xorl	%edx, %edx
ffffff8000204f94: 0f 30                	wrmsr
ffffff8000204f96: 48 8b 05 93 e0 04 00 	movq	319635(%rip), %rax      # 0xffffff8000253030 <_ZN3log20MAX_LOG_LEVEL_FILTER17h9ec50564a00176a0E.0>
ffffff8000204f9d: 48 83 f8 02          	cmpq	$2, %rax
ffffff8000204fa1: 0f 86 cb 00 00 00    	jbe	0xffffff8000205072 <rust_main+0x12b2>
ffffff8000204fa7: 48 8b 05 7a e0 04 00 	movq	319610(%rip), %rax      # 0xffffff8000253028 <_ZN5libax2io5stdio6stdout8INSTANCE17h4c5dc04dc8abc6f2E>
ffffff8000204fae: 48 83 f8 02          	cmpq	$2, %rax
ffffff8000204fb2: 48 8b 05 47 bc 00 00 	movq	48199(%rip), %rax       # 0xffffff8000210c00 <_ZN3log6LOGGER17h48756037b7073395E.1>
ffffff8000204fb9: 48 8d 0d 08 bc 00 00 	leaq	48136(%rip), %rcx       # 0xffffff8000210bc8 <_ZN5axhal8platform6pc_x864time12CPU_FREQ_MHZ17hcbee90971ca93e77E.0+0xa40>
ffffff8000204fc0: 48 0f 45 c1          	cmovneq	%rcx, %rax
ffffff8000204fc4: 48 8d 3d dc 5f 00 00 	leaq	24540(%rip), %rdi       # 0xffffff800020afa7 <_ZN3log6logger3NOP17hf5a5c7f8a7401e67E>
ffffff8000204fcb: 48 8b 35 3e bd 00 00 	movq	48446(%rip), %rsi       # 0xffffff8000210d10 <_ZN3log6LOGGER17h48756037b7073395E.1+0x110>
ffffff8000204fd2: 48 0f 44 fe          	cmoveq	%rsi, %rdi
ffffff8000204fd6: 48 8d 0d 83 4e 00 00 	leaq	20099(%rip), %rcx       # 0xffffff8000209e60 <str.0+0x140>
ffffff8000204fdd: 48 89 4c 24 48       	movq	%rcx, 72(%rsp)
ffffff8000204fe2: 48 c7 44 24 50 1d 00 00 00   	movq	$29, 80(%rsp)
ffffff8000204feb: 48 c7 44 24 58 03 00 00 00   	movq	$3, 88(%rsp)
ffffff8000204ff4: 48 c7 44 24 10 00 00 00 00   	movq	$0, 16(%rsp)
ffffff8000204ffd: 48 8d 15 6c b2 00 00 	leaq	45676(%rip), %rdx       # 0xffffff8000210270 <_ZN5axhal8platform6pc_x864time12CPU_FREQ_MHZ17hcbee90971ca93e77E.0+0xe8>
ffffff8000205004: 48 89 54 24 20       	movq	%rdx, 32(%rsp)
ffffff8000205009: 48 c7 44 24 28 01 00 00 00   	movq	$1, 40(%rsp)
ffffff8000205012: 48 89 74 24 30       	movq	%rsi, 48(%rsp)
ffffff8000205017: 48 c7 44 24 38 00 00 00 00   	movq	$0, 56(%rsp)
ffffff8000205020: 48 c7 44 24 60 00 00 00 00   	movq	$0, 96(%rsp)
ffffff8000205029: 48 89 4c 24 68       	movq	%rcx, 104(%rsp)
ffffff800020502e: 48 c7 44 24 70 1d 00 00 00   	movq	$29, 112(%rsp)
ffffff8000205037: 48 c7 44 24 78 00 00 00 00   	movq	$0, 120(%rsp)
ffffff8000205040: 48 8d 0d 36 4e 00 00 	leaq	20022(%rip), %rcx       # 0xffffff8000209e7d <str.0+0x15d>
ffffff8000205047: 48 89 8c 24 80 00 00 00      	movq	%rcx, 128(%rsp)
ffffff800020504f: 48 c7 84 24 88 00 00 00 29 00 00 00  	movq	$41, 136(%rsp)
ffffff800020505b: 48 b9 01 00 00 00 74 00 00 00	movabsq	$498216206337, %rcx # imm = 0x7400000001
ffffff8000205065: 48 89 4c 24 40       	movq	%rcx, 64(%rsp)
ffffff800020506a: 48 8d 74 24 10       	leaq	16(%rsp), %rsi
ffffff800020506f: ff 50 28             	callq	*40(%rax)
ffffff8000205072: 0f b6 05 9f df 04 00 	movzbl	319391(%rip), %eax      # 0xffffff8000253018 <_ZN5axhal8platform6pc_x864apic7IO_APIC17h08eb3a0d34a70eb7E.2>
ffffff8000205079: 84 c0                	testb	%al, %al
ffffff800020507b: 0f 85 0c 01 00 00    	jne	0xffffff800020518d <rust_main+0x13cd>
ffffff8000205081: c6 05 90 df 04 00 01 	movb	$1, 319376(%rip)        # 0xffffff8000253018 <_ZN5axhal8platform6pc_x864apic7IO_APIC17h08eb3a0d34a70eb7E.2>
ffffff8000205088: 48 8b 05 a1 df 04 00 	movq	319393(%rip), %rax      # 0xffffff8000253030 <_ZN3log20MAX_LOG_LEVEL_FILTER17h9ec50564a00176a0E.0>
ffffff800020508f: 48 83 f8 02          	cmpq	$2, %rax
ffffff8000205093: 0f 86 0e 01 00 00    	jbe	0xffffff80002051a7 <rust_main+0x13e7>
ffffff8000205099: 48 8d 84 24 f0 00 00 00      	leaq	240(%rsp), %rax
ffffff80002050a1: 48 89 84 24 f8 00 00 00      	movq	%rax, 248(%rsp)
ffffff80002050a9: 48 8d 05 a0 05 00 00 	leaq	1440(%rip), %rax        # 0xffffff8000205650 <_ZN4core3fmt3num3imp52_$LT$impl$u20$core..fmt..Display$u20$for$u20$u64$GT$3fmt17h78dc0edf4b145690E>
ffffff80002050b0: 48 89 84 24 00 01 00 00      	movq	%rax, 256(%rsp)
ffffff80002050b8: 48 8b 05 69 df 04 00 	movq	319337(%rip), %rax      # 0xffffff8000253028 <_ZN5libax2io5stdio6stdout8INSTANCE17h4c5dc04dc8abc6f2E>
ffffff80002050bf: 48 83 f8 02          	cmpq	$2, %rax
ffffff80002050c3: 48 8b 05 36 bb 00 00 	movq	47926(%rip), %rax       # 0xffffff8000210c00 <_ZN3log6LOGGER17h48756037b7073395E.1>
ffffff80002050ca: 48 8d 0d f7 ba 00 00 	leaq	47863(%rip), %rcx       # 0xffffff8000210bc8 <_ZN5axhal8platform6pc_x864time12CPU_FREQ_MHZ17hcbee90971ca93e77E.0+0xa40>
ffffff80002050d1: 48 0f 45 c1          	cmovneq	%rcx, %rax
ffffff80002050d5: 48 8b 3d 34 bc 00 00 	movq	48180(%rip), %rdi       # 0xffffff8000210d10 <_ZN3log6LOGGER17h48756037b7073395E.1+0x110>
ffffff80002050dc: 48 8d 0d c4 5e 00 00 	leaq	24260(%rip), %rcx       # 0xffffff800020afa7 <_ZN3log6logger3NOP17hf5a5c7f8a7401e67E>
ffffff80002050e3: 48 0f 45 f9          	cmovneq	%rcx, %rdi
ffffff80002050e7: 48 8d 15 ce 50 00 00 	leaq	20686(%rip), %rdx       # 0xffffff800020a1bc <str.0+0x49c>
ffffff80002050ee: 48 89 54 24 48       	movq	%rdx, 72(%rsp)
ffffff80002050f3: 48 c7 44 24 50 09 00 00 00   	movq	$9, 80(%rsp)
ffffff80002050fc: 48 c7 44 24 58 03 00 00 00   	movq	$3, 88(%rsp)
ffffff8000205105: 48 c7 44 24 10 00 00 00 00   	movq	$0, 16(%rsp)
ffffff800020510e: 48 8d 0d 8b b6 00 00 	leaq	46731(%rip), %rcx       # 0xffffff80002107a0 <_ZN5axhal8platform6pc_x864time12CPU_FREQ_MHZ17hcbee90971ca93e77E.0+0x618>
ffffff8000205115: 48 89 4c 24 20       	movq	%rcx, 32(%rsp)
ffffff800020511a: 48 c7 44 24 28 02 00 00 00   	movq	$2, 40(%rsp)
ffffff8000205123: 4c 89 74 24 30       	movq	%r14, 48(%rsp)
ffffff8000205128: 48 c7 44 24 38 01 00 00 00   	movq	$1, 56(%rsp)
ffffff8000205131: 48 c7 44 24 60 00 00 00 00   	movq	$0, 96(%rsp)
ffffff800020513a: 48 89 54 24 68       	movq	%rdx, 104(%rsp)
ffffff800020513f: 48 c7 44 24 70 09 00 00 00   	movq	$9, 112(%rsp)
ffffff8000205148: 48 c7 44 24 78 00 00 00 00   	movq	$0, 120(%rsp)
ffffff8000205151: 48 8d 0d 6d 50 00 00 	leaq	20589(%rip), %rcx       # 0xffffff800020a1c5 <str.0+0x4a5>
ffffff8000205158: 48 89 8c 24 80 00 00 00      	movq	%rcx, 128(%rsp)
ffffff8000205160: 48 c7 84 24 88 00 00 00 1c 00 00 00  	movq	$28, 136(%rsp)
ffffff800020516c: 48 b9 01 00 00 00 c7 00 00 00	movabsq	$854698491905, %rcx # imm = 0xC700000001
ffffff8000205176: 48 89 4c 24 40       	movq	%rcx, 64(%rsp)
ffffff800020517b: 48 8d 74 24 10       	leaq	16(%rsp), %rsi
ffffff8000205180: ff 50 28             	callq	*40(%rax)
ffffff8000205183: f0                   	lock
ffffff8000205184: 48 ff 05 95 de 04 00 	incq	319125(%rip)            # 0xffffff8000253020 <_ZN9axruntime11INITED_CPUS17h3dbfc0095bf91d6fE>
ffffff800020518b: eb 35                	jmp	0xffffff80002051c2 <rust_main+0x1402>
ffffff800020518d: 48 8d 3d 93 4c 00 00 	leaq	19603(%rip), %rdi       # 0xffffff8000209e27 <str.0+0x107>
ffffff8000205194: 48 8d 15 55 b0 00 00 	leaq	45141(%rip), %rdx       # 0xffffff80002101f0 <_ZN5axhal8platform6pc_x864time12CPU_FREQ_MHZ17hcbee90971ca93e77E.0+0x68>
ffffff800020519b: be 21 00 00 00       	movl	$33, %esi
ffffff80002051a0: e8 5b 11 00 00       	callq	0xffffff8000206300 <_ZN4core9panicking5panic17ha75736b023e20f84E>
ffffff80002051a5: 0f 0b                	ud2
ffffff80002051a7: f0                   	lock
ffffff80002051a8: 48 ff 05 71 de 04 00 	incq	319089(%rip)            # 0xffffff8000253020 <_ZN9axruntime11INITED_CPUS17h3dbfc0095bf91d6fE>
ffffff80002051af: eb 11                	jmp	0xffffff80002051c2 <rust_main+0x1402>
ffffff80002051b1: 66 66 66 66 66 66 2e 0f 1f 84 00 00 00 00 00 	nopw	%cs:(%rax,%rax)
ffffff80002051c0: f3 90                	pause
ffffff80002051c2: 48 8b 05 57 de 04 00 	movq	319063(%rip), %rax      # 0xffffff8000253020 <_ZN9axruntime11INITED_CPUS17h3dbfc0095bf91d6fE>
ffffff80002051c9: 48 83 f8 01          	cmpq	$1, %rax
ffffff80002051cd: 75 f1                	jne	0xffffff80002051c0 <rust_main+0x1400>
ffffff80002051cf: e8 ec b9 ff ff       	callq	0xffffff8000200bc0 <main>
ffffff80002051d4: 48 8b 05 55 de 04 00 	movq	319061(%rip), %rax      # 0xffffff8000253030 <_ZN3log20MAX_LOG_LEVEL_FILTER17h9ec50564a00176a0E.0>
ffffff80002051db: 48 83 f8 03          	cmpq	$3, %rax
ffffff80002051df: 0f 86 e3 00 00 00    	jbe	0xffffff80002052c8 <rust_main+0x1508>
ffffff80002051e5: 48 8d 05 50 49 00 00 	leaq	18768(%rip), %rax       # 0xffffff8000209b3c <trap_handler_table+0xb3c>
ffffff80002051ec: 48 89 84 24 f8 00 00 00      	movq	%rax, 248(%rsp)
ffffff80002051f4: 48 8d 05 a5 2e 00 00 	leaq	11941(%rip), %rax       # 0xffffff80002080a0 <_ZN4core3fmt3num3imp52_$LT$impl$u20$core..fmt..Display$u20$for$u20$i32$GT$3fmt17hf2b97c49f5936fcbE>
ffffff80002051fb: 48 89 84 24 00 01 00 00      	movq	%rax, 256(%rsp)
ffffff8000205203: 48 8b 05 1e de 04 00 	movq	319006(%rip), %rax      # 0xffffff8000253028 <_ZN5libax2io5stdio6stdout8INSTANCE17h4c5dc04dc8abc6f2E>
ffffff800020520a: 48 83 f8 02          	cmpq	$2, %rax
ffffff800020520e: 48 8d 0d b3 b9 00 00 	leaq	47539(%rip), %rcx       # 0xffffff8000210bc8 <_ZN5axhal8platform6pc_x864time12CPU_FREQ_MHZ17hcbee90971ca93e77E.0+0xa40>
ffffff8000205215: 48 0f 44 0d e3 b9 00 00      	cmoveq	47587(%rip), %rcx # 0xffffff8000210c00 <_ZN3log6LOGGER17h48756037b7073395E.1>
ffffff800020521d: 48 8d 3d 83 5d 00 00 	leaq	23939(%rip), %rdi       # 0xffffff800020afa7 <_ZN3log6logger3NOP17hf5a5c7f8a7401e67E>
ffffff8000205224: 48 0f 44 3d e4 ba 00 00      	cmoveq	47844(%rip), %rdi # 0xffffff8000210d10 <_ZN3log6LOGGER17h48756037b7073395E.1+0x110>
ffffff800020522c: 48 8d 15 89 4f 00 00 	leaq	20361(%rip), %rdx       # 0xffffff800020a1bc <str.0+0x49c>
ffffff8000205233: 48 89 54 24 48       	movq	%rdx, 72(%rsp)
ffffff8000205238: 48 c7 44 24 50 09 00 00 00   	movq	$9, 80(%rsp)
ffffff8000205241: 48 c7 44 24 58 04 00 00 00   	movq	$4, 88(%rsp)
ffffff800020524a: 48 c7 44 24 10 00 00 00 00   	movq	$0, 16(%rsp)
ffffff8000205253: 48 8d 05 66 b5 00 00 	leaq	46438(%rip), %rax       # 0xffffff80002107c0 <_ZN5axhal8platform6pc_x864time12CPU_FREQ_MHZ17hcbee90971ca93e77E.0+0x638>
ffffff800020525a: 48 89 44 24 20       	movq	%rax, 32(%rsp)
ffffff800020525f: 48 c7 44 24 28 01 00 00 00   	movq	$1, 40(%rsp)
ffffff8000205268: 4c 89 74 24 30       	movq	%r14, 48(%rsp)
ffffff800020526d: 48 c7 44 24 38 01 00 00 00   	movq	$1, 56(%rsp)
ffffff8000205276: 48 c7 44 24 60 00 00 00 00   	movq	$0, 96(%rsp)
ffffff800020527f: 48 89 54 24 68       	movq	%rdx, 104(%rsp)
ffffff8000205284: 48 c7 44 24 70 09 00 00 00   	movq	$9, 112(%rsp)
ffffff800020528d: 48 c7 44 24 78 00 00 00 00   	movq	$0, 120(%rsp)
ffffff8000205296: 48 8d 05 28 4f 00 00 	leaq	20264(%rip), %rax       # 0xffffff800020a1c5 <str.0+0x4a5>
ffffff800020529d: 48 89 84 24 80 00 00 00      	movq	%rax, 128(%rsp)
ffffff80002052a5: 48 c7 84 24 88 00 00 00 1c 00 00 00  	movq	$28, 136(%rsp)
ffffff80002052b1: 48 b8 01 00 00 00 dc 00 00 00	movabsq	$944892805121, %rax # imm = 0xDC00000001
ffffff80002052bb: 48 89 44 24 40       	movq	%rax, 64(%rsp)
ffffff80002052c0: 48 8d 74 24 10       	leaq	16(%rsp), %rsi
ffffff80002052c5: ff 51 28             	callq	*40(%rcx)
ffffff80002052c8: e8 b3 cd ff ff       	callq	0xffffff8000202080 <_ZN5axhal8platform6pc_x864misc9terminate17h89820be2effd4354E>
ffffff80002052cd: 0f 0b                	ud2
ffffff80002052cf: cc                   	int3

ffffff80002052d0 <__TrapHandler_handle_irq>:
ffffff80002052d0: c3                   	retq
ffffff80002052d1: cc                   	int3
ffffff80002052d2: cc                   	int3
ffffff80002052d3: cc                   	int3
ffffff80002052d4: cc                   	int3
ffffff80002052d5: cc                   	int3
ffffff80002052d6: cc                   	int3
ffffff80002052d7: cc                   	int3
ffffff80002052d8: cc                   	int3
ffffff80002052d9: cc                   	int3
ffffff80002052da: cc                   	int3
ffffff80002052db: cc                   	int3
ffffff80002052dc: cc                   	int3
ffffff80002052dd: cc                   	int3
ffffff80002052de: cc                   	int3
ffffff80002052df: cc                   	int3

ffffff80002052e0 <_ZN44_$LT$$RF$T$u20$as$u20$core..fmt..Display$GT$3fmt17h7b1f03bbcfcf2d1cE>:
ffffff80002052e0: 41 57                	pushq	%r15
ffffff80002052e2: 41 56                	pushq	%r14
ffffff80002052e4: 41 55                	pushq	%r13
ffffff80002052e6: 41 54                	pushq	%r12
ffffff80002052e8: 53                   	pushq	%rbx
ffffff80002052e9: 48 83 ec 70          	subq	$112, %rsp
ffffff80002052ed: 4c 8b 2f             	movq	(%rdi), %r13
ffffff80002052f0: 4c 8b 3e             	movq	(%rsi), %r15
ffffff80002052f3: 4c 8b 76 08          	movq	8(%rsi), %r14
ffffff80002052f7: 48 8d 35 11 50 00 00 	leaq	20497(%rip), %rsi       # 0xffffff800020a30f <str.0+0x5ef>
ffffff80002052fe: ba 0c 00 00 00       	movl	$12, %edx
ffffff8000205303: 4c 89 ff             	movq	%r15, %rdi
ffffff8000205306: 41 ff 56 18          	callq	*24(%r14)
ffffff800020530a: b3 01                	movb	$1, %bl
ffffff800020530c: 84 c0                	testb	%al, %al
ffffff800020530e: 0f 85 19 01 00 00    	jne	0xffffff800020542d <_ZN44_$LT$$RF$T$u20$as$u20$core..fmt..Display$GT$3fmt17h7b1f03bbcfcf2d1cE+0x14d>
ffffff8000205314: 49 8b 45 10          	movq	16(%r13), %rax
ffffff8000205318: 48 85 c0             	testq	%rax, %rax
ffffff800020531b: 74 18                	je	0xffffff8000205335 <_ZN44_$LT$$RF$T$u20$as$u20$core..fmt..Display$GT$3fmt17h7b1f03bbcfcf2d1cE+0x55>
ffffff800020531d: 48 89 44 24 08       	movq	%rax, 8(%rsp)
ffffff8000205322: 48 8d 44 24 08       	leaq	8(%rsp), %rax
ffffff8000205327: 48 89 44 24 40       	movq	%rax, 64(%rsp)
ffffff800020532c: 48 8d 05 2d ea ff ff 	leaq	-5587(%rip), %rax       # 0xffffff8000203d60 <_ZN44_$LT$$RF$T$u20$as$u20$core..fmt..Display$GT$3fmt17h139eaa3563ce31caE>
ffffff8000205333: eb 33                	jmp	0xffffff8000205368 <_ZN44_$LT$$RF$T$u20$as$u20$core..fmt..Display$GT$3fmt17h7b1f03bbcfcf2d1cE+0x88>
ffffff8000205335: 4d 8b 65 00          	movq	(%r13), %r12
ffffff8000205339: 49 8b 45 08          	movq	8(%r13), %rax
ffffff800020533d: 4c 89 e7             	movq	%r12, %rdi
ffffff8000205340: ff 50 18             	callq	*24(%rax)
ffffff8000205343: 48 b9 c8 1a f8 a9 34 6c a7 89	movabsq	$-8527728395957036344, %rcx # imm = 0x89A76C34A9F81AC8
ffffff800020534d: 48 39 c8             	cmpq	%rcx, %rax
ffffff8000205350: 75 60                	jne	0xffffff80002053b2 <_ZN44_$LT$$RF$T$u20$as$u20$core..fmt..Display$GT$3fmt17h7b1f03bbcfcf2d1cE+0xd2>
ffffff8000205352: 4c 89 64 24 08       	movq	%r12, 8(%rsp)
ffffff8000205357: 48 8d 44 24 08       	leaq	8(%rsp), %rax
ffffff800020535c: 48 89 44 24 40       	movq	%rax, 64(%rsp)
ffffff8000205361: 48 8d 05 48 1a 00 00 	leaq	6728(%rip), %rax        # 0xffffff8000206db0 <_ZN44_$LT$$RF$T$u20$as$u20$core..fmt..Display$GT$3fmt17h3d7d35182bbb5f6bE>
ffffff8000205368: 48 89 44 24 48       	movq	%rax, 72(%rsp)
ffffff800020536d: 48 c7 44 24 10 00 00 00 00   	movq	$0, 16(%rsp)
ffffff8000205376: 48 8d 05 b3 b4 00 00 	leaq	46259(%rip), %rax       # 0xffffff8000210830 <_ZN5axhal8platform6pc_x864time12CPU_FREQ_MHZ17hcbee90971ca93e77E.0+0x6a8>
ffffff800020537d: 48 89 44 24 20       	movq	%rax, 32(%rsp)
ffffff8000205382: 48 c7 44 24 28 02 00 00 00   	movq	$2, 40(%rsp)
ffffff800020538b: 48 8d 44 24 40       	leaq	64(%rsp), %rax
ffffff8000205390: 48 89 44 24 30       	movq	%rax, 48(%rsp)
ffffff8000205395: 48 c7 44 24 38 01 00 00 00   	movq	$1, 56(%rsp)
ffffff800020539e: 48 8d 54 24 10       	leaq	16(%rsp), %rdx
ffffff80002053a3: 4c 89 ff             	movq	%r15, %rdi
ffffff80002053a6: 4c 89 f6             	movq	%r14, %rsi
ffffff80002053a9: e8 12 10 00 00       	callq	0xffffff80002063c0 <_ZN4core3fmt5write17h3e64ac24810c32e1E>
ffffff80002053ae: 84 c0                	testb	%al, %al
ffffff80002053b0: 75 7b                	jne	0xffffff800020542d <_ZN44_$LT$$RF$T$u20$as$u20$core..fmt..Display$GT$3fmt17h7b1f03bbcfcf2d1cE+0x14d>
ffffff80002053b2: 49 8b 45 18          	movq	24(%r13), %rax
ffffff80002053b6: 48 8d 48 10          	leaq	16(%rax), %rcx
ffffff80002053ba: 48 89 44 24 40       	movq	%rax, 64(%rsp)
ffffff80002053bf: 48 83 c0 14          	addq	$20, %rax
ffffff80002053c3: 48 8d 15 16 2e 00 00 	leaq	11798(%rip), %rdx       # 0xffffff80002081e0 <_ZN44_$LT$$RF$T$u20$as$u20$core..fmt..Display$GT$3fmt17h826ed5806fed4bf7E>
ffffff80002053ca: 48 89 54 24 48       	movq	%rdx, 72(%rsp)
ffffff80002053cf: 48 89 4c 24 50       	movq	%rcx, 80(%rsp)
ffffff80002053d4: 48 8d 0d a5 18 00 00 	leaq	6309(%rip), %rcx        # 0xffffff8000206c80 <_ZN4core3fmt3num3imp52_$LT$impl$u20$core..fmt..Display$u20$for$u20$u32$GT$3fmt17h906c1338c60cfce1E>
ffffff80002053db: 48 89 4c 24 58       	movq	%rcx, 88(%rsp)
ffffff80002053e0: 48 89 44 24 60       	movq	%rax, 96(%rsp)
ffffff80002053e5: 48 89 4c 24 68       	movq	%rcx, 104(%rsp)
ffffff80002053ea: 48 c7 44 24 10 00 00 00 00   	movq	$0, 16(%rsp)
ffffff80002053f3: 48 8d 05 06 b4 00 00 	leaq	46086(%rip), %rax       # 0xffffff8000210800 <_ZN5axhal8platform6pc_x864time12CPU_FREQ_MHZ17hcbee90971ca93e77E.0+0x678>
ffffff80002053fa: 48 89 44 24 20       	movq	%rax, 32(%rsp)
ffffff80002053ff: 48 c7 44 24 28 03 00 00 00   	movq	$3, 40(%rsp)
ffffff8000205408: 48 8d 44 24 40       	leaq	64(%rsp), %rax
ffffff800020540d: 48 89 44 24 30       	movq	%rax, 48(%rsp)
ffffff8000205412: 48 c7 44 24 38 03 00 00 00   	movq	$3, 56(%rsp)
ffffff800020541b: 48 8d 54 24 10       	leaq	16(%rsp), %rdx
ffffff8000205420: 4c 89 ff             	movq	%r15, %rdi
ffffff8000205423: 4c 89 f6             	movq	%r14, %rsi
ffffff8000205426: e8 95 0f 00 00       	callq	0xffffff80002063c0 <_ZN4core3fmt5write17h3e64ac24810c32e1E>
ffffff800020542b: 89 c3                	movl	%eax, %ebx
ffffff800020542d: 89 d8                	movl	%ebx, %eax
ffffff800020542f: 48 83 c4 70          	addq	$112, %rsp
ffffff8000205433: 5b                   	popq	%rbx
ffffff8000205434: 41 5c                	popq	%r12
ffffff8000205436: 41 5d                	popq	%r13
ffffff8000205438: 41 5e                	popq	%r14
ffffff800020543a: 41 5f                	popq	%r15
ffffff800020543c: c3                   	retq
ffffff800020543d: cc                   	int3
ffffff800020543e: cc                   	int3
ffffff800020543f: cc                   	int3

ffffff8000205440 <rust_begin_unwind>:
ffffff8000205440: 48 81 ec 98 00 00 00 	subq	$152, %rsp
ffffff8000205447: 48 89 3c 24          	movq	%rdi, (%rsp)
ffffff800020544b: 48 8b 05 de db 04 00 	movq	318430(%rip), %rax      # 0xffffff8000253030 <_ZN3log20MAX_LOG_LEVEL_FILTER17h9ec50564a00176a0E.0>
ffffff8000205452: 48 85 c0             	testq	%rax, %rax
ffffff8000205455: 0f 84 e5 00 00 00    	je	0xffffff8000205540 <rust_begin_unwind+0x100>
ffffff800020545b: 48 89 e0             	movq	%rsp, %rax
ffffff800020545e: 48 89 44 24 08       	movq	%rax, 8(%rsp)
ffffff8000205463: 48 8d 05 76 fe ff ff 	leaq	-394(%rip), %rax        # 0xffffff80002052e0 <_ZN44_$LT$$RF$T$u20$as$u20$core..fmt..Display$GT$3fmt17h7b1f03bbcfcf2d1cE>
ffffff800020546a: 48 89 44 24 10       	movq	%rax, 16(%rsp)
ffffff800020546f: 48 8b 05 b2 db 04 00 	movq	318386(%rip), %rax      # 0xffffff8000253028 <_ZN5libax2io5stdio6stdout8INSTANCE17h4c5dc04dc8abc6f2E>
ffffff8000205476: 48 83 f8 02          	cmpq	$2, %rax
ffffff800020547a: 48 8d 05 47 b7 00 00 	leaq	46919(%rip), %rax       # 0xffffff8000210bc8 <_ZN5axhal8platform6pc_x864time12CPU_FREQ_MHZ17hcbee90971ca93e77E.0+0xa40>
ffffff8000205481: 48 0f 44 05 77 b7 00 00      	cmoveq	46967(%rip), %rax # 0xffffff8000210c00 <_ZN3log6LOGGER17h48756037b7073395E.1>
ffffff8000205489: 48 8d 3d 17 5b 00 00 	leaq	23319(%rip), %rdi       # 0xffffff800020afa7 <_ZN3log6logger3NOP17hf5a5c7f8a7401e67E>
ffffff8000205490: 48 0f 44 3d 78 b8 00 00      	cmoveq	47224(%rip), %rdi # 0xffffff8000210d10 <_ZN3log6LOGGER17h48756037b7073395E.1+0x110>
ffffff8000205498: 48 8d 0d b7 4d 00 00 	leaq	19895(%rip), %rcx       # 0xffffff800020a256 <str.0+0x536>
ffffff800020549f: 48 89 4c 24 50       	movq	%rcx, 80(%rsp)
ffffff80002054a4: 48 c7 44 24 58 15 00 00 00   	movq	$21, 88(%rsp)
ffffff80002054ad: 48 c7 44 24 60 01 00 00 00   	movq	$1, 96(%rsp)
ffffff80002054b6: 48 c7 44 24 18 00 00 00 00   	movq	$0, 24(%rsp)
ffffff80002054bf: 48 8d 15 52 b7 00 00 	leaq	46930(%rip), %rdx       # 0xffffff8000210c18 <_ZN3log6LOGGER17h48756037b7073395E.1+0x18>
ffffff80002054c6: 48 89 54 24 28       	movq	%rdx, 40(%rsp)
ffffff80002054cb: 48 c7 44 24 30 01 00 00 00   	movq	$1, 48(%rsp)
ffffff80002054d4: 48 8d 54 24 08       	leaq	8(%rsp), %rdx
ffffff80002054d9: 48 89 54 24 38       	movq	%rdx, 56(%rsp)
ffffff80002054de: 48 c7 44 24 40 01 00 00 00   	movq	$1, 64(%rsp)
ffffff80002054e7: 48 c7 44 24 68 00 00 00 00   	movq	$0, 104(%rsp)
ffffff80002054f0: 48 89 4c 24 70       	movq	%rcx, 112(%rsp)
ffffff80002054f5: 48 c7 44 24 78 15 00 00 00   	movq	$21, 120(%rsp)
ffffff80002054fe: 48 c7 84 24 80 00 00 00 00 00 00 00  	movq	$0, 128(%rsp)
ffffff800020550a: 48 8d 0d 5a 4d 00 00 	leaq	19802(%rip), %rcx       # 0xffffff800020a26b <str.0+0x54b>
ffffff8000205511: 48 89 8c 24 88 00 00 00      	movq	%rcx, 136(%rsp)
ffffff8000205519: 48 c7 84 24 90 00 00 00 23 00 00 00  	movq	$35, 144(%rsp)
ffffff8000205525: 48 b9 01 00 00 00 05 00 00 00	movabsq	$21474836481, %rcx # imm = 0x500000001
ffffff800020552f: 48 89 4c 24 48       	movq	%rcx, 72(%rsp)
ffffff8000205534: 48 8d 74 24 18       	leaq	24(%rsp), %rsi
ffffff8000205539: ff 50 28             	callq	*40(%rax)
ffffff800020553c: 0f 1f 40 00          	nopl	(%rax)
ffffff8000205540: eb fe                	jmp	0xffffff8000205540 <rust_begin_unwind+0x100>
ffffff8000205542: cc                   	int3
ffffff8000205543: cc                   	int3
ffffff8000205544: cc                   	int3
ffffff8000205545: cc                   	int3
ffffff8000205546: cc                   	int3
ffffff8000205547: cc                   	int3
ffffff8000205548: cc                   	int3
ffffff8000205549: cc                   	int3
ffffff800020554a: cc                   	int3
ffffff800020554b: cc                   	int3
ffffff800020554c: cc                   	int3
ffffff800020554d: cc                   	int3
ffffff800020554e: cc                   	int3
ffffff800020554f: cc                   	int3

ffffff8000205550 <_ZN4core3ops8function6FnOnce9call_once17h4868cb90b62989d3E>:
ffffff8000205550: 48 8b 07             	movq	(%rdi), %rax
ffffff8000205553: 66 66 66 66 2e 0f 1f 84 00 00 00 00 00       	nopw	%cs:(%rax,%rax)
ffffff8000205560: eb fe                	jmp	0xffffff8000205560 <_ZN4core3ops8function6FnOnce9call_once17h4868cb90b62989d3E+0x10>
ffffff8000205562: cc                   	int3
ffffff8000205563: cc                   	int3
ffffff8000205564: cc                   	int3
ffffff8000205565: cc                   	int3
ffffff8000205566: cc                   	int3
ffffff8000205567: cc                   	int3
ffffff8000205568: cc                   	int3
ffffff8000205569: cc                   	int3
ffffff800020556a: cc                   	int3
ffffff800020556b: cc                   	int3
ffffff800020556c: cc                   	int3
ffffff800020556d: cc                   	int3
ffffff800020556e: cc                   	int3
ffffff800020556f: cc                   	int3

ffffff8000205570 <_ZN4core9panicking9panic_fmt17h95420505f5f4b6c1E>:
ffffff8000205570: 48 83 ec 28          	subq	$40, %rsp
ffffff8000205574: 48 8b 05 95 b7 00 00 	movq	46997(%rip), %rax       # 0xffffff8000210d10 <_ZN3log6LOGGER17h48756037b7073395E.1+0x110>
ffffff800020557b: 48 89 04 24          	movq	%rax, (%rsp)
ffffff800020557f: 48 8d 05 ca b2 00 00 	leaq	45770(%rip), %rax       # 0xffffff8000210850 <_ZN5axhal8platform6pc_x864time12CPU_FREQ_MHZ17hcbee90971ca93e77E.0+0x6c8>
ffffff8000205586: 48 89 44 24 08       	movq	%rax, 8(%rsp)
ffffff800020558b: 48 89 7c 24 10       	movq	%rdi, 16(%rsp)
ffffff8000205590: 48 89 74 24 18       	movq	%rsi, 24(%rsp)
ffffff8000205595: c6 44 24 20 01       	movb	$1, 32(%rsp)
ffffff800020559a: 48 89 e7             	movq	%rsp, %rdi
ffffff800020559d: e8 9e fe ff ff       	callq	0xffffff8000205440 <rust_begin_unwind>
ffffff80002055a2: 0f 0b                	ud2
ffffff80002055a4: cc                   	int3
ffffff80002055a5: cc                   	int3
ffffff80002055a6: cc                   	int3
ffffff80002055a7: cc                   	int3
ffffff80002055a8: cc                   	int3
ffffff80002055a9: cc                   	int3
ffffff80002055aa: cc                   	int3
ffffff80002055ab: cc                   	int3
ffffff80002055ac: cc                   	int3
ffffff80002055ad: cc                   	int3
ffffff80002055ae: cc                   	int3
ffffff80002055af: cc                   	int3

ffffff80002055b0 <_ZN4core3ptr102drop_in_place$LT$$RF$core..iter..adapters..copied..Copied$LT$core..slice..iter..Iter$LT$u8$GT$$GT$$GT$17h83a21919a7ca1c13E>:
ffffff80002055b0: c3                   	retq
ffffff80002055b1: cc                   	int3
ffffff80002055b2: cc                   	int3
ffffff80002055b3: cc                   	int3
ffffff80002055b4: cc                   	int3
ffffff80002055b5: cc                   	int3
ffffff80002055b6: cc                   	int3
ffffff80002055b7: cc                   	int3
ffffff80002055b8: cc                   	int3
ffffff80002055b9: cc                   	int3
ffffff80002055ba: cc                   	int3
ffffff80002055bb: cc                   	int3
ffffff80002055bc: cc                   	int3
ffffff80002055bd: cc                   	int3
ffffff80002055be: cc                   	int3
ffffff80002055bf: cc                   	int3

ffffff80002055c0 <_ZN36_$LT$T$u20$as$u20$core..any..Any$GT$7type_id17h91f8f2e60d000d72E>:
ffffff80002055c0: 48 b8 01 a7 24 77 aa 79 e3 ed	movabsq	$-1305065693957019903, %rax # imm = 0xEDE379AA7724A701
ffffff80002055ca: c3                   	retq
ffffff80002055cb: cc                   	int3
ffffff80002055cc: cc                   	int3
ffffff80002055cd: cc                   	int3
ffffff80002055ce: cc                   	int3
ffffff80002055cf: cc                   	int3

ffffff80002055d0 <_ZN4core9panicking18panic_bounds_check17hbf0f76b280770d4fE>:
ffffff80002055d0: 48 83 ec 68          	subq	$104, %rsp
ffffff80002055d4: 48 89 7c 24 08       	movq	%rdi, 8(%rsp)
ffffff80002055d9: 48 89 74 24 10       	movq	%rsi, 16(%rsp)
ffffff80002055de: 48 8d 44 24 10       	leaq	16(%rsp), %rax
ffffff80002055e3: 48 89 44 24 18       	movq	%rax, 24(%rsp)
ffffff80002055e8: 48 8d 05 61 00 00 00 	leaq	97(%rip), %rax          # 0xffffff8000205650 <_ZN4core3fmt3num3imp52_$LT$impl$u20$core..fmt..Display$u20$for$u20$u64$GT$3fmt17h78dc0edf4b145690E>
ffffff80002055ef: 48 89 44 24 20       	movq	%rax, 32(%rsp)
ffffff80002055f4: 48 8d 4c 24 08       	leaq	8(%rsp), %rcx
ffffff80002055f9: 48 89 4c 24 28       	movq	%rcx, 40(%rsp)
ffffff80002055fe: 48 89 44 24 30       	movq	%rax, 48(%rsp)
ffffff8000205603: 48 8d 05 d6 b1 00 00 	leaq	45526(%rip), %rax       # 0xffffff80002107e0 <_ZN5axhal8platform6pc_x864time12CPU_FREQ_MHZ17hcbee90971ca93e77E.0+0x658>
ffffff800020560a: 48 89 44 24 48       	movq	%rax, 72(%rsp)
ffffff800020560f: 48 c7 44 24 50 02 00 00 00   	movq	$2, 80(%rsp)
ffffff8000205618: 48 c7 44 24 38 00 00 00 00   	movq	$0, 56(%rsp)
ffffff8000205621: 48 8d 44 24 18       	leaq	24(%rsp), %rax
ffffff8000205626: 48 89 44 24 58       	movq	%rax, 88(%rsp)
ffffff800020562b: 48 c7 44 24 60 02 00 00 00   	movq	$2, 96(%rsp)
ffffff8000205634: 48 8d 7c 24 38       	leaq	56(%rsp), %rdi
ffffff8000205639: 48 89 d6             	movq	%rdx, %rsi
ffffff800020563c: e8 2f ff ff ff       	callq	0xffffff8000205570 <_ZN4core9panicking9panic_fmt17h95420505f5f4b6c1E>
ffffff8000205641: 0f 0b                	ud2
ffffff8000205643: cc                   	int3
ffffff8000205644: cc                   	int3
ffffff8000205645: cc                   	int3
ffffff8000205646: cc                   	int3
ffffff8000205647: cc                   	int3
ffffff8000205648: cc                   	int3
ffffff8000205649: cc                   	int3
ffffff800020564a: cc                   	int3
ffffff800020564b: cc                   	int3
ffffff800020564c: cc                   	int3
ffffff800020564d: cc                   	int3
ffffff800020564e: cc                   	int3
ffffff800020564f: cc                   	int3

ffffff8000205650 <_ZN4core3fmt3num3imp52_$LT$impl$u20$core..fmt..Display$u20$for$u20$u64$GT$3fmt17h78dc0edf4b145690E>:
ffffff8000205650: 48 83 ec 28          	subq	$40, %rsp
ffffff8000205654: 49 89 f2             	movq	%rsi, %r10
ffffff8000205657: 4c 8b 1f             	movq	(%rdi), %r11
ffffff800020565a: b9 27 00 00 00       	movl	$39, %ecx
ffffff800020565f: 49 81 fb 10 27 00 00 	cmpq	$10000, %r11            # imm = 0x2710
ffffff8000205666: 0f 82 bc 00 00 00    	jb	0xffffff8000205728 <_ZN4core3fmt3num3imp52_$LT$impl$u20$core..fmt..Display$u20$for$u20$u64$GT$3fmt17h78dc0edf4b145690E+0xd8>
ffffff800020566c: bf 27 00 00 00       	movl	$39, %edi
ffffff8000205671: 49 b8 4b 59 86 38 d6 c5 6d 34	movabsq	$3777893186295716171, %r8 # imm = 0x346DC5D63886594B
ffffff800020567b: 4c 8d 0d ce 4c 00 00 	leaq	19662(%rip), %r9        # 0xffffff800020a350 <str.0+0x630>
ffffff8000205682: 66 66 66 66 66 2e 0f 1f 84 00 00 00 00 00    	nopw	%cs:(%rax,%rax)
ffffff8000205690: 4c 89 d8             	movq	%r11, %rax
ffffff8000205693: 49 f7 e0             	mulq	%r8
ffffff8000205696: 48 c1 ea 0b          	shrq	$11, %rdx
ffffff800020569a: 69 c2 10 27 00 00    	imull	$10000, %edx, %eax      # imm = 0x2710
ffffff80002056a0: 44 89 d9             	movl	%r11d, %ecx
ffffff80002056a3: 29 c1                	subl	%eax, %ecx
ffffff80002056a5: 0f b7 c1             	movzwl	%cx, %eax
ffffff80002056a8: c1 e8 02             	shrl	$2, %eax
ffffff80002056ab: 69 c0 7b 14 00 00    	imull	$5243, %eax, %eax       # imm = 0x147B
ffffff80002056b1: c1 e8 11             	shrl	$17, %eax
ffffff80002056b4: 6b f0 64             	imull	$100, %eax, %esi
ffffff80002056b7: 29 f1                	subl	%esi, %ecx
ffffff80002056b9: 0f b7 f1             	movzwl	%cx, %esi
ffffff80002056bc: 48 8d 4f fc          	leaq	-4(%rdi), %rcx
ffffff80002056c0: 41 0f b7 04 41       	movzwl	(%r9,%rax,2), %eax
ffffff80002056c5: 66 89 44 3c fd       	movw	%ax, -3(%rsp,%rdi)
ffffff80002056ca: 41 0f b7 04 71       	movzwl	(%r9,%rsi,2), %eax
ffffff80002056cf: 66 89 44 3c ff       	movw	%ax, -1(%rsp,%rdi)
ffffff80002056d4: 48 89 cf             	movq	%rcx, %rdi
ffffff80002056d7: 49 81 fb ff e0 f5 05 	cmpq	$99999999, %r11         # imm = 0x5F5E0FF
ffffff80002056de: 49 89 d3             	movq	%rdx, %r11
ffffff80002056e1: 77 ad                	ja	0xffffff8000205690 <_ZN4core3fmt3num3imp52_$LT$impl$u20$core..fmt..Display$u20$for$u20$u64$GT$3fmt17h78dc0edf4b145690E+0x40>
ffffff80002056e3: 48 83 fa 63          	cmpq	$99, %rdx
ffffff80002056e7: 76 2e                	jbe	0xffffff8000205717 <_ZN4core3fmt3num3imp52_$LT$impl$u20$core..fmt..Display$u20$for$u20$u64$GT$3fmt17h78dc0edf4b145690E+0xc7>
ffffff80002056e9: 0f b7 c2             	movzwl	%dx, %eax
ffffff80002056ec: c1 e8 02             	shrl	$2, %eax
ffffff80002056ef: 69 c0 7b 14 00 00    	imull	$5243, %eax, %eax       # imm = 0x147B
ffffff80002056f5: c1 e8 11             	shrl	$17, %eax
ffffff80002056f8: 6b f0 64             	imull	$100, %eax, %esi
ffffff80002056fb: 29 f2                	subl	%esi, %edx
ffffff80002056fd: 0f b7 d2             	movzwl	%dx, %edx
ffffff8000205700: 48 8d 35 49 4c 00 00 	leaq	19529(%rip), %rsi       # 0xffffff800020a350 <str.0+0x630>
ffffff8000205707: 0f b7 14 56          	movzwl	(%rsi,%rdx,2), %edx
ffffff800020570b: 66 89 54 0c ff       	movw	%dx, -1(%rsp,%rcx)
ffffff8000205710: 48 83 c1 fe          	addq	$-2, %rcx
ffffff8000205714: 48 89 c2             	movq	%rax, %rdx
ffffff8000205717: 48 83 fa 0a          	cmpq	$10, %rdx
ffffff800020571b: 73 16                	jae	0xffffff8000205733 <_ZN4core3fmt3num3imp52_$LT$impl$u20$core..fmt..Display$u20$for$u20$u64$GT$3fmt17h78dc0edf4b145690E+0xe3>
ffffff800020571d: 80 c2 30             	addb	$48, %dl
ffffff8000205720: 88 14 0c             	movb	%dl, (%rsp,%rcx)
ffffff8000205723: 48 ff c9             	decq	%rcx
ffffff8000205726: eb 1f                	jmp	0xffffff8000205747 <_ZN4core3fmt3num3imp52_$LT$impl$u20$core..fmt..Display$u20$for$u20$u64$GT$3fmt17h78dc0edf4b145690E+0xf7>
ffffff8000205728: 4c 89 da             	movq	%r11, %rdx
ffffff800020572b: 48 83 fa 63          	cmpq	$99, %rdx
ffffff800020572f: 77 b8                	ja	0xffffff80002056e9 <_ZN4core3fmt3num3imp52_$LT$impl$u20$core..fmt..Display$u20$for$u20$u64$GT$3fmt17h78dc0edf4b145690E+0x99>
ffffff8000205731: eb e4                	jmp	0xffffff8000205717 <_ZN4core3fmt3num3imp52_$LT$impl$u20$core..fmt..Display$u20$for$u20$u64$GT$3fmt17h78dc0edf4b145690E+0xc7>
ffffff8000205733: 48 8d 05 16 4c 00 00 	leaq	19478(%rip), %rax       # 0xffffff800020a350 <str.0+0x630>
ffffff800020573a: 0f b7 04 50          	movzwl	(%rax,%rdx,2), %eax
ffffff800020573e: 66 89 44 0c ff       	movw	%ax, -1(%rsp,%rcx)
ffffff8000205743: 48 83 c1 fe          	addq	$-2, %rcx
ffffff8000205747: 4c 8d 04 0c          	leaq	(%rsp,%rcx), %r8
ffffff800020574b: 49 ff c0             	incq	%r8
ffffff800020574e: 41 b9 27 00 00 00    	movl	$39, %r9d
ffffff8000205754: 49 29 c9             	subq	%rcx, %r9
ffffff8000205757: 48 8b 15 b2 b5 00 00 	movq	46514(%rip), %rdx       # 0xffffff8000210d10 <_ZN3log6LOGGER17h48756037b7073395E.1+0x110>
ffffff800020575e: 4c 89 d7             	movq	%r10, %rdi
ffffff8000205761: be 01 00 00 00       	movl	$1, %esi
ffffff8000205766: 31 c9                	xorl	%ecx, %ecx
ffffff8000205768: e8 13 00 00 00       	callq	0xffffff8000205780 <_ZN4core3fmt9Formatter12pad_integral17h43fecee5ed9182e1E>
ffffff800020576d: 48 83 c4 28          	addq	$40, %rsp
ffffff8000205771: c3                   	retq
ffffff8000205772: cc                   	int3
ffffff8000205773: cc                   	int3
ffffff8000205774: cc                   	int3
ffffff8000205775: cc                   	int3
ffffff8000205776: cc                   	int3
ffffff8000205777: cc                   	int3
ffffff8000205778: cc                   	int3
ffffff8000205779: cc                   	int3
ffffff800020577a: cc                   	int3
ffffff800020577b: cc                   	int3
ffffff800020577c: cc                   	int3
ffffff800020577d: cc                   	int3
ffffff800020577e: cc                   	int3
ffffff800020577f: cc                   	int3

ffffff8000205780 <_ZN4core3fmt9Formatter12pad_integral17h43fecee5ed9182e1E>:
ffffff8000205780: 55                   	pushq	%rbp
ffffff8000205781: 41 57                	pushq	%r15
ffffff8000205783: 41 56                	pushq	%r14
ffffff8000205785: 41 55                	pushq	%r13
ffffff8000205787: 41 54                	pushq	%r12
ffffff8000205789: 53                   	pushq	%rbx
ffffff800020578a: 48 83 ec 38          	subq	$56, %rsp
ffffff800020578e: 4d 89 cc             	movq	%r9, %r12
ffffff8000205791: 4d 89 c6             	movq	%r8, %r14
ffffff8000205794: 48 89 d3             	movq	%rdx, %rbx
ffffff8000205797: 49 89 fd             	movq	%rdi, %r13
ffffff800020579a: 85 f6                	testl	%esi, %esi
ffffff800020579c: 0f 84 a2 00 00 00    	je	0xffffff8000205844 <_ZN4core3fmt9Formatter12pad_integral17h43fecee5ed9182e1E+0xc4>
ffffff80002057a2: 45 8b 45 30          	movl	48(%r13), %r8d
ffffff80002057a6: 44 89 c0             	movl	%r8d, %eax
ffffff80002057a9: 83 e0 01             	andl	$1, %eax
ffffff80002057ac: ba 00 00 11 00       	movl	$1114112, %edx          # imm = 0x110000
ffffff80002057b1: 41 b9 2b 00 00 00    	movl	$43, %r9d
ffffff80002057b7: 44 0f 44 ca          	cmovel	%edx, %r9d
ffffff80002057bb: 4c 01 e0             	addq	%r12, %rax
ffffff80002057be: 41 f6 c0 04          	testb	$4, %r8b
ffffff80002057c2: 0f 84 95 00 00 00    	je	0xffffff800020585d <_ZN4core3fmt9Formatter12pad_integral17h43fecee5ed9182e1E+0xdd>
ffffff80002057c8: 48 85 c9             	testq	%rcx, %rcx
ffffff80002057cb: 0f 84 30 01 00 00    	je	0xffffff8000205901 <_ZN4core3fmt9Formatter12pad_integral17h43fecee5ed9182e1E+0x181>
ffffff80002057d1: 48 89 ce             	movq	%rcx, %rsi
ffffff80002057d4: 48 83 e6 03          	andq	$3, %rsi
ffffff80002057d8: 0f 84 a0 01 00 00    	je	0xffffff800020597e <_ZN4core3fmt9Formatter12pad_integral17h43fecee5ed9182e1E+0x1fe>
ffffff80002057de: 31 d2                	xorl	%edx, %edx
ffffff80002057e0: 31 ff                	xorl	%edi, %edi
ffffff80002057e2: 66 66 66 66 66 2e 0f 1f 84 00 00 00 00 00    	nopw	%cs:(%rax,%rax)
ffffff80002057f0: 31 ed                	xorl	%ebp, %ebp
ffffff80002057f2: 80 3c 3b c0          	cmpb	$-64, (%rbx,%rdi)
ffffff80002057f6: 40 0f 9d c5          	setge	%bpl
ffffff80002057fa: 48 01 ea             	addq	%rbp, %rdx
ffffff80002057fd: 48 ff c7             	incq	%rdi
ffffff8000205800: 48 39 fe             	cmpq	%rdi, %rsi
ffffff8000205803: 75 eb                	jne	0xffffff80002057f0 <_ZN4core3fmt9Formatter12pad_integral17h43fecee5ed9182e1E+0x70>
ffffff8000205805: 48 01 d0             	addq	%rdx, %rax
ffffff8000205808: 49 83 7d 10 00       	cmpq	$0, 16(%r13)
ffffff800020580d: 75 57                	jne	0xffffff8000205866 <_ZN4core3fmt9Formatter12pad_integral17h43fecee5ed9182e1E+0xe6>
ffffff800020580f: 49 89 c8             	movq	%rcx, %r8
ffffff8000205812: 44 89 ca             	movl	%r9d, %edx
ffffff8000205815: 4d 8b 7d 00          	movq	(%r13), %r15
ffffff8000205819: 49 8b 6d 08          	movq	8(%r13), %rbp
ffffff800020581d: 4c 89 ff             	movq	%r15, %rdi
ffffff8000205820: 48 89 ee             	movq	%rbp, %rsi
ffffff8000205823: 48 89 d9             	movq	%rbx, %rcx
ffffff8000205826: e8 65 02 00 00       	callq	0xffffff8000205a90 <_ZN4core3fmt9Formatter12pad_integral12write_prefix17h821c8b63fc9ae85bE>
ffffff800020582b: b3 01                	movb	$1, %bl
ffffff800020582d: 84 c0                	testb	%al, %al
ffffff800020582f: 0f 85 c5 01 00 00    	jne	0xffffff80002059fa <_ZN4core3fmt9Formatter12pad_integral17h43fecee5ed9182e1E+0x27a>
ffffff8000205835: 48 8b 45 18          	movq	24(%rbp), %rax
ffffff8000205839: 4c 89 ff             	movq	%r15, %rdi
ffffff800020583c: 4c 89 f6             	movq	%r14, %rsi
ffffff800020583f: e9 aa 00 00 00       	jmp	0xffffff80002058ee <_ZN4core3fmt9Formatter12pad_integral17h43fecee5ed9182e1E+0x16e>
ffffff8000205844: 49 8d 44 24 01       	leaq	1(%r12), %rax
ffffff8000205849: 45 8b 45 30          	movl	48(%r13), %r8d
ffffff800020584d: 41 b9 2d 00 00 00    	movl	$45, %r9d
ffffff8000205853: 41 f6 c0 04          	testb	$4, %r8b
ffffff8000205857: 0f 85 6b ff ff ff    	jne	0xffffff80002057c8 <_ZN4core3fmt9Formatter12pad_integral17h43fecee5ed9182e1E+0x48>
ffffff800020585d: 31 db                	xorl	%ebx, %ebx
ffffff800020585f: 49 83 7d 10 00       	cmpq	$0, 16(%r13)
ffffff8000205864: 74 a9                	je	0xffffff800020580f <_ZN4core3fmt9Formatter12pad_integral17h43fecee5ed9182e1E+0x8f>
ffffff8000205866: 4c 89 74 24 18       	movq	%r14, 24(%rsp)
ffffff800020586b: 4d 8b 75 18          	movq	24(%r13), %r14
ffffff800020586f: 49 29 c6             	subq	%rax, %r14
ffffff8000205872: 76 48                	jbe	0xffffff80002058bc <_ZN4core3fmt9Formatter12pad_integral17h43fecee5ed9182e1E+0x13c>
ffffff8000205874: 41 f6 c0 08          	testb	$8, %r8b
ffffff8000205878: 0f 85 98 00 00 00    	jne	0xffffff8000205916 <_ZN4core3fmt9Formatter12pad_integral17h43fecee5ed9182e1E+0x196>
ffffff800020587e: 41 8b 55 38          	movl	56(%r13), %edx
ffffff8000205882: 80 fa 03             	cmpb	$3, %dl
ffffff8000205885: b8 01 00 00 00       	movl	$1, %eax
ffffff800020588a: 0f 45 c2             	cmovnel	%edx, %eax
ffffff800020588d: 84 c0                	testb	%al, %al
ffffff800020588f: 4c 89 64 24 28       	movq	%r12, 40(%rsp)
ffffff8000205894: 48 89 4c 24 30       	movq	%rcx, 48(%rsp)
ffffff8000205899: 44 89 4c 24 24       	movl	%r9d, 36(%rsp)
ffffff800020589e: 0f 84 ed 00 00 00    	je	0xffffff8000205991 <_ZN4core3fmt9Formatter12pad_integral17h43fecee5ed9182e1E+0x211>
ffffff80002058a4: 0f b6 c0             	movzbl	%al, %eax
ffffff80002058a7: 83 f8 01             	cmpl	$1, %eax
ffffff80002058aa: 0f 85 ec 00 00 00    	jne	0xffffff800020599c <_ZN4core3fmt9Formatter12pad_integral17h43fecee5ed9182e1E+0x21c>
ffffff80002058b0: 31 c0                	xorl	%eax, %eax
ffffff80002058b2: 48 89 44 24 10       	movq	%rax, 16(%rsp)
ffffff80002058b7: e9 f4 00 00 00       	jmp	0xffffff80002059b0 <_ZN4core3fmt9Formatter12pad_integral17h43fecee5ed9182e1E+0x230>
ffffff80002058bc: 49 89 c8             	movq	%rcx, %r8
ffffff80002058bf: 44 89 ca             	movl	%r9d, %edx
ffffff80002058c2: 4d 8b 7d 00          	movq	(%r13), %r15
ffffff80002058c6: 49 8b 6d 08          	movq	8(%r13), %rbp
ffffff80002058ca: 4c 89 ff             	movq	%r15, %rdi
ffffff80002058cd: 48 89 ee             	movq	%rbp, %rsi
ffffff80002058d0: 48 89 d9             	movq	%rbx, %rcx
ffffff80002058d3: e8 b8 01 00 00       	callq	0xffffff8000205a90 <_ZN4core3fmt9Formatter12pad_integral12write_prefix17h821c8b63fc9ae85bE>
ffffff80002058d8: b3 01                	movb	$1, %bl
ffffff80002058da: 84 c0                	testb	%al, %al
ffffff80002058dc: 48 8b 74 24 18       	movq	24(%rsp), %rsi
ffffff80002058e1: 0f 85 13 01 00 00    	jne	0xffffff80002059fa <_ZN4core3fmt9Formatter12pad_integral17h43fecee5ed9182e1E+0x27a>
ffffff80002058e7: 48 8b 45 18          	movq	24(%rbp), %rax
ffffff80002058eb: 4c 89 ff             	movq	%r15, %rdi
ffffff80002058ee: 4c 89 e2             	movq	%r12, %rdx
ffffff80002058f1: 48 83 c4 38          	addq	$56, %rsp
ffffff80002058f5: 5b                   	popq	%rbx
ffffff80002058f6: 41 5c                	popq	%r12
ffffff80002058f8: 41 5d                	popq	%r13
ffffff80002058fa: 41 5e                	popq	%r14
ffffff80002058fc: 41 5f                	popq	%r15
ffffff80002058fe: 5d                   	popq	%rbp
ffffff80002058ff: ff e0                	jmpq	*%rax
ffffff8000205901: 31 d2                	xorl	%edx, %edx
ffffff8000205903: 48 01 d0             	addq	%rdx, %rax
ffffff8000205906: 49 83 7d 10 00       	cmpq	$0, 16(%r13)
ffffff800020590b: 0f 85 55 ff ff ff    	jne	0xffffff8000205866 <_ZN4core3fmt9Formatter12pad_integral17h43fecee5ed9182e1E+0xe6>
ffffff8000205911: e9 f9 fe ff ff       	jmp	0xffffff800020580f <_ZN4core3fmt9Formatter12pad_integral17h43fecee5ed9182e1E+0x8f>
ffffff8000205916: 41 8b 45 34          	movl	52(%r13), %eax
ffffff800020591a: 89 44 24 10          	movl	%eax, 16(%rsp)
ffffff800020591e: 41 c7 45 34 30 00 00 00      	movl	$48, 52(%r13)
ffffff8000205926: 41 0f b6 45 38       	movzbl	56(%r13), %eax
ffffff800020592b: 88 44 24 0f          	movb	%al, 15(%rsp)
ffffff800020592f: 41 c6 45 38 01       	movb	$1, 56(%r13)
ffffff8000205934: 49 8b 6d 00          	movq	(%r13), %rbp
ffffff8000205938: 49 89 c8             	movq	%rcx, %r8
ffffff800020593b: 44 89 ca             	movl	%r9d, %edx
ffffff800020593e: 4d 8b 7d 08          	movq	8(%r13), %r15
ffffff8000205942: 48 89 ef             	movq	%rbp, %rdi
ffffff8000205945: 4c 89 fe             	movq	%r15, %rsi
ffffff8000205948: 48 89 d9             	movq	%rbx, %rcx
ffffff800020594b: e8 40 01 00 00       	callq	0xffffff8000205a90 <_ZN4core3fmt9Formatter12pad_integral12write_prefix17h821c8b63fc9ae85bE>
ffffff8000205950: b3 01                	movb	$1, %bl
ffffff8000205952: 84 c0                	testb	%al, %al
ffffff8000205954: 0f 85 a0 00 00 00    	jne	0xffffff80002059fa <_ZN4core3fmt9Formatter12pad_integral17h43fecee5ed9182e1E+0x27a>
ffffff800020595a: 49 ff c6             	incq	%r14
ffffff800020595d: 0f 1f 00             	nopl	(%rax)
ffffff8000205960: 49 ff ce             	decq	%r14
ffffff8000205963: 0f 84 a2 00 00 00    	je	0xffffff8000205a0b <_ZN4core3fmt9Formatter12pad_integral17h43fecee5ed9182e1E+0x28b>
ffffff8000205969: 48 89 ef             	movq	%rbp, %rdi
ffffff800020596c: be 30 00 00 00       	movl	$48, %esi
ffffff8000205971: 41 ff 57 20          	callq	*32(%r15)
ffffff8000205975: 84 c0                	testb	%al, %al
ffffff8000205977: 74 e7                	je	0xffffff8000205960 <_ZN4core3fmt9Formatter12pad_integral17h43fecee5ed9182e1E+0x1e0>
ffffff8000205979: e9 7c 00 00 00       	jmp	0xffffff80002059fa <_ZN4core3fmt9Formatter12pad_integral17h43fecee5ed9182e1E+0x27a>
ffffff800020597e: 48 01 d0             	addq	%rdx, %rax
ffffff8000205981: 49 83 7d 10 00       	cmpq	$0, 16(%r13)
ffffff8000205986: 0f 85 da fe ff ff    	jne	0xffffff8000205866 <_ZN4core3fmt9Formatter12pad_integral17h43fecee5ed9182e1E+0xe6>
ffffff800020598c: e9 7e fe ff ff       	jmp	0xffffff800020580f <_ZN4core3fmt9Formatter12pad_integral17h43fecee5ed9182e1E+0x8f>
ffffff8000205991: 4c 89 74 24 10       	movq	%r14, 16(%rsp)
ffffff8000205996: 44 0f b6 f0          	movzbl	%al, %r14d
ffffff800020599a: eb 14                	jmp	0xffffff80002059b0 <_ZN4core3fmt9Formatter12pad_integral17h43fecee5ed9182e1E+0x230>
ffffff800020599c: 4c 89 f0             	movq	%r14, %rax
ffffff800020599f: 48 d1 e8             	shrq	%rax
ffffff80002059a2: 49 ff c6             	incq	%r14
ffffff80002059a5: 49 d1 ee             	shrq	%r14
ffffff80002059a8: 4c 89 74 24 10       	movq	%r14, 16(%rsp)
ffffff80002059ad: 49 89 c6             	movq	%rax, %r14
ffffff80002059b0: 4d 8b 7d 00          	movq	(%r13), %r15
ffffff80002059b4: 4d 8b 65 08          	movq	8(%r13), %r12
ffffff80002059b8: 41 8b 6d 34          	movl	52(%r13), %ebp
ffffff80002059bc: 49 ff c6             	incq	%r14
ffffff80002059bf: 90                   	nop
ffffff80002059c0: 49 ff ce             	decq	%r14
ffffff80002059c3: 74 10                	je	0xffffff80002059d5 <_ZN4core3fmt9Formatter12pad_integral17h43fecee5ed9182e1E+0x255>
ffffff80002059c5: 4c 89 ff             	movq	%r15, %rdi
ffffff80002059c8: 89 ee                	movl	%ebp, %esi
ffffff80002059ca: 41 ff 54 24 20       	callq	*32(%r12)
ffffff80002059cf: 84 c0                	testb	%al, %al
ffffff80002059d1: 74 ed                	je	0xffffff80002059c0 <_ZN4core3fmt9Formatter12pad_integral17h43fecee5ed9182e1E+0x240>
ffffff80002059d3: eb 23                	jmp	0xffffff80002059f8 <_ZN4core3fmt9Formatter12pad_integral17h43fecee5ed9182e1E+0x278>
ffffff80002059d5: 81 fd 00 00 11 00    	cmpl	$1114112, %ebp          # imm = 0x110000
ffffff80002059db: 74 1b                	je	0xffffff80002059f8 <_ZN4core3fmt9Formatter12pad_integral17h43fecee5ed9182e1E+0x278>
ffffff80002059dd: 4c 89 ff             	movq	%r15, %rdi
ffffff80002059e0: 4c 89 e6             	movq	%r12, %rsi
ffffff80002059e3: 8b 54 24 24          	movl	36(%rsp), %edx
ffffff80002059e7: 48 89 d9             	movq	%rbx, %rcx
ffffff80002059ea: 4c 8b 44 24 30       	movq	48(%rsp), %r8
ffffff80002059ef: e8 9c 00 00 00       	callq	0xffffff8000205a90 <_ZN4core3fmt9Formatter12pad_integral12write_prefix17h821c8b63fc9ae85bE>
ffffff80002059f4: 84 c0                	testb	%al, %al
ffffff80002059f6: 74 3b                	je	0xffffff8000205a33 <_ZN4core3fmt9Formatter12pad_integral17h43fecee5ed9182e1E+0x2b3>
ffffff80002059f8: b3 01                	movb	$1, %bl
ffffff80002059fa: 89 d8                	movl	%ebx, %eax
ffffff80002059fc: 48 83 c4 38          	addq	$56, %rsp
ffffff8000205a00: 5b                   	popq	%rbx
ffffff8000205a01: 41 5c                	popq	%r12
ffffff8000205a03: 41 5d                	popq	%r13
ffffff8000205a05: 41 5e                	popq	%r14
ffffff8000205a07: 41 5f                	popq	%r15
ffffff8000205a09: 5d                   	popq	%rbp
ffffff8000205a0a: c3                   	retq
ffffff8000205a0b: 48 89 ef             	movq	%rbp, %rdi
ffffff8000205a0e: 48 8b 74 24 18       	movq	24(%rsp), %rsi
ffffff8000205a13: 4c 89 e2             	movq	%r12, %rdx
ffffff8000205a16: 41 ff 57 18          	callq	*24(%r15)
ffffff8000205a1a: 84 c0                	testb	%al, %al
ffffff8000205a1c: 75 dc                	jne	0xffffff80002059fa <_ZN4core3fmt9Formatter12pad_integral17h43fecee5ed9182e1E+0x27a>
ffffff8000205a1e: 8b 44 24 10          	movl	16(%rsp), %eax
ffffff8000205a22: 41 89 45 34          	movl	%eax, 52(%r13)
ffffff8000205a26: 0f b6 44 24 0f       	movzbl	15(%rsp), %eax
ffffff8000205a2b: 41 88 45 38          	movb	%al, 56(%r13)
ffffff8000205a2f: 31 db                	xorl	%ebx, %ebx
ffffff8000205a31: eb c7                	jmp	0xffffff80002059fa <_ZN4core3fmt9Formatter12pad_integral17h43fecee5ed9182e1E+0x27a>
ffffff8000205a33: 4c 89 ff             	movq	%r15, %rdi
ffffff8000205a36: 48 8b 74 24 18       	movq	24(%rsp), %rsi
ffffff8000205a3b: 48 8b 54 24 28       	movq	40(%rsp), %rdx
ffffff8000205a40: 41 ff 54 24 18       	callq	*24(%r12)
ffffff8000205a45: 84 c0                	testb	%al, %al
ffffff8000205a47: b3 01                	movb	$1, %bl
ffffff8000205a49: 75 af                	jne	0xffffff80002059fa <_ZN4core3fmt9Formatter12pad_integral17h43fecee5ed9182e1E+0x27a>
ffffff8000205a4b: 4c 8b 74 24 10       	movq	16(%rsp), %r14
ffffff8000205a50: 49 f7 de             	negq	%r14
ffffff8000205a53: 48 c7 c3 ff ff ff ff 	movq	$-1, %rbx
ffffff8000205a5a: 49 8d 04 1e          	leaq	(%r14,%rbx), %rax
ffffff8000205a5e: 48 83 f8 ff          	cmpq	$-1, %rax
ffffff8000205a62: 74 13                	je	0xffffff8000205a77 <_ZN4core3fmt9Formatter12pad_integral17h43fecee5ed9182e1E+0x2f7>
ffffff8000205a64: 4c 89 ff             	movq	%r15, %rdi
ffffff8000205a67: 89 ee                	movl	%ebp, %esi
ffffff8000205a69: 41 ff 54 24 20       	callq	*32(%r12)
ffffff8000205a6e: 48 ff c3             	incq	%rbx
ffffff8000205a71: 84 c0                	testb	%al, %al
ffffff8000205a73: 74 e5                	je	0xffffff8000205a5a <_ZN4core3fmt9Formatter12pad_integral17h43fecee5ed9182e1E+0x2da>
ffffff8000205a75: eb 05                	jmp	0xffffff8000205a7c <_ZN4core3fmt9Formatter12pad_integral17h43fecee5ed9182e1E+0x2fc>
ffffff8000205a77: 48 8b 5c 24 10       	movq	16(%rsp), %rbx
ffffff8000205a7c: 48 3b 5c 24 10       	cmpq	16(%rsp), %rbx
ffffff8000205a81: 0f 92 c3             	setb	%bl
ffffff8000205a84: e9 71 ff ff ff       	jmp	0xffffff80002059fa <_ZN4core3fmt9Formatter12pad_integral17h43fecee5ed9182e1E+0x27a>
ffffff8000205a89: cc                   	int3
ffffff8000205a8a: cc                   	int3
ffffff8000205a8b: cc                   	int3
ffffff8000205a8c: cc                   	int3
ffffff8000205a8d: cc                   	int3
ffffff8000205a8e: cc                   	int3
ffffff8000205a8f: cc                   	int3

ffffff8000205a90 <_ZN4core3fmt9Formatter12pad_integral12write_prefix17h821c8b63fc9ae85bE>:
ffffff8000205a90: 41 57                	pushq	%r15
ffffff8000205a92: 41 56                	pushq	%r14
ffffff8000205a94: 41 54                	pushq	%r12
ffffff8000205a96: 53                   	pushq	%rbx
ffffff8000205a97: 50                   	pushq	%rax
ffffff8000205a98: 4d 89 c6             	movq	%r8, %r14
ffffff8000205a9b: 48 89 cb             	movq	%rcx, %rbx
ffffff8000205a9e: 49 89 f4             	movq	%rsi, %r12
ffffff8000205aa1: 49 89 ff             	movq	%rdi, %r15
ffffff8000205aa4: 81 fa 00 00 11 00    	cmpl	$1114112, %edx          # imm = 0x110000
ffffff8000205aaa: 74 12                	je	0xffffff8000205abe <_ZN4core3fmt9Formatter12pad_integral12write_prefix17h821c8b63fc9ae85bE+0x2e>
ffffff8000205aac: 4c 89 ff             	movq	%r15, %rdi
ffffff8000205aaf: 89 d6                	movl	%edx, %esi
ffffff8000205ab1: 41 ff 54 24 20       	callq	*32(%r12)
ffffff8000205ab6: 89 c1                	movl	%eax, %ecx
ffffff8000205ab8: b0 01                	movb	$1, %al
ffffff8000205aba: 84 c9                	testb	%cl, %cl
ffffff8000205abc: 75 22                	jne	0xffffff8000205ae0 <_ZN4core3fmt9Formatter12pad_integral12write_prefix17h821c8b63fc9ae85bE+0x50>
ffffff8000205abe: 48 85 db             	testq	%rbx, %rbx
ffffff8000205ac1: 74 1b                	je	0xffffff8000205ade <_ZN4core3fmt9Formatter12pad_integral12write_prefix17h821c8b63fc9ae85bE+0x4e>
ffffff8000205ac3: 49 8b 44 24 18       	movq	24(%r12), %rax
ffffff8000205ac8: 4c 89 ff             	movq	%r15, %rdi
ffffff8000205acb: 48 89 de             	movq	%rbx, %rsi
ffffff8000205ace: 4c 89 f2             	movq	%r14, %rdx
ffffff8000205ad1: 48 83 c4 08          	addq	$8, %rsp
ffffff8000205ad5: 5b                   	popq	%rbx
ffffff8000205ad6: 41 5c                	popq	%r12
ffffff8000205ad8: 41 5e                	popq	%r14
ffffff8000205ada: 41 5f                	popq	%r15
ffffff8000205adc: ff e0                	jmpq	*%rax
ffffff8000205ade: 31 c0                	xorl	%eax, %eax
ffffff8000205ae0: 48 83 c4 08          	addq	$8, %rsp
ffffff8000205ae4: 5b                   	popq	%rbx
ffffff8000205ae5: 41 5c                	popq	%r12
ffffff8000205ae7: 41 5e                	popq	%r14
ffffff8000205ae9: 41 5f                	popq	%r15
ffffff8000205aeb: c3                   	retq
ffffff8000205aec: cc                   	int3
ffffff8000205aed: cc                   	int3
ffffff8000205aee: cc                   	int3
ffffff8000205aef: cc                   	int3

ffffff8000205af0 <_ZN4core5slice5index26slice_start_index_len_fail17h2bd13147effaa2ceE>:
ffffff8000205af0: 50                   	pushq	%rax
ffffff8000205af1: e8 0a 00 00 00       	callq	0xffffff8000205b00 <_ZN4core5slice5index29slice_start_index_len_fail_rt17hd246f93295c8d784E>
ffffff8000205af6: 0f 0b                	ud2
ffffff8000205af8: cc                   	int3
ffffff8000205af9: cc                   	int3
ffffff8000205afa: cc                   	int3
ffffff8000205afb: cc                   	int3
ffffff8000205afc: cc                   	int3
ffffff8000205afd: cc                   	int3
ffffff8000205afe: cc                   	int3
ffffff8000205aff: cc                   	int3

ffffff8000205b00 <_ZN4core5slice5index29slice_start_index_len_fail_rt17hd246f93295c8d784E>:
ffffff8000205b00: 48 83 ec 68          	subq	$104, %rsp
ffffff8000205b04: 48 89 7c 24 08       	movq	%rdi, 8(%rsp)
ffffff8000205b09: 48 89 74 24 10       	movq	%rsi, 16(%rsp)
ffffff8000205b0e: 48 8d 44 24 08       	leaq	8(%rsp), %rax
ffffff8000205b13: 48 89 44 24 18       	movq	%rax, 24(%rsp)
ffffff8000205b18: 48 8d 05 31 fb ff ff 	leaq	-1231(%rip), %rax       # 0xffffff8000205650 <_ZN4core3fmt3num3imp52_$LT$impl$u20$core..fmt..Display$u20$for$u20$u64$GT$3fmt17h78dc0edf4b145690E>
ffffff8000205b1f: 48 89 44 24 20       	movq	%rax, 32(%rsp)
ffffff8000205b24: 48 8d 4c 24 10       	leaq	16(%rsp), %rcx
ffffff8000205b29: 48 89 4c 24 28       	movq	%rcx, 40(%rsp)
ffffff8000205b2e: 48 89 44 24 30       	movq	%rax, 48(%rsp)
ffffff8000205b33: 48 8d 05 16 ae 00 00 	leaq	44566(%rip), %rax       # 0xffffff8000210950 <_ZN5axhal8platform6pc_x864time12CPU_FREQ_MHZ17hcbee90971ca93e77E.0+0x7c8>
ffffff8000205b3a: 48 89 44 24 48       	movq	%rax, 72(%rsp)
ffffff8000205b3f: 48 c7 44 24 50 02 00 00 00   	movq	$2, 80(%rsp)
ffffff8000205b48: 48 c7 44 24 38 00 00 00 00   	movq	$0, 56(%rsp)
ffffff8000205b51: 48 8d 44 24 18       	leaq	24(%rsp), %rax
ffffff8000205b56: 48 89 44 24 58       	movq	%rax, 88(%rsp)
ffffff8000205b5b: 48 c7 44 24 60 02 00 00 00   	movq	$2, 96(%rsp)
ffffff8000205b64: 48 8d 7c 24 38       	leaq	56(%rsp), %rdi
ffffff8000205b69: 48 89 d6             	movq	%rdx, %rsi
ffffff8000205b6c: e8 ff f9 ff ff       	callq	0xffffff8000205570 <_ZN4core9panicking9panic_fmt17h95420505f5f4b6c1E>
ffffff8000205b71: 0f 0b                	ud2
ffffff8000205b73: cc                   	int3
ffffff8000205b74: cc                   	int3
ffffff8000205b75: cc                   	int3
ffffff8000205b76: cc                   	int3
ffffff8000205b77: cc                   	int3
ffffff8000205b78: cc                   	int3
ffffff8000205b79: cc                   	int3
ffffff8000205b7a: cc                   	int3
ffffff8000205b7b: cc                   	int3
ffffff8000205b7c: cc                   	int3
ffffff8000205b7d: cc                   	int3
ffffff8000205b7e: cc                   	int3
ffffff8000205b7f: cc                   	int3

ffffff8000205b80 <_ZN4core5slice5index24slice_end_index_len_fail17h7a4fc369ac38be6fE>:
ffffff8000205b80: 50                   	pushq	%rax
ffffff8000205b81: e8 0a 00 00 00       	callq	0xffffff8000205b90 <_ZN4core5slice5index27slice_end_index_len_fail_rt17h0438cf17c128eacfE>
ffffff8000205b86: 0f 0b                	ud2
ffffff8000205b88: cc                   	int3
ffffff8000205b89: cc                   	int3
ffffff8000205b8a: cc                   	int3
ffffff8000205b8b: cc                   	int3
ffffff8000205b8c: cc                   	int3
ffffff8000205b8d: cc                   	int3
ffffff8000205b8e: cc                   	int3
ffffff8000205b8f: cc                   	int3

ffffff8000205b90 <_ZN4core5slice5index27slice_end_index_len_fail_rt17h0438cf17c128eacfE>:
ffffff8000205b90: 48 83 ec 68          	subq	$104, %rsp
ffffff8000205b94: 48 89 7c 24 08       	movq	%rdi, 8(%rsp)
ffffff8000205b99: 48 89 74 24 10       	movq	%rsi, 16(%rsp)
ffffff8000205b9e: 48 8d 44 24 08       	leaq	8(%rsp), %rax
ffffff8000205ba3: 48 89 44 24 18       	movq	%rax, 24(%rsp)
ffffff8000205ba8: 48 8d 05 a1 fa ff ff 	leaq	-1375(%rip), %rax       # 0xffffff8000205650 <_ZN4core3fmt3num3imp52_$LT$impl$u20$core..fmt..Display$u20$for$u20$u64$GT$3fmt17h78dc0edf4b145690E>
ffffff8000205baf: 48 89 44 24 20       	movq	%rax, 32(%rsp)
ffffff8000205bb4: 48 8d 4c 24 10       	leaq	16(%rsp), %rcx
ffffff8000205bb9: 48 89 4c 24 28       	movq	%rcx, 40(%rsp)
ffffff8000205bbe: 48 89 44 24 30       	movq	%rax, 48(%rsp)
ffffff8000205bc3: 48 8d 05 a6 ad 00 00 	leaq	44454(%rip), %rax       # 0xffffff8000210970 <_ZN5axhal8platform6pc_x864time12CPU_FREQ_MHZ17hcbee90971ca93e77E.0+0x7e8>
ffffff8000205bca: 48 89 44 24 48       	movq	%rax, 72(%rsp)
ffffff8000205bcf: 48 c7 44 24 50 02 00 00 00   	movq	$2, 80(%rsp)
ffffff8000205bd8: 48 c7 44 24 38 00 00 00 00   	movq	$0, 56(%rsp)
ffffff8000205be1: 48 8d 44 24 18       	leaq	24(%rsp), %rax
ffffff8000205be6: 48 89 44 24 58       	movq	%rax, 88(%rsp)
ffffff8000205beb: 48 c7 44 24 60 02 00 00 00   	movq	$2, 96(%rsp)
ffffff8000205bf4: 48 8d 35 8d ae 00 00 	leaq	44685(%rip), %rsi       # 0xffffff8000210a88 <_ZN5axhal8platform6pc_x864time12CPU_FREQ_MHZ17hcbee90971ca93e77E.0+0x900>
ffffff8000205bfb: 48 8d 7c 24 38       	leaq	56(%rsp), %rdi
ffffff8000205c00: e8 6b f9 ff ff       	callq	0xffffff8000205570 <_ZN4core9panicking9panic_fmt17h95420505f5f4b6c1E>
ffffff8000205c05: 0f 0b                	ud2
ffffff8000205c07: cc                   	int3
ffffff8000205c08: cc                   	int3
ffffff8000205c09: cc                   	int3
ffffff8000205c0a: cc                   	int3
ffffff8000205c0b: cc                   	int3
ffffff8000205c0c: cc                   	int3
ffffff8000205c0d: cc                   	int3
ffffff8000205c0e: cc                   	int3
ffffff8000205c0f: cc                   	int3

ffffff8000205c10 <_ZN4core3fmt9Formatter3pad17hf52b0532a0c80643E>:
ffffff8000205c10: 55                   	pushq	%rbp
ffffff8000205c11: 41 57                	pushq	%r15
ffffff8000205c13: 41 56                	pushq	%r14
ffffff8000205c15: 41 55                	pushq	%r13
ffffff8000205c17: 41 54                	pushq	%r12
ffffff8000205c19: 53                   	pushq	%rbx
ffffff8000205c1a: 48 83 ec 18          	subq	$24, %rsp
ffffff8000205c1e: 49 89 d7             	movq	%rdx, %r15
ffffff8000205c21: 49 89 f5             	movq	%rsi, %r13
ffffff8000205c24: 4c 8b 47 10          	movq	16(%rdi), %r8
ffffff8000205c28: 48 8b 47 20          	movq	32(%rdi), %rax
ffffff8000205c2c: 49 83 f8 01          	cmpq	$1, %r8
ffffff8000205c30: 74 0a                	je	0xffffff8000205c3c <_ZN4core3fmt9Formatter3pad17hf52b0532a0c80643E+0x2c>
ffffff8000205c32: 48 83 f8 01          	cmpq	$1, %rax
ffffff8000205c36: 0f 85 d8 05 00 00    	jne	0xffffff8000206214 <_ZN4core3fmt9Formatter3pad17hf52b0532a0c80643E+0x604>
ffffff8000205c3c: 48 83 f8 01          	cmpq	$1, %rax
ffffff8000205c40: 0f 85 2d 01 00 00    	jne	0xffffff8000205d73 <_ZN4core3fmt9Formatter3pad17hf52b0532a0c80643E+0x163>
ffffff8000205c46: 48 8b 6f 28          	movq	40(%rdi), %rbp
ffffff8000205c4a: 4f 8d 0c 2f          	leaq	(%r15,%r13), %r9
ffffff8000205c4e: 48 ff c5             	incq	%rbp
ffffff8000205c51: 31 c9                	xorl	%ecx, %ecx
ffffff8000205c53: 4c 89 ea             	movq	%r13, %rdx
ffffff8000205c56: eb 21                	jmp	0xffffff8000205c79 <_ZN4core3fmt9Formatter3pad17hf52b0532a0c80643E+0x69>
ffffff8000205c58: 0f 1f 84 00 00 00 00 00      	nopl	(%rax,%rax)
ffffff8000205c60: 48 8d 72 01          	leaq	1(%rdx), %rsi
ffffff8000205c64: 48 29 d1             	subq	%rdx, %rcx
ffffff8000205c67: 48 01 f1             	addq	%rsi, %rcx
ffffff8000205c6a: 48 89 f2             	movq	%rsi, %rdx
ffffff8000205c6d: 81 fb 00 00 11 00    	cmpl	$1114112, %ebx          # imm = 0x110000
ffffff8000205c73: 0f 84 fa 00 00 00    	je	0xffffff8000205d73 <_ZN4core3fmt9Formatter3pad17hf52b0532a0c80643E+0x163>
ffffff8000205c79: 48 ff cd             	decq	%rbp
ffffff8000205c7c: 0f 84 88 00 00 00    	je	0xffffff8000205d0a <_ZN4core3fmt9Formatter3pad17hf52b0532a0c80643E+0xfa>
ffffff8000205c82: 4c 39 ca             	cmpq	%r9, %rdx
ffffff8000205c85: 0f 84 e8 00 00 00    	je	0xffffff8000205d73 <_ZN4core3fmt9Formatter3pad17hf52b0532a0c80643E+0x163>
ffffff8000205c8b: 0f b6 1a             	movzbl	(%rdx), %ebx
ffffff8000205c8e: 84 db                	testb	%bl, %bl
ffffff8000205c90: 79 ce                	jns	0xffffff8000205c60 <_ZN4core3fmt9Formatter3pad17hf52b0532a0c80643E+0x50>
ffffff8000205c92: 41 89 db             	movl	%ebx, %r11d
ffffff8000205c95: 41 83 e3 1f          	andl	$31, %r11d
ffffff8000205c99: 0f b6 42 01          	movzbl	1(%rdx), %eax
ffffff8000205c9d: 83 e0 3f             	andl	$63, %eax
ffffff8000205ca0: 80 fb df             	cmpb	$-33, %bl
ffffff8000205ca3: 76 3f                	jbe	0xffffff8000205ce4 <_ZN4core3fmt9Formatter3pad17hf52b0532a0c80643E+0xd4>
ffffff8000205ca5: 44 0f b6 52 02       	movzbl	2(%rdx), %r10d
ffffff8000205caa: c1 e0 06             	shll	$6, %eax
ffffff8000205cad: 41 83 e2 3f          	andl	$63, %r10d
ffffff8000205cb1: 41 09 c2             	orl	%eax, %r10d
ffffff8000205cb4: 80 fb f0             	cmpb	$-16, %bl
ffffff8000205cb7: 72 3e                	jb	0xffffff8000205cf7 <_ZN4core3fmt9Formatter3pad17hf52b0532a0c80643E+0xe7>
ffffff8000205cb9: 0f b6 5a 03          	movzbl	3(%rdx), %ebx
ffffff8000205cbd: 41 83 e3 07          	andl	$7, %r11d
ffffff8000205cc1: 41 c1 e3 12          	shll	$18, %r11d
ffffff8000205cc5: 41 c1 e2 06          	shll	$6, %r10d
ffffff8000205cc9: 83 e3 3f             	andl	$63, %ebx
ffffff8000205ccc: 44 09 d3             	orl	%r10d, %ebx
ffffff8000205ccf: 44 09 db             	orl	%r11d, %ebx
ffffff8000205cd2: 81 fb 00 00 11 00    	cmpl	$1114112, %ebx          # imm = 0x110000
ffffff8000205cd8: 0f 84 95 00 00 00    	je	0xffffff8000205d73 <_ZN4core3fmt9Formatter3pad17hf52b0532a0c80643E+0x163>
ffffff8000205cde: 48 8d 72 04          	leaq	4(%rdx), %rsi
ffffff8000205ce2: eb 80                	jmp	0xffffff8000205c64 <_ZN4core3fmt9Formatter3pad17hf52b0532a0c80643E+0x54>
ffffff8000205ce4: 48 8d 72 02          	leaq	2(%rdx), %rsi
ffffff8000205ce8: 41 c1 e3 06          	shll	$6, %r11d
ffffff8000205cec: 41 09 c3             	orl	%eax, %r11d
ffffff8000205cef: 44 89 db             	movl	%r11d, %ebx
ffffff8000205cf2: e9 6d ff ff ff       	jmp	0xffffff8000205c64 <_ZN4core3fmt9Formatter3pad17hf52b0532a0c80643E+0x54>
ffffff8000205cf7: 48 8d 72 03          	leaq	3(%rdx), %rsi
ffffff8000205cfb: 41 c1 e3 0c          	shll	$12, %r11d
ffffff8000205cff: 45 09 da             	orl	%r11d, %r10d
ffffff8000205d02: 44 89 d3             	movl	%r10d, %ebx
ffffff8000205d05: e9 5a ff ff ff       	jmp	0xffffff8000205c64 <_ZN4core3fmt9Formatter3pad17hf52b0532a0c80643E+0x54>
ffffff8000205d0a: 4c 39 ca             	cmpq	%r9, %rdx
ffffff8000205d0d: 74 64                	je	0xffffff8000205d73 <_ZN4core3fmt9Formatter3pad17hf52b0532a0c80643E+0x163>
ffffff8000205d0f: 0f b6 02             	movzbl	(%rdx), %eax
ffffff8000205d12: 84 c0                	testb	%al, %al
ffffff8000205d14: 79 37                	jns	0xffffff8000205d4d <_ZN4core3fmt9Formatter3pad17hf52b0532a0c80643E+0x13d>
ffffff8000205d16: 3c e0                	cmpb	$-32, %al
ffffff8000205d18: 72 33                	jb	0xffffff8000205d4d <_ZN4core3fmt9Formatter3pad17hf52b0532a0c80643E+0x13d>
ffffff8000205d1a: 3c f0                	cmpb	$-16, %al
ffffff8000205d1c: 72 2f                	jb	0xffffff8000205d4d <_ZN4core3fmt9Formatter3pad17hf52b0532a0c80643E+0x13d>
ffffff8000205d1e: 0f b6 72 01          	movzbl	1(%rdx), %esi
ffffff8000205d22: 83 e6 3f             	andl	$63, %esi
ffffff8000205d25: 0f b6 6a 02          	movzbl	2(%rdx), %ebp
ffffff8000205d29: 83 e5 3f             	andl	$63, %ebp
ffffff8000205d2c: 0f b6 52 03          	movzbl	3(%rdx), %edx
ffffff8000205d30: 83 e0 07             	andl	$7, %eax
ffffff8000205d33: c1 e0 12             	shll	$18, %eax
ffffff8000205d36: c1 e6 0c             	shll	$12, %esi
ffffff8000205d39: c1 e5 06             	shll	$6, %ebp
ffffff8000205d3c: 09 f5                	orl	%esi, %ebp
ffffff8000205d3e: 83 e2 3f             	andl	$63, %edx
ffffff8000205d41: 09 ea                	orl	%ebp, %edx
ffffff8000205d43: 09 c2                	orl	%eax, %edx
ffffff8000205d45: 81 fa 00 00 11 00    	cmpl	$1114112, %edx          # imm = 0x110000
ffffff8000205d4b: 74 26                	je	0xffffff8000205d73 <_ZN4core3fmt9Formatter3pad17hf52b0532a0c80643E+0x163>
ffffff8000205d4d: 48 85 c9             	testq	%rcx, %rcx
ffffff8000205d50: 74 13                	je	0xffffff8000205d65 <_ZN4core3fmt9Formatter3pad17hf52b0532a0c80643E+0x155>
ffffff8000205d52: 4c 39 f9             	cmpq	%r15, %rcx
ffffff8000205d55: 73 0c                	jae	0xffffff8000205d63 <_ZN4core3fmt9Formatter3pad17hf52b0532a0c80643E+0x153>
ffffff8000205d57: 41 80 7c 0d 00 c0    	cmpb	$-64, (%r13,%rcx)
ffffff8000205d5d: 7d 06                	jge	0xffffff8000205d65 <_ZN4core3fmt9Formatter3pad17hf52b0532a0c80643E+0x155>
ffffff8000205d5f: 31 c0                	xorl	%eax, %eax
ffffff8000205d61: eb 05                	jmp	0xffffff8000205d68 <_ZN4core3fmt9Formatter3pad17hf52b0532a0c80643E+0x158>
ffffff8000205d63: 75 fa                	jne	0xffffff8000205d5f <_ZN4core3fmt9Formatter3pad17hf52b0532a0c80643E+0x14f>
ffffff8000205d65: 4c 89 e8             	movq	%r13, %rax
ffffff8000205d68: 48 85 c0             	testq	%rax, %rax
ffffff8000205d6b: 4c 0f 45 f9          	cmovneq	%rcx, %r15
ffffff8000205d6f: 4c 0f 45 e8          	cmovneq	%rax, %r13
ffffff8000205d73: 4d 85 c0             	testq	%r8, %r8
ffffff8000205d76: 0f 84 98 04 00 00    	je	0xffffff8000206214 <_ZN4core3fmt9Formatter3pad17hf52b0532a0c80643E+0x604>
ffffff8000205d7c: 4c 8b 67 18          	movq	24(%rdi), %r12
ffffff8000205d80: 49 83 ff 20          	cmpq	$32, %r15
ffffff8000205d84: 73 27                	jae	0xffffff8000205dad <_ZN4core3fmt9Formatter3pad17hf52b0532a0c80643E+0x19d>
ffffff8000205d86: 4d 85 ff             	testq	%r15, %r15
ffffff8000205d89: 0f 84 dc 00 00 00    	je	0xffffff8000205e6b <_ZN4core3fmt9Formatter3pad17hf52b0532a0c80643E+0x25b>
ffffff8000205d8f: 49 8d 47 ff          	leaq	-1(%r15), %rax
ffffff8000205d93: 44 89 f9             	movl	%r15d, %ecx
ffffff8000205d96: 83 e1 03             	andl	$3, %ecx
ffffff8000205d99: 48 83 f8 03          	cmpq	$3, %rax
ffffff8000205d9d: 0f 83 cf 00 00 00    	jae	0xffffff8000205e72 <_ZN4core3fmt9Formatter3pad17hf52b0532a0c80643E+0x262>
ffffff8000205da3: 31 c0                	xorl	%eax, %eax
ffffff8000205da5: 4c 89 ea             	movq	%r13, %rdx
ffffff8000205da8: e9 0e 01 00 00       	jmp	0xffffff8000205ebb <_ZN4core3fmt9Formatter3pad17hf52b0532a0c80643E+0x2ab>
ffffff8000205dad: 49 8d 75 07          	leaq	7(%r13), %rsi
ffffff8000205db1: 48 83 e6 f8          	andq	$-8, %rsi
ffffff8000205db5: 49 89 f2             	movq	%rsi, %r10
ffffff8000205db8: 4d 29 ea             	subq	%r13, %r10
ffffff8000205dbb: 4c 89 fa             	movq	%r15, %rdx
ffffff8000205dbe: 4c 29 d2             	subq	%r10, %rdx
ffffff8000205dc1: 72 23                	jb	0xffffff8000205de6 <_ZN4core3fmt9Formatter3pad17hf52b0532a0c80643E+0x1d6>
ffffff8000205dc3: 49 83 fa 08          	cmpq	$8, %r10
ffffff8000205dc7: 77 1d                	ja	0xffffff8000205de6 <_ZN4core3fmt9Formatter3pad17hf52b0532a0c80643E+0x1d6>
ffffff8000205dc9: 48 83 fa 08          	cmpq	$8, %rdx
ffffff8000205dcd: 72 17                	jb	0xffffff8000205de6 <_ZN4core3fmt9Formatter3pad17hf52b0532a0c80643E+0x1d6>
ffffff8000205dcf: 41 89 d0             	movl	%edx, %r8d
ffffff8000205dd2: 41 83 e0 07          	andl	$7, %r8d
ffffff8000205dd6: 4c 39 ee             	cmpq	%r13, %rsi
ffffff8000205dd9: 0f 85 0b 01 00 00    	jne	0xffffff8000205eea <_ZN4core3fmt9Formatter3pad17hf52b0532a0c80643E+0x2da>
ffffff8000205ddf: 31 ed                	xorl	%ebp, %ebp
ffffff8000205de1: e9 9e 01 00 00       	jmp	0xffffff8000205f84 <_ZN4core3fmt9Formatter3pad17hf52b0532a0c80643E+0x374>
ffffff8000205de6: 4c 89 fa             	movq	%r15, %rdx
ffffff8000205de9: 48 83 e2 fc          	andq	$-4, %rdx
ffffff8000205ded: 31 c0                	xorl	%eax, %eax
ffffff8000205def: 4c 89 ee             	movq	%r13, %rsi
ffffff8000205df2: 66 66 66 66 66 2e 0f 1f 84 00 00 00 00 00    	nopw	%cs:(%rax,%rax)
ffffff8000205e00: 48 89 f1             	movq	%rsi, %rcx
ffffff8000205e03: 31 f6                	xorl	%esi, %esi
ffffff8000205e05: 80 39 c0             	cmpb	$-64, (%rcx)
ffffff8000205e08: 40 0f 9d c6          	setge	%sil
ffffff8000205e0c: 48 01 c6             	addq	%rax, %rsi
ffffff8000205e0f: 31 c0                	xorl	%eax, %eax
ffffff8000205e11: 80 79 01 c0          	cmpb	$-64, 1(%rcx)
ffffff8000205e15: 0f 9d c0             	setge	%al
ffffff8000205e18: 48 01 f0             	addq	%rsi, %rax
ffffff8000205e1b: 31 f6                	xorl	%esi, %esi
ffffff8000205e1d: 80 79 02 c0          	cmpb	$-64, 2(%rcx)
ffffff8000205e21: 40 0f 9d c6          	setge	%sil
ffffff8000205e25: 48 01 c6             	addq	%rax, %rsi
ffffff8000205e28: 31 c0                	xorl	%eax, %eax
ffffff8000205e2a: 80 79 03 c0          	cmpb	$-64, 3(%rcx)
ffffff8000205e2e: 0f 9d c0             	setge	%al
ffffff8000205e31: 48 01 f0             	addq	%rsi, %rax
ffffff8000205e34: 48 8d 71 04          	leaq	4(%rcx), %rsi
ffffff8000205e38: 48 83 c2 fc          	addq	$-4, %rdx
ffffff8000205e3c: 75 c2                	jne	0xffffff8000205e00 <_ZN4core3fmt9Formatter3pad17hf52b0532a0c80643E+0x1f0>
ffffff8000205e3e: 4c 89 fa             	movq	%r15, %rdx
ffffff8000205e41: 48 83 e2 03          	andq	$3, %rdx
ffffff8000205e45: 0f 84 a1 03 00 00    	je	0xffffff80002061ec <_ZN4core3fmt9Formatter3pad17hf52b0532a0c80643E+0x5dc>
ffffff8000205e4b: 31 f6                	xorl	%esi, %esi
ffffff8000205e4d: 0f 1f 00             	nopl	(%rax)
ffffff8000205e50: 31 ed                	xorl	%ebp, %ebp
ffffff8000205e52: 80 7c 31 04 c0       	cmpb	$-64, 4(%rcx,%rsi)
ffffff8000205e57: 40 0f 9d c5          	setge	%bpl
ffffff8000205e5b: 48 01 e8             	addq	%rbp, %rax
ffffff8000205e5e: 48 ff c6             	incq	%rsi
ffffff8000205e61: 48 39 f2             	cmpq	%rsi, %rdx
ffffff8000205e64: 75 ea                	jne	0xffffff8000205e50 <_ZN4core3fmt9Formatter3pad17hf52b0532a0c80643E+0x240>
ffffff8000205e66: e9 81 03 00 00       	jmp	0xffffff80002061ec <_ZN4core3fmt9Formatter3pad17hf52b0532a0c80643E+0x5dc>
ffffff8000205e6b: 31 c0                	xorl	%eax, %eax
ffffff8000205e6d: e9 7a 03 00 00       	jmp	0xffffff80002061ec <_ZN4core3fmt9Formatter3pad17hf52b0532a0c80643E+0x5dc>
ffffff8000205e72: 4c 89 fe             	movq	%r15, %rsi
ffffff8000205e75: 48 83 e6 fc          	andq	$-4, %rsi
ffffff8000205e79: 31 c0                	xorl	%eax, %eax
ffffff8000205e7b: 4c 89 ea             	movq	%r13, %rdx
ffffff8000205e7e: 66 90                	nop
ffffff8000205e80: 31 ed                	xorl	%ebp, %ebp
ffffff8000205e82: 80 3a c0             	cmpb	$-64, (%rdx)
ffffff8000205e85: 40 0f 9d c5          	setge	%bpl
ffffff8000205e89: 48 01 c5             	addq	%rax, %rbp
ffffff8000205e8c: 31 c0                	xorl	%eax, %eax
ffffff8000205e8e: 80 7a 01 c0          	cmpb	$-64, 1(%rdx)
ffffff8000205e92: 0f 9d c0             	setge	%al
ffffff8000205e95: 48 01 e8             	addq	%rbp, %rax
ffffff8000205e98: 31 ed                	xorl	%ebp, %ebp
ffffff8000205e9a: 80 7a 02 c0          	cmpb	$-64, 2(%rdx)
ffffff8000205e9e: 40 0f 9d c5          	setge	%bpl
ffffff8000205ea2: 48 01 c5             	addq	%rax, %rbp
ffffff8000205ea5: 31 c0                	xorl	%eax, %eax
ffffff8000205ea7: 80 7a 03 c0          	cmpb	$-64, 3(%rdx)
ffffff8000205eab: 48 8d 52 04          	leaq	4(%rdx), %rdx
ffffff8000205eaf: 0f 9d c0             	setge	%al
ffffff8000205eb2: 48 01 e8             	addq	%rbp, %rax
ffffff8000205eb5: 48 83 c6 fc          	addq	$-4, %rsi
ffffff8000205eb9: 75 c5                	jne	0xffffff8000205e80 <_ZN4core3fmt9Formatter3pad17hf52b0532a0c80643E+0x270>
ffffff8000205ebb: 48 85 c9             	testq	%rcx, %rcx
ffffff8000205ebe: 0f 84 28 03 00 00    	je	0xffffff80002061ec <_ZN4core3fmt9Formatter3pad17hf52b0532a0c80643E+0x5dc>
ffffff8000205ec4: 31 f6                	xorl	%esi, %esi
ffffff8000205ec6: 66 2e 0f 1f 84 00 00 00 00 00	nopw	%cs:(%rax,%rax)
ffffff8000205ed0: 31 ed                	xorl	%ebp, %ebp
ffffff8000205ed2: 80 3c 32 c0          	cmpb	$-64, (%rdx,%rsi)
ffffff8000205ed6: 40 0f 9d c5          	setge	%bpl
ffffff8000205eda: 48 01 e8             	addq	%rbp, %rax
ffffff8000205edd: 48 ff c6             	incq	%rsi
ffffff8000205ee0: 48 39 f1             	cmpq	%rsi, %rcx
ffffff8000205ee3: 75 eb                	jne	0xffffff8000205ed0 <_ZN4core3fmt9Formatter3pad17hf52b0532a0c80643E+0x2c0>
ffffff8000205ee5: e9 02 03 00 00       	jmp	0xffffff80002061ec <_ZN4core3fmt9Formatter3pad17hf52b0532a0c80643E+0x5dc>
ffffff8000205eea: 4c 89 e9             	movq	%r13, %rcx
ffffff8000205eed: 48 f7 d1             	notq	%rcx
ffffff8000205ef0: 48 01 ce             	addq	%rcx, %rsi
ffffff8000205ef3: 44 89 d1             	movl	%r10d, %ecx
ffffff8000205ef6: 83 e1 03             	andl	$3, %ecx
ffffff8000205ef9: 48 83 fe 03          	cmpq	$3, %rsi
ffffff8000205efd: 73 07                	jae	0xffffff8000205f06 <_ZN4core3fmt9Formatter3pad17hf52b0532a0c80643E+0x2f6>
ffffff8000205eff: 31 ed                	xorl	%ebp, %ebp
ffffff8000205f01: 4c 89 ee             	movq	%r13, %rsi
ffffff8000205f04: eb 55                	jmp	0xffffff8000205f5b <_ZN4core3fmt9Formatter3pad17hf52b0532a0c80643E+0x34b>
ffffff8000205f06: 4c 89 d3             	movq	%r10, %rbx
ffffff8000205f09: 48 83 e3 fc          	andq	$-4, %rbx
ffffff8000205f0d: 31 ed                	xorl	%ebp, %ebp
ffffff8000205f0f: 4c 89 ee             	movq	%r13, %rsi
ffffff8000205f12: 66 66 66 66 66 2e 0f 1f 84 00 00 00 00 00    	nopw	%cs:(%rax,%rax)
ffffff8000205f20: 31 c0                	xorl	%eax, %eax
ffffff8000205f22: 80 3e c0             	cmpb	$-64, (%rsi)
ffffff8000205f25: 0f 9d c0             	setge	%al
ffffff8000205f28: 48 01 e8             	addq	%rbp, %rax
ffffff8000205f2b: 31 ed                	xorl	%ebp, %ebp
ffffff8000205f2d: 80 7e 01 c0          	cmpb	$-64, 1(%rsi)
ffffff8000205f31: 40 0f 9d c5          	setge	%bpl
ffffff8000205f35: 48 01 c5             	addq	%rax, %rbp
ffffff8000205f38: 31 c0                	xorl	%eax, %eax
ffffff8000205f3a: 80 7e 02 c0          	cmpb	$-64, 2(%rsi)
ffffff8000205f3e: 0f 9d c0             	setge	%al
ffffff8000205f41: 48 01 e8             	addq	%rbp, %rax
ffffff8000205f44: 31 ed                	xorl	%ebp, %ebp
ffffff8000205f46: 80 7e 03 c0          	cmpb	$-64, 3(%rsi)
ffffff8000205f4a: 48 8d 76 04          	leaq	4(%rsi), %rsi
ffffff8000205f4e: 40 0f 9d c5          	setge	%bpl
ffffff8000205f52: 48 01 c5             	addq	%rax, %rbp
ffffff8000205f55: 48 83 c3 fc          	addq	$-4, %rbx
ffffff8000205f59: 75 c5                	jne	0xffffff8000205f20 <_ZN4core3fmt9Formatter3pad17hf52b0532a0c80643E+0x310>
ffffff8000205f5b: 48 85 c9             	testq	%rcx, %rcx
ffffff8000205f5e: 74 24                	je	0xffffff8000205f84 <_ZN4core3fmt9Formatter3pad17hf52b0532a0c80643E+0x374>
ffffff8000205f60: 31 db                	xorl	%ebx, %ebx
ffffff8000205f62: 66 66 66 66 66 2e 0f 1f 84 00 00 00 00 00    	nopw	%cs:(%rax,%rax)
ffffff8000205f70: 31 c0                	xorl	%eax, %eax
ffffff8000205f72: 80 3c 1e c0          	cmpb	$-64, (%rsi,%rbx)
ffffff8000205f76: 0f 9d c0             	setge	%al
ffffff8000205f79: 48 01 c5             	addq	%rax, %rbp
ffffff8000205f7c: 48 ff c3             	incq	%rbx
ffffff8000205f7f: 48 39 d9             	cmpq	%rbx, %rcx
ffffff8000205f82: 75 ec                	jne	0xffffff8000205f70 <_ZN4core3fmt9Formatter3pad17hf52b0532a0c80643E+0x360>
ffffff8000205f84: 4d 01 ea             	addq	%r13, %r10
ffffff8000205f87: 4d 85 c0             	testq	%r8, %r8
ffffff8000205f8a: 4c 89 6c 24 08       	movq	%r13, 8(%rsp)
ffffff8000205f8f: 0f 84 8c 00 00 00    	je	0xffffff8000206021 <_ZN4core3fmt9Formatter3pad17hf52b0532a0c80643E+0x411>
ffffff8000205f95: 48 89 d1             	movq	%rdx, %rcx
ffffff8000205f98: 48 83 e1 f8          	andq	$-8, %rcx
ffffff8000205f9c: 31 f6                	xorl	%esi, %esi
ffffff8000205f9e: 41 80 3c 0a c0       	cmpb	$-64, (%r10,%rcx)
ffffff8000205fa3: 40 0f 9d c6          	setge	%sil
ffffff8000205fa7: 41 83 f8 01          	cmpl	$1, %r8d
ffffff8000205fab: 74 76                	je	0xffffff8000206023 <_ZN4core3fmt9Formatter3pad17hf52b0532a0c80643E+0x413>
ffffff8000205fad: 31 c0                	xorl	%eax, %eax
ffffff8000205faf: 41 80 7c 0a 01 c0    	cmpb	$-64, 1(%r10,%rcx)
ffffff8000205fb5: 0f 9d c0             	setge	%al
ffffff8000205fb8: 48 01 c6             	addq	%rax, %rsi
ffffff8000205fbb: 41 83 f8 02          	cmpl	$2, %r8d
ffffff8000205fbf: 74 62                	je	0xffffff8000206023 <_ZN4core3fmt9Formatter3pad17hf52b0532a0c80643E+0x413>
ffffff8000205fc1: 31 c0                	xorl	%eax, %eax
ffffff8000205fc3: 41 80 7c 0a 02 c0    	cmpb	$-64, 2(%r10,%rcx)
ffffff8000205fc9: 0f 9d c0             	setge	%al
ffffff8000205fcc: 48 01 c6             	addq	%rax, %rsi
ffffff8000205fcf: 41 83 f8 03          	cmpl	$3, %r8d
ffffff8000205fd3: 74 4e                	je	0xffffff8000206023 <_ZN4core3fmt9Formatter3pad17hf52b0532a0c80643E+0x413>
ffffff8000205fd5: 31 c0                	xorl	%eax, %eax
ffffff8000205fd7: 41 80 7c 0a 03 c0    	cmpb	$-64, 3(%r10,%rcx)
ffffff8000205fdd: 0f 9d c0             	setge	%al
ffffff8000205fe0: 48 01 c6             	addq	%rax, %rsi
ffffff8000205fe3: 41 83 f8 04          	cmpl	$4, %r8d
ffffff8000205fe7: 74 3a                	je	0xffffff8000206023 <_ZN4core3fmt9Formatter3pad17hf52b0532a0c80643E+0x413>
ffffff8000205fe9: 31 c0                	xorl	%eax, %eax
ffffff8000205feb: 41 80 7c 0a 04 c0    	cmpb	$-64, 4(%r10,%rcx)
ffffff8000205ff1: 0f 9d c0             	setge	%al
ffffff8000205ff4: 48 01 c6             	addq	%rax, %rsi
ffffff8000205ff7: 41 83 f8 05          	cmpl	$5, %r8d
ffffff8000205ffb: 74 26                	je	0xffffff8000206023 <_ZN4core3fmt9Formatter3pad17hf52b0532a0c80643E+0x413>
ffffff8000205ffd: 31 c0                	xorl	%eax, %eax
ffffff8000205fff: 41 80 7c 0a 05 c0    	cmpb	$-64, 5(%r10,%rcx)
ffffff8000206005: 0f 9d c0             	setge	%al
ffffff8000206008: 48 01 c6             	addq	%rax, %rsi
ffffff800020600b: 41 83 f8 06          	cmpl	$6, %r8d
ffffff800020600f: 74 12                	je	0xffffff8000206023 <_ZN4core3fmt9Formatter3pad17hf52b0532a0c80643E+0x413>
ffffff8000206011: 31 c0                	xorl	%eax, %eax
ffffff8000206013: 41 80 7c 0a 06 c0    	cmpb	$-64, 6(%r10,%rcx)
ffffff8000206019: 0f 9d c0             	setge	%al
ffffff800020601c: 48 01 c6             	addq	%rax, %rsi
ffffff800020601f: eb 02                	jmp	0xffffff8000206023 <_ZN4core3fmt9Formatter3pad17hf52b0532a0c80643E+0x413>
ffffff8000206021: 31 f6                	xorl	%esi, %esi
ffffff8000206023: 48 01 ee             	addq	%rbp, %rsi
ffffff8000206026: 48 c1 ea 03          	shrq	$3, %rdx
ffffff800020602a: 49 b9 01 01 01 01 01 01 01 01	movabsq	$72340172838076673, %r9 # imm = 0x101010101010101
ffffff8000206034: eb 56                	jmp	0xffffff800020608c <_ZN4core3fmt9Formatter3pad17hf52b0532a0c80643E+0x47c>
ffffff8000206036: 66 2e 0f 1f 84 00 00 00 00 00	nopw	%cs:(%rax,%rax)
ffffff8000206040: 31 f6                	xorl	%esi, %esi
ffffff8000206042: 4e 8d 14 c5 00 00 00 00      	leaq	(,%r8,8), %r10
ffffff800020604a: 4d 01 ea             	addq	%r13, %r10
ffffff800020604d: 4c 89 da             	movq	%r11, %rdx
ffffff8000206050: 4c 29 c2             	subq	%r8, %rdx
ffffff8000206053: 48 89 f1             	movq	%rsi, %rcx
ffffff8000206056: 48 bb ff 00 ff 00 ff 00 ff 00	movabsq	$71777214294589695, %rbx # imm = 0xFF00FF00FF00FF
ffffff8000206060: 48 21 d9             	andq	%rbx, %rcx
ffffff8000206063: 48 c1 ee 08          	shrq	$8, %rsi
ffffff8000206067: 48 21 de             	andq	%rbx, %rsi
ffffff800020606a: 48 01 ce             	addq	%rcx, %rsi
ffffff800020606d: 48 b9 01 00 01 00 01 00 01 00	movabsq	$281479271743489, %rcx # imm = 0x1000100010001
ffffff8000206077: 48 0f af f1          	imulq	%rcx, %rsi
ffffff800020607b: 48 c1 ee 30          	shrq	$48, %rsi
ffffff800020607f: 48 01 c6             	addq	%rax, %rsi
ffffff8000206082: 41 f6 c0 03          	testb	$3, %r8b
ffffff8000206086: 0f 85 d0 00 00 00    	jne	0xffffff800020615c <_ZN4core3fmt9Formatter3pad17hf52b0532a0c80643E+0x54c>
ffffff800020608c: 48 89 f0             	movq	%rsi, %rax
ffffff800020608f: 48 85 d2             	testq	%rdx, %rdx
ffffff8000206092: 0f 84 ba 00 00 00    	je	0xffffff8000206152 <_ZN4core3fmt9Formatter3pad17hf52b0532a0c80643E+0x542>
ffffff8000206098: 49 89 d3             	movq	%rdx, %r11
ffffff800020609b: 4d 89 d5             	movq	%r10, %r13
ffffff800020609e: 48 81 fa c0 00 00 00 	cmpq	$192, %rdx
ffffff80002060a5: 41 b8 c0 00 00 00    	movl	$192, %r8d
ffffff80002060ab: 4c 0f 42 c2          	cmovbq	%rdx, %r8
ffffff80002060af: 44 89 c1             	movl	%r8d, %ecx
ffffff80002060b2: 81 e1 fc 00 00 00    	andl	$252, %ecx
ffffff80002060b8: 4d 8d 34 ca          	leaq	(%r10,%rcx,8), %r14
ffffff80002060bc: 74 82                	je	0xffffff8000206040 <_ZN4core3fmt9Formatter3pad17hf52b0532a0c80643E+0x430>
ffffff80002060be: 31 f6                	xorl	%esi, %esi
ffffff80002060c0: 4c 89 ea             	movq	%r13, %rdx
ffffff80002060c3: 66 66 66 66 2e 0f 1f 84 00 00 00 00 00       	nopw	%cs:(%rax,%rax)
ffffff80002060d0: 48 85 d2             	testq	%rdx, %rdx
ffffff80002060d3: 0f 84 69 ff ff ff    	je	0xffffff8000206042 <_ZN4core3fmt9Formatter3pad17hf52b0532a0c80643E+0x432>
ffffff80002060d9: 48 8b 1a             	movq	(%rdx), %rbx
ffffff80002060dc: 48 8b 4a 08          	movq	8(%rdx), %rcx
ffffff80002060e0: 48 89 dd             	movq	%rbx, %rbp
ffffff80002060e3: 48 f7 d5             	notq	%rbp
ffffff80002060e6: 48 c1 ed 07          	shrq	$7, %rbp
ffffff80002060ea: 48 c1 eb 06          	shrq	$6, %rbx
ffffff80002060ee: 48 09 eb             	orq	%rbp, %rbx
ffffff80002060f1: 4c 21 cb             	andq	%r9, %rbx
ffffff80002060f4: 48 01 f3             	addq	%rsi, %rbx
ffffff80002060f7: 48 89 ce             	movq	%rcx, %rsi
ffffff80002060fa: 48 f7 d6             	notq	%rsi
ffffff80002060fd: 48 c1 ee 07          	shrq	$7, %rsi
ffffff8000206101: 48 c1 e9 06          	shrq	$6, %rcx
ffffff8000206105: 48 09 f1             	orq	%rsi, %rcx
ffffff8000206108: 4c 21 c9             	andq	%r9, %rcx
ffffff800020610b: 48 01 d9             	addq	%rbx, %rcx
ffffff800020610e: 48 8b 6a 10          	movq	16(%rdx), %rbp
ffffff8000206112: 48 89 ee             	movq	%rbp, %rsi
ffffff8000206115: 48 f7 d6             	notq	%rsi
ffffff8000206118: 48 c1 ee 07          	shrq	$7, %rsi
ffffff800020611c: 48 c1 ed 06          	shrq	$6, %rbp
ffffff8000206120: 48 09 f5             	orq	%rsi, %rbp
ffffff8000206123: 4c 21 cd             	andq	%r9, %rbp
ffffff8000206126: 48 01 cd             	addq	%rcx, %rbp
ffffff8000206129: 48 8b 72 18          	movq	24(%rdx), %rsi
ffffff800020612d: 48 89 f1             	movq	%rsi, %rcx
ffffff8000206130: 48 f7 d1             	notq	%rcx
ffffff8000206133: 48 c1 e9 07          	shrq	$7, %rcx
ffffff8000206137: 48 c1 ee 06          	shrq	$6, %rsi
ffffff800020613b: 48 09 ce             	orq	%rcx, %rsi
ffffff800020613e: 4c 21 ce             	andq	%r9, %rsi
ffffff8000206141: 48 01 ee             	addq	%rbp, %rsi
ffffff8000206144: 48 83 c2 20          	addq	$32, %rdx
ffffff8000206148: 4c 39 f2             	cmpq	%r14, %rdx
ffffff800020614b: 75 83                	jne	0xffffff80002060d0 <_ZN4core3fmt9Formatter3pad17hf52b0532a0c80643E+0x4c0>
ffffff800020614d: e9 f0 fe ff ff       	jmp	0xffffff8000206042 <_ZN4core3fmt9Formatter3pad17hf52b0532a0c80643E+0x432>
ffffff8000206152: 4c 8b 6c 24 08       	movq	8(%rsp), %r13
ffffff8000206157: e9 90 00 00 00       	jmp	0xffffff80002061ec <_ZN4core3fmt9Formatter3pad17hf52b0532a0c80643E+0x5dc>
ffffff800020615c: 4d 85 ed             	testq	%r13, %r13
ffffff800020615f: 74 55                	je	0xffffff80002061b6 <_ZN4core3fmt9Formatter3pad17hf52b0532a0c80643E+0x5a6>
ffffff8000206161: 49 81 fb c0 00 00 00 	cmpq	$192, %r11
ffffff8000206168: b9 c0 00 00 00       	movl	$192, %ecx
ffffff800020616d: 49 0f 42 cb          	cmovbq	%r11, %rcx
ffffff8000206171: 83 e1 03             	andl	$3, %ecx
ffffff8000206174: 48 c1 e1 03          	shlq	$3, %rcx
ffffff8000206178: 31 d2                	xorl	%edx, %edx
ffffff800020617a: 31 c0                	xorl	%eax, %eax
ffffff800020617c: 4c 8b 6c 24 08       	movq	8(%rsp), %r13
ffffff8000206181: 66 66 66 66 66 66 2e 0f 1f 84 00 00 00 00 00 	nopw	%cs:(%rax,%rax)
ffffff8000206190: 49 8b 2c 16          	movq	(%r14,%rdx), %rbp
ffffff8000206194: 48 89 eb             	movq	%rbp, %rbx
ffffff8000206197: 48 f7 d3             	notq	%rbx
ffffff800020619a: 48 c1 eb 07          	shrq	$7, %rbx
ffffff800020619e: 48 c1 ed 06          	shrq	$6, %rbp
ffffff80002061a2: 48 09 dd             	orq	%rbx, %rbp
ffffff80002061a5: 4c 21 cd             	andq	%r9, %rbp
ffffff80002061a8: 48 01 e8             	addq	%rbp, %rax
ffffff80002061ab: 48 83 c2 08          	addq	$8, %rdx
ffffff80002061af: 48 39 d1             	cmpq	%rdx, %rcx
ffffff80002061b2: 75 dc                	jne	0xffffff8000206190 <_ZN4core3fmt9Formatter3pad17hf52b0532a0c80643E+0x580>
ffffff80002061b4: eb 07                	jmp	0xffffff80002061bd <_ZN4core3fmt9Formatter3pad17hf52b0532a0c80643E+0x5ad>
ffffff80002061b6: 31 c0                	xorl	%eax, %eax
ffffff80002061b8: 4c 8b 6c 24 08       	movq	8(%rsp), %r13
ffffff80002061bd: 48 89 c1             	movq	%rax, %rcx
ffffff80002061c0: 48 ba ff 00 ff 00 ff 00 ff 00	movabsq	$71777214294589695, %rdx # imm = 0xFF00FF00FF00FF
ffffff80002061ca: 48 21 d1             	andq	%rdx, %rcx
ffffff80002061cd: 48 c1 e8 08          	shrq	$8, %rax
ffffff80002061d1: 48 21 d0             	andq	%rdx, %rax
ffffff80002061d4: 48 01 c8             	addq	%rcx, %rax
ffffff80002061d7: 48 b9 01 00 01 00 01 00 01 00	movabsq	$281479271743489, %rcx # imm = 0x1000100010001
ffffff80002061e1: 48 0f af c1          	imulq	%rcx, %rax
ffffff80002061e5: 48 c1 e8 30          	shrq	$48, %rax
ffffff80002061e9: 48 01 f0             	addq	%rsi, %rax
ffffff80002061ec: 49 29 c4             	subq	%rax, %r12
ffffff80002061ef: 76 23                	jbe	0xffffff8000206214 <_ZN4core3fmt9Formatter3pad17hf52b0532a0c80643E+0x604>
ffffff80002061f1: 8b 4f 38             	movl	56(%rdi), %ecx
ffffff80002061f4: 31 c0                	xorl	%eax, %eax
ffffff80002061f6: 80 f9 03             	cmpb	$3, %cl
ffffff80002061f9: 0f 45 c1             	cmovnel	%ecx, %eax
ffffff80002061fc: 84 c0                	testb	%al, %al
ffffff80002061fe: 74 38                	je	0xffffff8000206238 <_ZN4core3fmt9Formatter3pad17hf52b0532a0c80643E+0x628>
ffffff8000206200: 0f b6 c0             	movzbl	%al, %eax
ffffff8000206203: 4c 89 eb             	movq	%r13, %rbx
ffffff8000206206: 83 f8 01             	cmpl	$1, %eax
ffffff8000206209: 75 3b                	jne	0xffffff8000206246 <_ZN4core3fmt9Formatter3pad17hf52b0532a0c80643E+0x636>
ffffff800020620b: 31 c0                	xorl	%eax, %eax
ffffff800020620d: 48 89 44 24 10       	movq	%rax, 16(%rsp)
ffffff8000206212: eb 46                	jmp	0xffffff800020625a <_ZN4core3fmt9Formatter3pad17hf52b0532a0c80643E+0x64a>
ffffff8000206214: 48 8b 07             	movq	(%rdi), %rax
ffffff8000206217: 48 8b 4f 08          	movq	8(%rdi), %rcx
ffffff800020621b: 48 8b 49 18          	movq	24(%rcx), %rcx
ffffff800020621f: 48 89 c7             	movq	%rax, %rdi
ffffff8000206222: 4c 89 ee             	movq	%r13, %rsi
ffffff8000206225: 4c 89 fa             	movq	%r15, %rdx
ffffff8000206228: 48 83 c4 18          	addq	$24, %rsp
ffffff800020622c: 5b                   	popq	%rbx
ffffff800020622d: 41 5c                	popq	%r12
ffffff800020622f: 41 5d                	popq	%r13
ffffff8000206231: 41 5e                	popq	%r14
ffffff8000206233: 41 5f                	popq	%r15
ffffff8000206235: 5d                   	popq	%rbp
ffffff8000206236: ff e1                	jmpq	*%rcx
ffffff8000206238: 4c 89 eb             	movq	%r13, %rbx
ffffff800020623b: 4c 89 64 24 10       	movq	%r12, 16(%rsp)
ffffff8000206240: 44 0f b6 e0          	movzbl	%al, %r12d
ffffff8000206244: eb 14                	jmp	0xffffff800020625a <_ZN4core3fmt9Formatter3pad17hf52b0532a0c80643E+0x64a>
ffffff8000206246: 4c 89 e0             	movq	%r12, %rax
ffffff8000206249: 48 d1 e8             	shrq	%rax
ffffff800020624c: 49 ff c4             	incq	%r12
ffffff800020624f: 49 d1 ec             	shrq	%r12
ffffff8000206252: 4c 89 64 24 10       	movq	%r12, 16(%rsp)
ffffff8000206257: 49 89 c4             	movq	%rax, %r12
ffffff800020625a: 4c 8b 37             	movq	(%rdi), %r14
ffffff800020625d: 4c 8b 6f 08          	movq	8(%rdi), %r13
ffffff8000206261: 8b 6f 34             	movl	52(%rdi), %ebp
ffffff8000206264: 49 ff c4             	incq	%r12
ffffff8000206267: 66 0f 1f 84 00 00 00 00 00   	nopw	(%rax,%rax)
ffffff8000206270: 49 ff cc             	decq	%r12
ffffff8000206273: 74 12                	je	0xffffff8000206287 <_ZN4core3fmt9Formatter3pad17hf52b0532a0c80643E+0x677>
ffffff8000206275: 4c 89 f7             	movq	%r14, %rdi
ffffff8000206278: 89 ee                	movl	%ebp, %esi
ffffff800020627a: 41 ff 55 20          	callq	*32(%r13)
ffffff800020627e: 84 c0                	testb	%al, %al
ffffff8000206280: 74 ee                	je	0xffffff8000206270 <_ZN4core3fmt9Formatter3pad17hf52b0532a0c80643E+0x660>
ffffff8000206282: 41 b4 01             	movb	$1, %r12b
ffffff8000206285: eb 5f                	jmp	0xffffff80002062e6 <_ZN4core3fmt9Formatter3pad17hf52b0532a0c80643E+0x6d6>
ffffff8000206287: 41 b4 01             	movb	$1, %r12b
ffffff800020628a: 81 fd 00 00 11 00    	cmpl	$1114112, %ebp          # imm = 0x110000
ffffff8000206290: 74 54                	je	0xffffff80002062e6 <_ZN4core3fmt9Formatter3pad17hf52b0532a0c80643E+0x6d6>
ffffff8000206292: 4c 89 f7             	movq	%r14, %rdi
ffffff8000206295: 48 89 de             	movq	%rbx, %rsi
ffffff8000206298: 4c 89 fa             	movq	%r15, %rdx
ffffff800020629b: 41 ff 55 18          	callq	*24(%r13)
ffffff800020629f: 84 c0                	testb	%al, %al
ffffff80002062a1: 75 43                	jne	0xffffff80002062e6 <_ZN4core3fmt9Formatter3pad17hf52b0532a0c80643E+0x6d6>
ffffff80002062a3: 4c 8b 64 24 10       	movq	16(%rsp), %r12
ffffff80002062a8: 4d 89 e7             	movq	%r12, %r15
ffffff80002062ab: 49 f7 df             	negq	%r15
ffffff80002062ae: 48 c7 c3 ff ff ff ff 	movq	$-1, %rbx
ffffff80002062b5: 66 66 2e 0f 1f 84 00 00 00 00 00     	nopw	%cs:(%rax,%rax)
ffffff80002062c0: 49 8d 04 1f          	leaq	(%r15,%rbx), %rax
ffffff80002062c4: 48 83 f8 ff          	cmpq	$-1, %rax
ffffff80002062c8: 74 12                	je	0xffffff80002062dc <_ZN4core3fmt9Formatter3pad17hf52b0532a0c80643E+0x6cc>
ffffff80002062ca: 4c 89 f7             	movq	%r14, %rdi
ffffff80002062cd: 89 ee                	movl	%ebp, %esi
ffffff80002062cf: 41 ff 55 20          	callq	*32(%r13)
ffffff80002062d3: 48 ff c3             	incq	%rbx
ffffff80002062d6: 84 c0                	testb	%al, %al
ffffff80002062d8: 74 e6                	je	0xffffff80002062c0 <_ZN4core3fmt9Formatter3pad17hf52b0532a0c80643E+0x6b0>
ffffff80002062da: eb 03                	jmp	0xffffff80002062df <_ZN4core3fmt9Formatter3pad17hf52b0532a0c80643E+0x6cf>
ffffff80002062dc: 4c 89 e3             	movq	%r12, %rbx
ffffff80002062df: 4c 39 e3             	cmpq	%r12, %rbx
ffffff80002062e2: 41 0f 92 c4          	setb	%r12b
ffffff80002062e6: 44 89 e0             	movl	%r12d, %eax
ffffff80002062e9: 48 83 c4 18          	addq	$24, %rsp
ffffff80002062ed: 5b                   	popq	%rbx
ffffff80002062ee: 41 5c                	popq	%r12
ffffff80002062f0: 41 5d                	popq	%r13
ffffff80002062f2: 41 5e                	popq	%r14
ffffff80002062f4: 41 5f                	popq	%r15
ffffff80002062f6: 5d                   	popq	%rbp
ffffff80002062f7: c3                   	retq
ffffff80002062f8: cc                   	int3
ffffff80002062f9: cc                   	int3
ffffff80002062fa: cc                   	int3
ffffff80002062fb: cc                   	int3
ffffff80002062fc: cc                   	int3
ffffff80002062fd: cc                   	int3
ffffff80002062fe: cc                   	int3
ffffff80002062ff: cc                   	int3

ffffff8000206300 <_ZN4core9panicking5panic17ha75736b023e20f84E>:
ffffff8000206300: 48 83 ec 48          	subq	$72, %rsp
ffffff8000206304: 48 89 7c 24 08       	movq	%rdi, 8(%rsp)
ffffff8000206309: 48 89 74 24 10       	movq	%rsi, 16(%rsp)
ffffff800020630e: 48 8d 44 24 08       	leaq	8(%rsp), %rax
ffffff8000206313: 48 89 44 24 28       	movq	%rax, 40(%rsp)
ffffff8000206318: 48 c7 44 24 30 01 00 00 00   	movq	$1, 48(%rsp)
ffffff8000206321: 48 c7 44 24 18 00 00 00 00   	movq	$0, 24(%rsp)
ffffff800020632a: 48 8b 05 df a9 00 00 	movq	43487(%rip), %rax       # 0xffffff8000210d10 <_ZN3log6LOGGER17h48756037b7073395E.1+0x110>
ffffff8000206331: 48 89 44 24 38       	movq	%rax, 56(%rsp)
ffffff8000206336: 48 c7 44 24 40 00 00 00 00   	movq	$0, 64(%rsp)
ffffff800020633f: 48 8d 7c 24 18       	leaq	24(%rsp), %rdi
ffffff8000206344: 48 89 d6             	movq	%rdx, %rsi
ffffff8000206347: e8 24 f2 ff ff       	callq	0xffffff8000205570 <_ZN4core9panicking9panic_fmt17h95420505f5f4b6c1E>
ffffff800020634c: 0f 0b                	ud2
ffffff800020634e: cc                   	int3
ffffff800020634f: cc                   	int3

ffffff8000206350 <_ZN42_$LT$$RF$T$u20$as$u20$core..fmt..Debug$GT$3fmt17he51834bb4b443be6E>:
ffffff8000206350: 48 8b 07             	movq	(%rdi), %rax
ffffff8000206353: 48 8b 4f 08          	movq	8(%rdi), %rcx
ffffff8000206357: 48 8b 49 18          	movq	24(%rcx), %rcx
ffffff800020635b: 48 89 c7             	movq	%rax, %rdi
ffffff800020635e: ff e1                	jmpq	*%rcx

ffffff8000206360 <_ZN59_$LT$core..fmt..Arguments$u20$as$u20$core..fmt..Display$GT$3fmt17h00bea6249e048063E>:
ffffff8000206360: 48 83 ec 38          	subq	$56, %rsp
ffffff8000206364: 48 8b 06             	movq	(%rsi), %rax
ffffff8000206367: 48 8b 76 08          	movq	8(%rsi), %rsi
ffffff800020636b: 48 8b 4f 28          	movq	40(%rdi), %rcx
ffffff800020636f: 48 89 4c 24 30       	movq	%rcx, 48(%rsp)
ffffff8000206374: 48 8b 4f 20          	movq	32(%rdi), %rcx
ffffff8000206378: 48 89 4c 24 28       	movq	%rcx, 40(%rsp)
ffffff800020637d: 48 8b 4f 18          	movq	24(%rdi), %rcx
ffffff8000206381: 48 89 4c 24 20       	movq	%rcx, 32(%rsp)
ffffff8000206386: 48 8b 4f 10          	movq	16(%rdi), %rcx
ffffff800020638a: 48 89 4c 24 18       	movq	%rcx, 24(%rsp)
ffffff800020638f: 48 8b 0f             	movq	(%rdi), %rcx
ffffff8000206392: 48 8b 57 08          	movq	8(%rdi), %rdx
ffffff8000206396: 48 89 54 24 10       	movq	%rdx, 16(%rsp)
ffffff800020639b: 48 89 4c 24 08       	movq	%rcx, 8(%rsp)
ffffff80002063a0: 48 8d 54 24 08       	leaq	8(%rsp), %rdx
ffffff80002063a5: 48 89 c7             	movq	%rax, %rdi
ffffff80002063a8: e8 13 00 00 00       	callq	0xffffff80002063c0 <_ZN4core3fmt5write17h3e64ac24810c32e1E>
ffffff80002063ad: 48 83 c4 38          	addq	$56, %rsp
ffffff80002063b1: c3                   	retq
ffffff80002063b2: cc                   	int3
ffffff80002063b3: cc                   	int3
ffffff80002063b4: cc                   	int3
ffffff80002063b5: cc                   	int3
ffffff80002063b6: cc                   	int3
ffffff80002063b7: cc                   	int3
ffffff80002063b8: cc                   	int3
ffffff80002063b9: cc                   	int3
ffffff80002063ba: cc                   	int3
ffffff80002063bb: cc                   	int3
ffffff80002063bc: cc                   	int3
ffffff80002063bd: cc                   	int3
ffffff80002063be: cc                   	int3
ffffff80002063bf: cc                   	int3

ffffff80002063c0 <_ZN4core3fmt5write17h3e64ac24810c32e1E>:
ffffff80002063c0: 55                   	pushq	%rbp
ffffff80002063c1: 41 57                	pushq	%r15
ffffff80002063c3: 41 56                	pushq	%r14
ffffff80002063c5: 41 55                	pushq	%r13
ffffff80002063c7: 41 54                	pushq	%r12
ffffff80002063c9: 53                   	pushq	%rbx
ffffff80002063ca: 48 83 ec 48          	subq	$72, %rsp
ffffff80002063ce: 49 89 d7             	movq	%rdx, %r15
ffffff80002063d1: 48 b8 00 00 00 00 20 00 00 00	movabsq	$137438953472, %rax # imm = 0x2000000000
ffffff80002063db: 48 89 44 24 38       	movq	%rax, 56(%rsp)
ffffff80002063e0: c6 44 24 40 03       	movb	$3, 64(%rsp)
ffffff80002063e5: 48 c7 44 24 18 00 00 00 00   	movq	$0, 24(%rsp)
ffffff80002063ee: 48 c7 44 24 28 00 00 00 00   	movq	$0, 40(%rsp)
ffffff80002063f7: 48 89 7c 24 08       	movq	%rdi, 8(%rsp)
ffffff80002063fc: 48 89 74 24 10       	movq	%rsi, 16(%rsp)
ffffff8000206401: 48 8b 1a             	movq	(%rdx), %rbx
ffffff8000206404: 48 85 db             	testq	%rbx, %rbx
ffffff8000206407: 0f 84 1c 01 00 00    	je	0xffffff8000206529 <_ZN4core3fmt5write17h3e64ac24810c32e1E+0x169>
ffffff800020640d: 49 8b 47 08          	movq	8(%r15), %rax
ffffff8000206411: 48 85 c0             	testq	%rax, %rax
ffffff8000206414: 0f 84 76 01 00 00    	je	0xffffff8000206590 <_ZN4core3fmt5write17h3e64ac24810c32e1E+0x1d0>
ffffff800020641a: 4d 8b 6f 10          	movq	16(%r15), %r13
ffffff800020641e: 49 83 c5 08          	addq	$8, %r13
ffffff8000206422: 48 6b e8 38          	imulq	$56, %rax, %rbp
ffffff8000206426: 45 31 f6             	xorl	%r14d, %r14d
ffffff8000206429: 45 31 e4             	xorl	%r12d, %r12d
ffffff800020642c: 0f 1f 40 00          	nopl	(%rax)
ffffff8000206430: 49 8b 55 00          	movq	(%r13), %rdx
ffffff8000206434: 48 85 d2             	testq	%rdx, %rdx
ffffff8000206437: 74 19                	je	0xffffff8000206452 <_ZN4core3fmt5write17h3e64ac24810c32e1E+0x92>
ffffff8000206439: 48 8b 7c 24 08       	movq	8(%rsp), %rdi
ffffff800020643e: 48 8b 44 24 10       	movq	16(%rsp), %rax
ffffff8000206443: 49 8b 75 f8          	movq	-8(%r13), %rsi
ffffff8000206447: ff 50 18             	callq	*24(%rax)
ffffff800020644a: 84 c0                	testb	%al, %al
ffffff800020644c: 0f 85 74 01 00 00    	jne	0xffffff80002065c6 <_ZN4core3fmt5write17h3e64ac24810c32e1E+0x206>
ffffff8000206452: 49 8b 47 20          	movq	32(%r15), %rax
ffffff8000206456: 42 8b 4c 33 24       	movl	36(%rbx,%r14), %ecx
ffffff800020645b: 89 4c 24 3c          	movl	%ecx, 60(%rsp)
ffffff800020645f: 42 0f b6 4c 33 28    	movzbl	40(%rbx,%r14), %ecx
ffffff8000206465: 88 4c 24 40          	movb	%cl, 64(%rsp)
ffffff8000206469: 42 8b 4c 33 20       	movl	32(%rbx,%r14), %ecx
ffffff800020646e: 89 4c 24 38          	movl	%ecx, 56(%rsp)
ffffff8000206472: 4a 8b 54 33 10       	movq	16(%rbx,%r14), %rdx
ffffff8000206477: 4a 8b 4c 33 18       	movq	24(%rbx,%r14), %rcx
ffffff800020647c: 48 85 d2             	testq	%rdx, %rdx
ffffff800020647f: 74 24                	je	0xffffff80002064a5 <_ZN4core3fmt5write17h3e64ac24810c32e1E+0xe5>
ffffff8000206481: 83 fa 01             	cmpl	$1, %edx
ffffff8000206484: 75 12                	jne	0xffffff8000206498 <_ZN4core3fmt5write17h3e64ac24810c32e1E+0xd8>
ffffff8000206486: 48 c1 e1 04          	shlq	$4, %rcx
ffffff800020648a: 48 8d 15 bf f0 ff ff 	leaq	-3905(%rip), %rdx       # 0xffffff8000205550 <_ZN4core3ops8function6FnOnce9call_once17h4868cb90b62989d3E>
ffffff8000206491: 48 39 54 08 08       	cmpq	%rdx, 8(%rax,%rcx)
ffffff8000206496: 74 04                	je	0xffffff800020649c <_ZN4core3fmt5write17h3e64ac24810c32e1E+0xdc>
ffffff8000206498: 31 d2                	xorl	%edx, %edx
ffffff800020649a: eb 0e                	jmp	0xffffff80002064aa <_ZN4core3fmt5write17h3e64ac24810c32e1E+0xea>
ffffff800020649c: 48 01 c1             	addq	%rax, %rcx
ffffff800020649f: 48 8b 09             	movq	(%rcx), %rcx
ffffff80002064a2: 48 8b 09             	movq	(%rcx), %rcx
ffffff80002064a5: ba 01 00 00 00       	movl	$1, %edx
ffffff80002064aa: 48 89 54 24 18       	movq	%rdx, 24(%rsp)
ffffff80002064af: 48 89 4c 24 20       	movq	%rcx, 32(%rsp)
ffffff80002064b4: 4a 8b 14 33          	movq	(%rbx,%r14), %rdx
ffffff80002064b8: 4a 8b 4c 33 08       	movq	8(%rbx,%r14), %rcx
ffffff80002064bd: 48 85 d2             	testq	%rdx, %rdx
ffffff80002064c0: 74 24                	je	0xffffff80002064e6 <_ZN4core3fmt5write17h3e64ac24810c32e1E+0x126>
ffffff80002064c2: 83 fa 01             	cmpl	$1, %edx
ffffff80002064c5: 75 12                	jne	0xffffff80002064d9 <_ZN4core3fmt5write17h3e64ac24810c32e1E+0x119>
ffffff80002064c7: 48 c1 e1 04          	shlq	$4, %rcx
ffffff80002064cb: 48 8d 15 7e f0 ff ff 	leaq	-3970(%rip), %rdx       # 0xffffff8000205550 <_ZN4core3ops8function6FnOnce9call_once17h4868cb90b62989d3E>
ffffff80002064d2: 48 39 54 08 08       	cmpq	%rdx, 8(%rax,%rcx)
ffffff80002064d7: 74 04                	je	0xffffff80002064dd <_ZN4core3fmt5write17h3e64ac24810c32e1E+0x11d>
ffffff80002064d9: 31 d2                	xorl	%edx, %edx
ffffff80002064db: eb 0e                	jmp	0xffffff80002064eb <_ZN4core3fmt5write17h3e64ac24810c32e1E+0x12b>
ffffff80002064dd: 48 01 c1             	addq	%rax, %rcx
ffffff80002064e0: 48 8b 09             	movq	(%rcx), %rcx
ffffff80002064e3: 48 8b 09             	movq	(%rcx), %rcx
ffffff80002064e6: ba 01 00 00 00       	movl	$1, %edx
ffffff80002064eb: 48 89 54 24 28       	movq	%rdx, 40(%rsp)
ffffff80002064f0: 48 89 4c 24 30       	movq	%rcx, 48(%rsp)
ffffff80002064f5: 4a 8b 4c 33 30       	movq	48(%rbx,%r14), %rcx
ffffff80002064fa: 48 c1 e1 04          	shlq	$4, %rcx
ffffff80002064fe: 48 8b 3c 08          	movq	(%rax,%rcx), %rdi
ffffff8000206502: 48 8d 74 24 08       	leaq	8(%rsp), %rsi
ffffff8000206507: ff 54 08 08          	callq	*8(%rax,%rcx)
ffffff800020650b: 84 c0                	testb	%al, %al
ffffff800020650d: 0f 85 b3 00 00 00    	jne	0xffffff80002065c6 <_ZN4core3fmt5write17h3e64ac24810c32e1E+0x206>
ffffff8000206513: 49 83 c5 10          	addq	$16, %r13
ffffff8000206517: 49 83 c6 38          	addq	$56, %r14
ffffff800020651b: 49 ff c4             	incq	%r12
ffffff800020651e: 4c 39 f5             	cmpq	%r14, %rbp
ffffff8000206521: 0f 85 09 ff ff ff    	jne	0xffffff8000206430 <_ZN4core3fmt5write17h3e64ac24810c32e1E+0x70>
ffffff8000206527: eb 6a                	jmp	0xffffff8000206593 <_ZN4core3fmt5write17h3e64ac24810c32e1E+0x1d3>
ffffff8000206529: 4d 8b 6f 28          	movq	40(%r15), %r13
ffffff800020652d: 4d 85 ed             	testq	%r13, %r13
ffffff8000206530: 74 69                	je	0xffffff800020659b <_ZN4core3fmt5write17h3e64ac24810c32e1E+0x1db>
ffffff8000206532: 49 8b 6f 20          	movq	32(%r15), %rbp
ffffff8000206536: 49 8b 5f 10          	movq	16(%r15), %rbx
ffffff800020653a: 49 c1 e5 04          	shlq	$4, %r13
ffffff800020653e: 45 31 f6             	xorl	%r14d, %r14d
ffffff8000206541: 45 31 e4             	xorl	%r12d, %r12d
ffffff8000206544: 66 66 66 2e 0f 1f 84 00 00 00 00 00  	nopw	%cs:(%rax,%rax)
ffffff8000206550: 4a 8b 54 33 08       	movq	8(%rbx,%r14), %rdx
ffffff8000206555: 48 85 d2             	testq	%rdx, %rdx
ffffff8000206558: 74 15                	je	0xffffff800020656f <_ZN4core3fmt5write17h3e64ac24810c32e1E+0x1af>
ffffff800020655a: 48 8b 7c 24 08       	movq	8(%rsp), %rdi
ffffff800020655f: 48 8b 44 24 10       	movq	16(%rsp), %rax
ffffff8000206564: 4a 8b 34 33          	movq	(%rbx,%r14), %rsi
ffffff8000206568: ff 50 18             	callq	*24(%rax)
ffffff800020656b: 84 c0                	testb	%al, %al
ffffff800020656d: 75 57                	jne	0xffffff80002065c6 <_ZN4core3fmt5write17h3e64ac24810c32e1E+0x206>
ffffff800020656f: 4a 8b 7c 35 00       	movq	(%rbp,%r14), %rdi
ffffff8000206574: 48 8d 74 24 08       	leaq	8(%rsp), %rsi
ffffff8000206579: 42 ff 54 35 08       	callq	*8(%rbp,%r14)
ffffff800020657e: 84 c0                	testb	%al, %al
ffffff8000206580: 75 44                	jne	0xffffff80002065c6 <_ZN4core3fmt5write17h3e64ac24810c32e1E+0x206>
ffffff8000206582: 49 83 c6 10          	addq	$16, %r14
ffffff8000206586: 49 ff c4             	incq	%r12
ffffff8000206589: 4d 39 f5             	cmpq	%r14, %r13
ffffff800020658c: 75 c2                	jne	0xffffff8000206550 <_ZN4core3fmt5write17h3e64ac24810c32e1E+0x190>
ffffff800020658e: eb 03                	jmp	0xffffff8000206593 <_ZN4core3fmt5write17h3e64ac24810c32e1E+0x1d3>
ffffff8000206590: 45 31 e4             	xorl	%r12d, %r12d
ffffff8000206593: 4d 3b 67 18          	cmpq	24(%r15), %r12
ffffff8000206597: 72 0b                	jb	0xffffff80002065a4 <_ZN4core3fmt5write17h3e64ac24810c32e1E+0x1e4>
ffffff8000206599: eb 2f                	jmp	0xffffff80002065ca <_ZN4core3fmt5write17h3e64ac24810c32e1E+0x20a>
ffffff800020659b: 45 31 e4             	xorl	%r12d, %r12d
ffffff800020659e: 4d 3b 67 18          	cmpq	24(%r15), %r12
ffffff80002065a2: 73 26                	jae	0xffffff80002065ca <_ZN4core3fmt5write17h3e64ac24810c32e1E+0x20a>
ffffff80002065a4: 49 8b 47 10          	movq	16(%r15), %rax
ffffff80002065a8: 49 c1 e4 04          	shlq	$4, %r12
ffffff80002065ac: 48 8b 7c 24 08       	movq	8(%rsp), %rdi
ffffff80002065b1: 48 8b 4c 24 10       	movq	16(%rsp), %rcx
ffffff80002065b6: 4a 8b 34 20          	movq	(%rax,%r12), %rsi
ffffff80002065ba: 4a 8b 54 20 08       	movq	8(%rax,%r12), %rdx
ffffff80002065bf: ff 51 18             	callq	*24(%rcx)
ffffff80002065c2: 84 c0                	testb	%al, %al
ffffff80002065c4: 74 04                	je	0xffffff80002065ca <_ZN4core3fmt5write17h3e64ac24810c32e1E+0x20a>
ffffff80002065c6: b0 01                	movb	$1, %al
ffffff80002065c8: eb 02                	jmp	0xffffff80002065cc <_ZN4core3fmt5write17h3e64ac24810c32e1E+0x20c>
ffffff80002065ca: 31 c0                	xorl	%eax, %eax
ffffff80002065cc: 48 83 c4 48          	addq	$72, %rsp
ffffff80002065d0: 5b                   	popq	%rbx
ffffff80002065d1: 41 5c                	popq	%r12
ffffff80002065d3: 41 5d                	popq	%r13
ffffff80002065d5: 41 5e                	popq	%r14
ffffff80002065d7: 41 5f                	popq	%r15
ffffff80002065d9: 5d                   	popq	%rbp
ffffff80002065da: c3                   	retq
ffffff80002065db: cc                   	int3
ffffff80002065dc: cc                   	int3
ffffff80002065dd: cc                   	int3
ffffff80002065de: cc                   	int3
ffffff80002065df: cc                   	int3

ffffff80002065e0 <_ZN4core3fmt3num50_$LT$impl$u20$core..fmt..Debug$u20$for$u20$u64$GT$3fmt17h7dd8586018e85dc2E.179>:
ffffff80002065e0: 53                   	pushq	%rbx
ffffff80002065e1: 48 81 ec 80 00 00 00 	subq	$128, %rsp
ffffff80002065e8: 8b 46 30             	movl	48(%rsi), %eax
ffffff80002065eb: a8 10                	testb	$16, %al
ffffff80002065ed: 0f 85 e3 00 00 00    	jne	0xffffff80002066d6 <_ZN4core3fmt3num50_$LT$impl$u20$core..fmt..Debug$u20$for$u20$u64$GT$3fmt17h7dd8586018e85dc2E.179+0xf6>
ffffff80002065f3: a8 20                	testb	$32, %al
ffffff80002065f5: 0f 85 21 01 00 00    	jne	0xffffff800020671c <_ZN4core3fmt3num50_$LT$impl$u20$core..fmt..Debug$u20$for$u20$u64$GT$3fmt17h7dd8586018e85dc2E.179+0x13c>
ffffff80002065fb: bb 27 00 00 00       	movl	$39, %ebx
ffffff8000206600: 48 81 ff 10 27 00 00 	cmpq	$10000, %rdi            # imm = 0x2710
ffffff8000206607: 0f 82 7f 01 00 00    	jb	0xffffff800020678c <_ZN4core3fmt3num50_$LT$impl$u20$core..fmt..Debug$u20$for$u20$u64$GT$3fmt17h7dd8586018e85dc2E.179+0x1ac>
ffffff800020660d: 41 bb 27 00 00 00    	movl	$39, %r11d
ffffff8000206613: 49 b8 4b 59 86 38 d6 c5 6d 34	movabsq	$3777893186295716171, %r8 # imm = 0x346DC5D63886594B
ffffff800020661d: 4c 8d 0d 2c 3d 00 00 	leaq	15660(%rip), %r9        # 0xffffff800020a350 <str.0+0x630>
ffffff8000206624: 66 66 66 2e 0f 1f 84 00 00 00 00 00  	nopw	%cs:(%rax,%rax)
ffffff8000206630: 48 89 f8             	movq	%rdi, %rax
ffffff8000206633: 49 f7 e0             	mulq	%r8
ffffff8000206636: 48 c1 ea 0b          	shrq	$11, %rdx
ffffff800020663a: 44 69 d2 10 27 00 00 	imull	$10000, %edx, %r10d     # imm = 0x2710
ffffff8000206641: 89 f8                	movl	%edi, %eax
ffffff8000206643: 44 29 d0             	subl	%r10d, %eax
ffffff8000206646: 0f b7 c8             	movzwl	%ax, %ecx
ffffff8000206649: c1 e9 02             	shrl	$2, %ecx
ffffff800020664c: 44 69 d1 7b 14 00 00 	imull	$5243, %ecx, %r10d      # imm = 0x147B
ffffff8000206653: 41 c1 ea 11          	shrl	$17, %r10d
ffffff8000206657: 41 6b ca 64          	imull	$100, %r10d, %ecx
ffffff800020665b: 29 c8                	subl	%ecx, %eax
ffffff800020665d: 0f b7 c8             	movzwl	%ax, %ecx
ffffff8000206660: 49 8d 5b fc          	leaq	-4(%r11), %rbx
ffffff8000206664: 43 0f b7 04 51       	movzwl	(%r9,%r10,2), %eax
ffffff8000206669: 66 42 89 44 1c fc    	movw	%ax, -4(%rsp,%r11)
ffffff800020666f: 41 0f b7 04 49       	movzwl	(%r9,%rcx,2), %eax
ffffff8000206674: 66 42 89 44 1c fe    	movw	%ax, -2(%rsp,%r11)
ffffff800020667a: 49 89 db             	movq	%rbx, %r11
ffffff800020667d: 48 81 ff ff e0 f5 05 	cmpq	$99999999, %rdi         # imm = 0x5F5E0FF
ffffff8000206684: 48 89 d7             	movq	%rdx, %rdi
ffffff8000206687: 77 a7                	ja	0xffffff8000206630 <_ZN4core3fmt3num50_$LT$impl$u20$core..fmt..Debug$u20$for$u20$u64$GT$3fmt17h7dd8586018e85dc2E.179+0x50>
ffffff8000206689: 48 83 fa 63          	cmpq	$99, %rdx
ffffff800020668d: 76 2e                	jbe	0xffffff80002066bd <_ZN4core3fmt3num50_$LT$impl$u20$core..fmt..Debug$u20$for$u20$u64$GT$3fmt17h7dd8586018e85dc2E.179+0xdd>
ffffff800020668f: 0f b7 c2             	movzwl	%dx, %eax
ffffff8000206692: c1 e8 02             	shrl	$2, %eax
ffffff8000206695: 69 c0 7b 14 00 00    	imull	$5243, %eax, %eax       # imm = 0x147B
ffffff800020669b: c1 e8 11             	shrl	$17, %eax
ffffff800020669e: 6b c8 64             	imull	$100, %eax, %ecx
ffffff80002066a1: 29 ca                	subl	%ecx, %edx
ffffff80002066a3: 0f b7 ca             	movzwl	%dx, %ecx
ffffff80002066a6: 48 8d 15 a3 3c 00 00 	leaq	15523(%rip), %rdx       # 0xffffff800020a350 <str.0+0x630>
ffffff80002066ad: 0f b7 0c 4a          	movzwl	(%rdx,%rcx,2), %ecx
ffffff80002066b1: 66 89 4c 1c fe       	movw	%cx, -2(%rsp,%rbx)
ffffff80002066b6: 48 83 c3 fe          	addq	$-2, %rbx
ffffff80002066ba: 48 89 c2             	movq	%rax, %rdx
ffffff80002066bd: 48 83 fa 0a          	cmpq	$10, %rdx
ffffff80002066c1: 0f 83 d7 00 00 00    	jae	0xffffff800020679e <_ZN4core3fmt3num50_$LT$impl$u20$core..fmt..Debug$u20$for$u20$u64$GT$3fmt17h7dd8586018e85dc2E.179+0x1be>
ffffff80002066c7: 80 c2 30             	addb	$48, %dl
ffffff80002066ca: 88 54 1c ff          	movb	%dl, -1(%rsp,%rbx)
ffffff80002066ce: 48 ff cb             	decq	%rbx
ffffff80002066d1: e9 dc 00 00 00       	jmp	0xffffff80002067b2 <_ZN4core3fmt3num50_$LT$impl$u20$core..fmt..Debug$u20$for$u20$u64$GT$3fmt17h7dd8586018e85dc2E.179+0x1d2>
ffffff80002066d6: 4c 8d 84 24 80 00 00 00      	leaq	128(%rsp), %r8
ffffff80002066de: 45 31 c9             	xorl	%r9d, %r9d
ffffff80002066e1: 41 ba 30 00 00 00    	movl	$48, %r10d
ffffff80002066e7: 48 89 f9             	movq	%rdi, %rcx
ffffff80002066ea: 66 0f 1f 44 00 00    	nopw	(%rax,%rax)
ffffff80002066f0: 48 c1 e9 04          	shrq	$4, %rcx
ffffff80002066f4: 89 fa                	movl	%edi, %edx
ffffff80002066f6: 80 e2 0f             	andb	$15, %dl
ffffff80002066f9: 80 fa 0a             	cmpb	$10, %dl
ffffff80002066fc: b8 57 00 00 00       	movl	$87, %eax
ffffff8000206701: 41 0f 42 c2          	cmovbl	%r10d, %eax
ffffff8000206705: 00 d0                	addb	%dl, %al
ffffff8000206707: 41 88 40 ff          	movb	%al, -1(%r8)
ffffff800020670b: 49 ff c8             	decq	%r8
ffffff800020670e: 49 ff c1             	incq	%r9
ffffff8000206711: 48 83 ff 0f          	cmpq	$15, %rdi
ffffff8000206715: 48 89 cf             	movq	%rcx, %rdi
ffffff8000206718: 77 d6                	ja	0xffffff80002066f0 <_ZN4core3fmt3num50_$LT$impl$u20$core..fmt..Debug$u20$for$u20$u64$GT$3fmt17h7dd8586018e85dc2E.179+0x110>
ffffff800020671a: eb 3d                	jmp	0xffffff8000206759 <_ZN4core3fmt3num50_$LT$impl$u20$core..fmt..Debug$u20$for$u20$u64$GT$3fmt17h7dd8586018e85dc2E.179+0x179>
ffffff800020671c: 4c 8d 84 24 80 00 00 00      	leaq	128(%rsp), %r8
ffffff8000206724: 45 31 c9             	xorl	%r9d, %r9d
ffffff8000206727: b8 30 00 00 00       	movl	$48, %eax
ffffff800020672c: 48 89 f9             	movq	%rdi, %rcx
ffffff800020672f: 90                   	nop
ffffff8000206730: 48 c1 e9 04          	shrq	$4, %rcx
ffffff8000206734: 89 fa                	movl	%edi, %edx
ffffff8000206736: 80 e2 0f             	andb	$15, %dl
ffffff8000206739: 80 fa 0a             	cmpb	$10, %dl
ffffff800020673c: bb 37 00 00 00       	movl	$55, %ebx
ffffff8000206741: 0f 42 d8             	cmovbl	%eax, %ebx
ffffff8000206744: 00 d3                	addb	%dl, %bl
ffffff8000206746: 41 88 58 ff          	movb	%bl, -1(%r8)
ffffff800020674a: 49 ff c8             	decq	%r8
ffffff800020674d: 49 ff c1             	incq	%r9
ffffff8000206750: 48 83 ff 0f          	cmpq	$15, %rdi
ffffff8000206754: 48 89 cf             	movq	%rcx, %rdi
ffffff8000206757: 77 d7                	ja	0xffffff8000206730 <_ZN4core3fmt3num50_$LT$impl$u20$core..fmt..Debug$u20$for$u20$u64$GT$3fmt17h7dd8586018e85dc2E.179+0x150>
ffffff8000206759: bf 80 00 00 00       	movl	$128, %edi
ffffff800020675e: 4c 29 cf             	subq	%r9, %rdi
ffffff8000206761: 48 81 ff 81 00 00 00 	cmpq	$129, %rdi
ffffff8000206768: 73 74                	jae	0xffffff80002067de <_ZN4core3fmt3num50_$LT$impl$u20$core..fmt..Debug$u20$for$u20$u64$GT$3fmt17h7dd8586018e85dc2E.179+0x1fe>
ffffff800020676a: 48 8d 15 dd 3b 00 00 	leaq	15325(%rip), %rdx       # 0xffffff800020a34e <str.0+0x62e>
ffffff8000206771: b9 02 00 00 00       	movl	$2, %ecx
ffffff8000206776: 48 89 f7             	movq	%rsi, %rdi
ffffff8000206779: be 01 00 00 00       	movl	$1, %esi
ffffff800020677e: e8 fd ef ff ff       	callq	0xffffff8000205780 <_ZN4core3fmt9Formatter12pad_integral17h43fecee5ed9182e1E>
ffffff8000206783: 48 81 c4 80 00 00 00 	addq	$128, %rsp
ffffff800020678a: 5b                   	popq	%rbx
ffffff800020678b: c3                   	retq
ffffff800020678c: 48 89 fa             	movq	%rdi, %rdx
ffffff800020678f: 48 83 fa 63          	cmpq	$99, %rdx
ffffff8000206793: 0f 87 f6 fe ff ff    	ja	0xffffff800020668f <_ZN4core3fmt3num50_$LT$impl$u20$core..fmt..Debug$u20$for$u20$u64$GT$3fmt17h7dd8586018e85dc2E.179+0xaf>
ffffff8000206799: e9 1f ff ff ff       	jmp	0xffffff80002066bd <_ZN4core3fmt3num50_$LT$impl$u20$core..fmt..Debug$u20$for$u20$u64$GT$3fmt17h7dd8586018e85dc2E.179+0xdd>
ffffff800020679e: 48 8d 05 ab 3b 00 00 	leaq	15275(%rip), %rax       # 0xffffff800020a350 <str.0+0x630>
ffffff80002067a5: 0f b7 04 50          	movzwl	(%rax,%rdx,2), %eax
ffffff80002067a9: 66 89 44 1c fe       	movw	%ax, -2(%rsp,%rbx)
ffffff80002067ae: 48 83 c3 fe          	addq	$-2, %rbx
ffffff80002067b2: 4c 8d 04 1c          	leaq	(%rsp,%rbx), %r8
ffffff80002067b6: 41 b9 27 00 00 00    	movl	$39, %r9d
ffffff80002067bc: 49 29 d9             	subq	%rbx, %r9
ffffff80002067bf: 48 8b 15 4a a5 00 00 	movq	42314(%rip), %rdx       # 0xffffff8000210d10 <_ZN3log6LOGGER17h48756037b7073395E.1+0x110>
ffffff80002067c6: 48 89 f7             	movq	%rsi, %rdi
ffffff80002067c9: be 01 00 00 00       	movl	$1, %esi
ffffff80002067ce: 31 c9                	xorl	%ecx, %ecx
ffffff80002067d0: e8 ab ef ff ff       	callq	0xffffff8000205780 <_ZN4core3fmt9Formatter12pad_integral17h43fecee5ed9182e1E>
ffffff80002067d5: 48 81 c4 80 00 00 00 	addq	$128, %rsp
ffffff80002067dc: 5b                   	popq	%rbx
ffffff80002067dd: c3                   	retq
ffffff80002067de: 48 8d 15 db a0 00 00 	leaq	41179(%rip), %rdx       # 0xffffff80002108c0 <_ZN5axhal8platform6pc_x864time12CPU_FREQ_MHZ17hcbee90971ca93e77E.0+0x738>
ffffff80002067e5: be 80 00 00 00       	movl	$128, %esi
ffffff80002067ea: e8 01 f3 ff ff       	callq	0xffffff8000205af0 <_ZN4core5slice5index26slice_start_index_len_fail17h2bd13147effaa2ceE>
ffffff80002067ef: 0f 0b                	ud2
ffffff80002067f1: cc                   	int3
ffffff80002067f2: cc                   	int3
ffffff80002067f3: cc                   	int3
ffffff80002067f4: cc                   	int3
ffffff80002067f5: cc                   	int3
ffffff80002067f6: cc                   	int3
ffffff80002067f7: cc                   	int3
ffffff80002067f8: cc                   	int3
ffffff80002067f9: cc                   	int3
ffffff80002067fa: cc                   	int3
ffffff80002067fb: cc                   	int3
ffffff80002067fc: cc                   	int3
ffffff80002067fd: cc                   	int3
ffffff80002067fe: cc                   	int3
ffffff80002067ff: cc                   	int3

ffffff8000206800 <_ZN4core5slice5index22slice_index_order_fail17hcae3d7e770631c37E>:
ffffff8000206800: 50                   	pushq	%rax
ffffff8000206801: e8 0a 00 00 00       	callq	0xffffff8000206810 <_ZN4core5slice5index25slice_index_order_fail_rt17h60cd8fc0d4a6e246E>
ffffff8000206806: 0f 0b                	ud2
ffffff8000206808: cc                   	int3
ffffff8000206809: cc                   	int3
ffffff800020680a: cc                   	int3
ffffff800020680b: cc                   	int3
ffffff800020680c: cc                   	int3
ffffff800020680d: cc                   	int3
ffffff800020680e: cc                   	int3
ffffff800020680f: cc                   	int3

ffffff8000206810 <_ZN4core5slice5index25slice_index_order_fail_rt17h60cd8fc0d4a6e246E>:
ffffff8000206810: 48 83 ec 68          	subq	$104, %rsp
ffffff8000206814: 48 89 7c 24 08       	movq	%rdi, 8(%rsp)
ffffff8000206819: 48 89 74 24 10       	movq	%rsi, 16(%rsp)
ffffff800020681e: 48 8d 44 24 08       	leaq	8(%rsp), %rax
ffffff8000206823: 48 89 44 24 18       	movq	%rax, 24(%rsp)
ffffff8000206828: 48 8d 05 21 ee ff ff 	leaq	-4575(%rip), %rax       # 0xffffff8000205650 <_ZN4core3fmt3num3imp52_$LT$impl$u20$core..fmt..Display$u20$for$u20$u64$GT$3fmt17h78dc0edf4b145690E>
ffffff800020682f: 48 89 44 24 20       	movq	%rax, 32(%rsp)
ffffff8000206834: 48 8d 4c 24 10       	leaq	16(%rsp), %rcx
ffffff8000206839: 48 89 4c 24 28       	movq	%rcx, 40(%rsp)
ffffff800020683e: 48 89 44 24 30       	movq	%rax, 48(%rsp)
ffffff8000206843: 48 8d 05 46 a1 00 00 	leaq	41286(%rip), %rax       # 0xffffff8000210990 <_ZN5axhal8platform6pc_x864time12CPU_FREQ_MHZ17hcbee90971ca93e77E.0+0x808>
ffffff800020684a: 48 89 44 24 48       	movq	%rax, 72(%rsp)
ffffff800020684f: 48 c7 44 24 50 02 00 00 00   	movq	$2, 80(%rsp)
ffffff8000206858: 48 c7 44 24 38 00 00 00 00   	movq	$0, 56(%rsp)
ffffff8000206861: 48 8d 44 24 18       	leaq	24(%rsp), %rax
ffffff8000206866: 48 89 44 24 58       	movq	%rax, 88(%rsp)
ffffff800020686b: 48 c7 44 24 60 02 00 00 00   	movq	$2, 96(%rsp)
ffffff8000206874: 48 8d 7c 24 38       	leaq	56(%rsp), %rdi
ffffff8000206879: 48 89 d6             	movq	%rdx, %rsi
ffffff800020687c: e8 ef ec ff ff       	callq	0xffffff8000205570 <_ZN4core9panicking9panic_fmt17h95420505f5f4b6c1E>
ffffff8000206881: 0f 0b                	ud2
ffffff8000206883: cc                   	int3
ffffff8000206884: cc                   	int3
ffffff8000206885: cc                   	int3
ffffff8000206886: cc                   	int3
ffffff8000206887: cc                   	int3
ffffff8000206888: cc                   	int3
ffffff8000206889: cc                   	int3
ffffff800020688a: cc                   	int3
ffffff800020688b: cc                   	int3
ffffff800020688c: cc                   	int3
ffffff800020688d: cc                   	int3
ffffff800020688e: cc                   	int3
ffffff800020688f: cc                   	int3

ffffff8000206890 <_ZN4core3str8converts9from_utf817h50e67ae2817c918fE>:
ffffff8000206890: 4c 8d 5e 07          	leaq	7(%rsi), %r11
ffffff8000206894: 49 83 e3 f8          	andq	$-8, %r11
ffffff8000206898: 49 29 f3             	subq	%rsi, %r11
ffffff800020689b: 31 c0                	xorl	%eax, %eax
ffffff800020689d: 4c 8d 05 e6 3b 00 00 	leaq	15334(%rip), %r8        # 0xffffff800020a48a <str.0+0x76a>
ffffff80002068a4: 0f b6 0c 06          	movzbl	(%rsi,%rax), %ecx
ffffff80002068a8: 84 c9                	testb	%cl, %cl
ffffff80002068aa: 78 44                	js	0xffffff80002068f0 <_ZN4core3str8converts9from_utf817h50e67ae2817c918fE+0x60>
ffffff80002068ac: 49 83 fb ff          	cmpq	$-1, %r11
ffffff80002068b0: 0f 84 4a 01 00 00    	je	0xffffff8000206a00 <_ZN4core3str8converts9from_utf817h50e67ae2817c918fE+0x170>
ffffff80002068b6: 44 89 d9             	movl	%r11d, %ecx
ffffff80002068b9: 29 c1                	subl	%eax, %ecx
ffffff80002068bb: 83 e1 07             	andl	$7, %ecx
ffffff80002068be: 0f 85 3c 01 00 00    	jne	0xffffff8000206a00 <_ZN4core3str8converts9from_utf817h50e67ae2817c918fE+0x170>
ffffff80002068c4: 48 83 f8 0b          	cmpq	$11, %rax
ffffff80002068c8: 0f 87 3f 01 00 00    	ja	0xffffff8000206a0d <_ZN4core3str8converts9from_utf817h50e67ae2817c918fE+0x17d>
ffffff80002068ce: 66 90                	nop
ffffff80002068d0: 80 3c 06 00          	cmpb	$0, (%rsi,%rax)
ffffff80002068d4: 0f 88 29 01 00 00    	js	0xffffff8000206a03 <_ZN4core3str8converts9from_utf817h50e67ae2817c918fE+0x173>
ffffff80002068da: 48 ff c0             	incq	%rax
ffffff80002068dd: 48 83 f8 0c          	cmpq	$12, %rax
ffffff80002068e1: 75 ed                	jne	0xffffff80002068d0 <_ZN4core3str8converts9from_utf817h50e67ae2817c918fE+0x40>
ffffff80002068e3: e9 25 01 00 00       	jmp	0xffffff8000206a0d <_ZN4core3str8converts9from_utf817h50e67ae2817c918fE+0x17d>
ffffff80002068e8: 0f 1f 84 00 00 00 00 00      	nopl	(%rax,%rax)
ffffff80002068f0: 42 0f b6 14 01       	movzbl	(%rcx,%r8), %edx
ffffff80002068f5: 41 b1 01             	movb	$1, %r9b
ffffff80002068f8: 83 fa 04             	cmpl	$4, %edx
ffffff80002068fb: 74 2d                	je	0xffffff800020692a <_ZN4core3str8converts9from_utf817h50e67ae2817c918fE+0x9a>
ffffff80002068fd: 83 fa 03             	cmpl	$3, %edx
ffffff8000206900: 74 50                	je	0xffffff8000206952 <_ZN4core3str8converts9from_utf817h50e67ae2817c918fE+0xc2>
ffffff8000206902: 83 fa 02             	cmpl	$2, %edx
ffffff8000206905: 0f 85 1c 01 00 00    	jne	0xffffff8000206a27 <_ZN4core3str8converts9from_utf817h50e67ae2817c918fE+0x197>
ffffff800020690b: 48 83 f8 0b          	cmpq	$11, %rax
ffffff800020690f: 0f 83 0a 01 00 00    	jae	0xffffff8000206a1f <_ZN4core3str8converts9from_utf817h50e67ae2817c918fE+0x18f>
ffffff8000206915: 80 7c 06 01 bf       	cmpb	$-65, 1(%rsi,%rax)
ffffff800020691a: b1 01                	movb	$1, %cl
ffffff800020691c: 0f 8f 0f 01 00 00    	jg	0xffffff8000206a31 <_ZN4core3str8converts9from_utf817h50e67ae2817c918fE+0x1a1>
ffffff8000206922: 48 ff c0             	incq	%rax
ffffff8000206925: e9 d6 00 00 00       	jmp	0xffffff8000206a00 <_ZN4core3str8converts9from_utf817h50e67ae2817c918fE+0x170>
ffffff800020692a: 48 83 f8 0a          	cmpq	$10, %rax
ffffff800020692e: 0f 87 f0 00 00 00    	ja	0xffffff8000206a24 <_ZN4core3str8converts9from_utf817h50e67ae2817c918fE+0x194>
ffffff8000206934: 44 0f b6 54 30 01    	movzbl	1(%rax,%rsi), %r10d
ffffff800020693a: 80 f9 f0             	cmpb	$-16, %cl
ffffff800020693d: 74 3b                	je	0xffffff800020697a <_ZN4core3str8converts9from_utf817h50e67ae2817c918fE+0xea>
ffffff800020693f: 81 f9 f4 00 00 00    	cmpl	$244, %ecx
ffffff8000206945: 75 42                	jne	0xffffff8000206989 <_ZN4core3str8converts9from_utf817h50e67ae2817c918fE+0xf9>
ffffff8000206947: 41 80 fa 8f          	cmpb	$-113, %r10b
ffffff800020694b: 7e 52                	jle	0xffffff800020699f <_ZN4core3str8converts9from_utf817h50e67ae2817c918fE+0x10f>
ffffff800020694d: e9 d5 00 00 00       	jmp	0xffffff8000206a27 <_ZN4core3str8converts9from_utf817h50e67ae2817c918fE+0x197>
ffffff8000206952: 48 83 f8 0b          	cmpq	$11, %rax
ffffff8000206956: 0f 83 c8 00 00 00    	jae	0xffffff8000206a24 <_ZN4core3str8converts9from_utf817h50e67ae2817c918fE+0x194>
ffffff800020695c: 44 0f b6 54 30 01    	movzbl	1(%rax,%rsi), %r10d
ffffff8000206962: 80 f9 e0             	cmpb	$-32, %cl
ffffff8000206965: 74 5c                	je	0xffffff80002069c3 <_ZN4core3str8converts9from_utf817h50e67ae2817c918fE+0x133>
ffffff8000206967: 81 f9 ed 00 00 00    	cmpl	$237, %ecx
ffffff800020696d: 75 60                	jne	0xffffff80002069cf <_ZN4core3str8converts9from_utf817h50e67ae2817c918fE+0x13f>
ffffff800020696f: 41 80 fa a0          	cmpb	$-96, %r10b
ffffff8000206973: 7c 78                	jl	0xffffff80002069ed <_ZN4core3str8converts9from_utf817h50e67ae2817c918fE+0x15d>
ffffff8000206975: e9 ad 00 00 00       	jmp	0xffffff8000206a27 <_ZN4core3str8converts9from_utf817h50e67ae2817c918fE+0x197>
ffffff800020697a: 41 80 c2 70          	addb	$112, %r10b
ffffff800020697e: 41 80 fa 30          	cmpb	$48, %r10b
ffffff8000206982: 72 1b                	jb	0xffffff800020699f <_ZN4core3str8converts9from_utf817h50e67ae2817c918fE+0x10f>
ffffff8000206984: e9 9e 00 00 00       	jmp	0xffffff8000206a27 <_ZN4core3str8converts9from_utf817h50e67ae2817c918fE+0x197>
ffffff8000206989: 80 c1 0f             	addb	$15, %cl
ffffff800020698c: 80 f9 02             	cmpb	$2, %cl
ffffff800020698f: 0f 87 92 00 00 00    	ja	0xffffff8000206a27 <_ZN4core3str8converts9from_utf817h50e67ae2817c918fE+0x197>
ffffff8000206995: 41 80 fa c0          	cmpb	$-64, %r10b
ffffff8000206999: 0f 8d 88 00 00 00    	jge	0xffffff8000206a27 <_ZN4core3str8converts9from_utf817h50e67ae2817c918fE+0x197>
ffffff800020699f: 48 83 f8 09          	cmpq	$9, %rax
ffffff80002069a3: 77 7a                	ja	0xffffff8000206a1f <_ZN4core3str8converts9from_utf817h50e67ae2817c918fE+0x18f>
ffffff80002069a5: 80 7c 30 02 bf       	cmpb	$-65, 2(%rax,%rsi)
ffffff80002069aa: 0f 8f 7b 00 00 00    	jg	0xffffff8000206a2b <_ZN4core3str8converts9from_utf817h50e67ae2817c918fE+0x19b>
ffffff80002069b0: 48 83 f8 08          	cmpq	$8, %rax
ffffff80002069b4: 77 69                	ja	0xffffff8000206a1f <_ZN4core3str8converts9from_utf817h50e67ae2817c918fE+0x18f>
ffffff80002069b6: 80 7c 06 03 bf       	cmpb	$-65, 3(%rsi,%rax)
ffffff80002069bb: 7f 72                	jg	0xffffff8000206a2f <_ZN4core3str8converts9from_utf817h50e67ae2817c918fE+0x19f>
ffffff80002069bd: 48 83 c0 03          	addq	$3, %rax
ffffff80002069c1: eb 3d                	jmp	0xffffff8000206a00 <_ZN4core3str8converts9from_utf817h50e67ae2817c918fE+0x170>
ffffff80002069c3: 41 80 e2 e0          	andb	$-32, %r10b
ffffff80002069c7: 41 80 fa a0          	cmpb	$-96, %r10b
ffffff80002069cb: 74 20                	je	0xffffff80002069ed <_ZN4core3str8converts9from_utf817h50e67ae2817c918fE+0x15d>
ffffff80002069cd: eb 58                	jmp	0xffffff8000206a27 <_ZN4core3str8converts9from_utf817h50e67ae2817c918fE+0x197>
ffffff80002069cf: 8d 51 1f             	leal	31(%rcx), %edx
ffffff80002069d2: 80 fa 0c             	cmpb	$12, %dl
ffffff80002069d5: 73 08                	jae	0xffffff80002069df <_ZN4core3str8converts9from_utf817h50e67ae2817c918fE+0x14f>
ffffff80002069d7: 41 80 fa bf          	cmpb	$-65, %r10b
ffffff80002069db: 7e 10                	jle	0xffffff80002069ed <_ZN4core3str8converts9from_utf817h50e67ae2817c918fE+0x15d>
ffffff80002069dd: eb 48                	jmp	0xffffff8000206a27 <_ZN4core3str8converts9from_utf817h50e67ae2817c918fE+0x197>
ffffff80002069df: 80 e1 fe             	andb	$-2, %cl
ffffff80002069e2: 80 f9 ee             	cmpb	$-18, %cl
ffffff80002069e5: 75 40                	jne	0xffffff8000206a27 <_ZN4core3str8converts9from_utf817h50e67ae2817c918fE+0x197>
ffffff80002069e7: 41 80 fa c0          	cmpb	$-64, %r10b
ffffff80002069eb: 7d 3a                	jge	0xffffff8000206a27 <_ZN4core3str8converts9from_utf817h50e67ae2817c918fE+0x197>
ffffff80002069ed: 48 83 f8 09          	cmpq	$9, %rax
ffffff80002069f1: 77 2c                	ja	0xffffff8000206a1f <_ZN4core3str8converts9from_utf817h50e67ae2817c918fE+0x18f>
ffffff80002069f3: 80 7c 06 02 bf       	cmpb	$-65, 2(%rsi,%rax)
ffffff80002069f8: 7f 31                	jg	0xffffff8000206a2b <_ZN4core3str8converts9from_utf817h50e67ae2817c918fE+0x19b>
ffffff80002069fa: 48 83 c0 02          	addq	$2, %rax
ffffff80002069fe: 66 90                	nop
ffffff8000206a00: 48 ff c0             	incq	%rax
ffffff8000206a03: 48 83 f8 0c          	cmpq	$12, %rax
ffffff8000206a07: 0f 82 97 fe ff ff    	jb	0xffffff80002068a4 <_ZN4core3str8converts9from_utf817h50e67ae2817c918fE+0x14>
ffffff8000206a0d: 48 89 77 08          	movq	%rsi, 8(%rdi)
ffffff8000206a11: 48 c7 47 10 0c 00 00 00      	movq	$12, 16(%rdi)
ffffff8000206a19: 31 c0                	xorl	%eax, %eax
ffffff8000206a1b: 48 89 07             	movq	%rax, (%rdi)
ffffff8000206a1e: c3                   	retq
ffffff8000206a1f: 45 31 c9             	xorl	%r9d, %r9d
ffffff8000206a22: eb 0d                	jmp	0xffffff8000206a31 <_ZN4core3str8converts9from_utf817h50e67ae2817c918fE+0x1a1>
ffffff8000206a24: 45 31 c9             	xorl	%r9d, %r9d
ffffff8000206a27: b1 01                	movb	$1, %cl
ffffff8000206a29: eb 06                	jmp	0xffffff8000206a31 <_ZN4core3str8converts9from_utf817h50e67ae2817c918fE+0x1a1>
ffffff8000206a2b: b1 02                	movb	$2, %cl
ffffff8000206a2d: eb 02                	jmp	0xffffff8000206a31 <_ZN4core3str8converts9from_utf817h50e67ae2817c918fE+0x1a1>
ffffff8000206a2f: b1 03                	movb	$3, %cl
ffffff8000206a31: 48 89 47 08          	movq	%rax, 8(%rdi)
ffffff8000206a35: 44 88 4f 10          	movb	%r9b, 16(%rdi)
ffffff8000206a39: 88 4f 11             	movb	%cl, 17(%rdi)
ffffff8000206a3c: b8 01 00 00 00       	movl	$1, %eax
ffffff8000206a41: 48 89 07             	movq	%rax, (%rdi)
ffffff8000206a44: c3                   	retq
ffffff8000206a45: cc                   	int3
ffffff8000206a46: cc                   	int3
ffffff8000206a47: cc                   	int3
ffffff8000206a48: cc                   	int3
ffffff8000206a49: cc                   	int3
ffffff8000206a4a: cc                   	int3
ffffff8000206a4b: cc                   	int3
ffffff8000206a4c: cc                   	int3
ffffff8000206a4d: cc                   	int3
ffffff8000206a4e: cc                   	int3
ffffff8000206a4f: cc                   	int3

ffffff8000206a50 <_ZN4core6result13unwrap_failed17he358196271332538E>:
ffffff8000206a50: 48 83 ec 78          	subq	$120, %rsp
ffffff8000206a54: 48 89 7c 24 08       	movq	%rdi, 8(%rsp)
ffffff8000206a59: 48 89 74 24 10       	movq	%rsi, 16(%rsp)
ffffff8000206a5e: 48 89 54 24 18       	movq	%rdx, 24(%rsp)
ffffff8000206a63: 48 89 4c 24 20       	movq	%rcx, 32(%rsp)
ffffff8000206a68: 48 8d 44 24 08       	leaq	8(%rsp), %rax
ffffff8000206a6d: 48 89 44 24 28       	movq	%rax, 40(%rsp)
ffffff8000206a72: 48 8d 05 67 17 00 00 	leaq	5991(%rip), %rax        # 0xffffff80002081e0 <_ZN44_$LT$$RF$T$u20$as$u20$core..fmt..Display$GT$3fmt17h826ed5806fed4bf7E>
ffffff8000206a79: 48 89 44 24 30       	movq	%rax, 48(%rsp)
ffffff8000206a7e: 48 8d 44 24 18       	leaq	24(%rsp), %rax
ffffff8000206a83: 48 89 44 24 38       	movq	%rax, 56(%rsp)
ffffff8000206a88: 48 8d 05 c1 f8 ff ff 	leaq	-1855(%rip), %rax       # 0xffffff8000206350 <_ZN42_$LT$$RF$T$u20$as$u20$core..fmt..Debug$GT$3fmt17he51834bb4b443be6E>
ffffff8000206a8f: 48 89 44 24 40       	movq	%rax, 64(%rsp)
ffffff8000206a94: 48 8d 05 d5 9d 00 00 	leaq	40405(%rip), %rax       # 0xffffff8000210870 <_ZN5axhal8platform6pc_x864time12CPU_FREQ_MHZ17hcbee90971ca93e77E.0+0x6e8>
ffffff8000206a9b: 48 89 44 24 58       	movq	%rax, 88(%rsp)
ffffff8000206aa0: 48 c7 44 24 60 02 00 00 00   	movq	$2, 96(%rsp)
ffffff8000206aa9: 48 c7 44 24 48 00 00 00 00   	movq	$0, 72(%rsp)
ffffff8000206ab2: 48 8d 44 24 28       	leaq	40(%rsp), %rax
ffffff8000206ab7: 48 89 44 24 68       	movq	%rax, 104(%rsp)
ffffff8000206abc: 48 c7 44 24 70 02 00 00 00   	movq	$2, 112(%rsp)
ffffff8000206ac5: 48 8d 7c 24 48       	leaq	72(%rsp), %rdi
ffffff8000206aca: 4c 89 c6             	movq	%r8, %rsi
ffffff8000206acd: e8 9e ea ff ff       	callq	0xffffff8000205570 <_ZN4core9panicking9panic_fmt17h95420505f5f4b6c1E>
ffffff8000206ad2: 0f 0b                	ud2
ffffff8000206ad4: cc                   	int3
ffffff8000206ad5: cc                   	int3
ffffff8000206ad6: cc                   	int3
ffffff8000206ad7: cc                   	int3
ffffff8000206ad8: cc                   	int3
ffffff8000206ad9: cc                   	int3
ffffff8000206ada: cc                   	int3
ffffff8000206adb: cc                   	int3
ffffff8000206adc: cc                   	int3
ffffff8000206add: cc                   	int3
ffffff8000206ade: cc                   	int3
ffffff8000206adf: cc                   	int3

ffffff8000206ae0 <_ZN53_$LT$core..fmt..Error$u20$as$u20$core..fmt..Debug$GT$3fmt17haaad5877a74a808fE>:
ffffff8000206ae0: 48 8b 3e             	movq	(%rsi), %rdi
ffffff8000206ae3: 48 8b 46 08          	movq	8(%rsi), %rax
ffffff8000206ae7: 48 8b 40 18          	movq	24(%rax), %rax
ffffff8000206aeb: 48 8d 35 dc 40 00 00 	leaq	16604(%rip), %rsi       # 0xffffff800020abce <str.0+0xeae>
ffffff8000206af2: ba 05 00 00 00       	movl	$5, %edx
ffffff8000206af7: ff e0                	jmpq	*%rax
ffffff8000206af9: cc                   	int3
ffffff8000206afa: cc                   	int3
ffffff8000206afb: cc                   	int3
ffffff8000206afc: cc                   	int3
ffffff8000206afd: cc                   	int3
ffffff8000206afe: cc                   	int3
ffffff8000206aff: cc                   	int3

ffffff8000206b00 <_ZN4core3fmt3num3imp51_$LT$impl$u20$core..fmt..Display$u20$for$u20$u8$GT$3fmt17h6a32e889356722f4E>:
ffffff8000206b00: 48 83 ec 28          	subq	$40, %rsp
ffffff8000206b04: 0f b6 07             	movzbl	(%rdi), %eax
ffffff8000206b07: 48 83 f8 63          	cmpq	$99, %rax
ffffff8000206b0b: 76 30                	jbe	0xffffff8000206b3d <_ZN4core3fmt3num3imp51_$LT$impl$u20$core..fmt..Display$u20$for$u20$u8$GT$3fmt17h6a32e889356722f4E+0x3d>
ffffff8000206b0d: 0f b6 c8             	movzbl	%al, %ecx
ffffff8000206b10: 8d 14 89             	leal	(%rcx,%rcx,4), %edx
ffffff8000206b13: 8d 0c d1             	leal	(%rcx,%rdx,8), %ecx
ffffff8000206b16: 0f b7 d1             	movzwl	%cx, %edx
ffffff8000206b19: c1 ea 0c             	shrl	$12, %edx
ffffff8000206b1c: 6b ca 64             	imull	$100, %edx, %ecx
ffffff8000206b1f: 28 c8                	subb	%cl, %al
ffffff8000206b21: 0f b6 c0             	movzbl	%al, %eax
ffffff8000206b24: 48 8d 0d 25 38 00 00 	leaq	14373(%rip), %rcx       # 0xffffff800020a350 <str.0+0x630>
ffffff8000206b2b: 0f b7 04 41          	movzwl	(%rcx,%rax,2), %eax
ffffff8000206b2f: 66 89 44 24 26       	movw	%ax, 38(%rsp)
ffffff8000206b34: b9 24 00 00 00       	movl	$36, %ecx
ffffff8000206b39: 89 d0                	movl	%edx, %eax
ffffff8000206b3b: eb 09                	jmp	0xffffff8000206b46 <_ZN4core3fmt3num3imp51_$LT$impl$u20$core..fmt..Display$u20$for$u20$u8$GT$3fmt17h6a32e889356722f4E+0x46>
ffffff8000206b3d: b9 26 00 00 00       	movl	$38, %ecx
ffffff8000206b42: 3c 0a                	cmpb	$10, %al
ffffff8000206b44: 73 08                	jae	0xffffff8000206b4e <_ZN4core3fmt3num3imp51_$LT$impl$u20$core..fmt..Display$u20$for$u20$u8$GT$3fmt17h6a32e889356722f4E+0x4e>
ffffff8000206b46: 04 30                	addb	$48, %al
ffffff8000206b48: 88 44 0c 01          	movb	%al, 1(%rsp,%rcx)
ffffff8000206b4c: eb 15                	jmp	0xffffff8000206b63 <_ZN4core3fmt3num3imp51_$LT$impl$u20$core..fmt..Display$u20$for$u20$u8$GT$3fmt17h6a32e889356722f4E+0x63>
ffffff8000206b4e: 48 8d 0d fb 37 00 00 	leaq	14331(%rip), %rcx       # 0xffffff800020a350 <str.0+0x630>
ffffff8000206b55: 0f b7 04 41          	movzwl	(%rcx,%rax,2), %eax
ffffff8000206b59: 66 89 44 24 26       	movw	%ax, 38(%rsp)
ffffff8000206b5e: b9 25 00 00 00       	movl	$37, %ecx
ffffff8000206b63: 4c 8d 04 0c          	leaq	(%rsp,%rcx), %r8
ffffff8000206b67: 49 ff c0             	incq	%r8
ffffff8000206b6a: 41 b9 27 00 00 00    	movl	$39, %r9d
ffffff8000206b70: 49 29 c9             	subq	%rcx, %r9
ffffff8000206b73: 48 8b 15 96 a1 00 00 	movq	41366(%rip), %rdx       # 0xffffff8000210d10 <_ZN3log6LOGGER17h48756037b7073395E.1+0x110>
ffffff8000206b7a: 48 89 f7             	movq	%rsi, %rdi
ffffff8000206b7d: be 01 00 00 00       	movl	$1, %esi
ffffff8000206b82: 31 c9                	xorl	%ecx, %ecx
ffffff8000206b84: e8 f7 eb ff ff       	callq	0xffffff8000205780 <_ZN4core3fmt9Formatter12pad_integral17h43fecee5ed9182e1E>
ffffff8000206b89: 48 83 c4 28          	addq	$40, %rsp
ffffff8000206b8d: c3                   	retq
ffffff8000206b8e: cc                   	int3
ffffff8000206b8f: cc                   	int3

ffffff8000206b90 <_ZN4core3fmt3num3imp52_$LT$impl$u20$core..fmt..Display$u20$for$u20$u16$GT$3fmt17hf3ec0b6410e70552E>:
ffffff8000206b90: 48 83 ec 28          	subq	$40, %rsp
ffffff8000206b94: 0f b7 07             	movzwl	(%rdi), %eax
ffffff8000206b97: 3d 10 27 00 00       	cmpl	$10000, %eax            # imm = 0x2710
ffffff8000206b9c: 72 52                	jb	0xffffff8000206bf0 <_ZN4core3fmt3num3imp52_$LT$impl$u20$core..fmt..Display$u20$for$u20$u16$GT$3fmt17hf3ec0b6410e70552E+0x60>
ffffff8000206b9e: 0f b7 c8             	movzwl	%ax, %ecx
ffffff8000206ba1: 89 c8                	movl	%ecx, %eax
ffffff8000206ba3: c1 e8 04             	shrl	$4, %eax
ffffff8000206ba6: 69 c0 47 03 00 00    	imull	$839, %eax, %eax        # imm = 0x347
ffffff8000206bac: c1 e8 13             	shrl	$19, %eax
ffffff8000206baf: 69 d0 10 27 00 00    	imull	$10000, %eax, %edx      # imm = 0x2710
ffffff8000206bb5: 29 d1                	subl	%edx, %ecx
ffffff8000206bb7: 0f b7 c9             	movzwl	%cx, %ecx
ffffff8000206bba: 89 ca                	movl	%ecx, %edx
ffffff8000206bbc: c1 ea 02             	shrl	$2, %edx
ffffff8000206bbf: 69 d2 7b 14 00 00    	imull	$5243, %edx, %edx       # imm = 0x147B
ffffff8000206bc5: c1 ea 11             	shrl	$17, %edx
ffffff8000206bc8: 6b fa 64             	imull	$100, %edx, %edi
ffffff8000206bcb: 29 f9                	subl	%edi, %ecx
ffffff8000206bcd: 0f b7 c9             	movzwl	%cx, %ecx
ffffff8000206bd0: 48 8d 3d 79 37 00 00 	leaq	14201(%rip), %rdi       # 0xffffff800020a350 <str.0+0x630>
ffffff8000206bd7: 0f b7 14 57          	movzwl	(%rdi,%rdx,2), %edx
ffffff8000206bdb: 66 89 54 24 24       	movw	%dx, 36(%rsp)
ffffff8000206be0: 0f b7 0c 4f          	movzwl	(%rdi,%rcx,2), %ecx
ffffff8000206be4: 66 89 4c 24 26       	movw	%cx, 38(%rsp)
ffffff8000206be9: b9 23 00 00 00       	movl	$35, %ecx
ffffff8000206bee: eb 3f                	jmp	0xffffff8000206c2f <_ZN4core3fmt3num3imp52_$LT$impl$u20$core..fmt..Display$u20$for$u20$u16$GT$3fmt17hf3ec0b6410e70552E+0x9f>
ffffff8000206bf0: b9 27 00 00 00       	movl	$39, %ecx
ffffff8000206bf5: 66 83 f8 63          	cmpw	$99, %ax
ffffff8000206bf9: 76 2e                	jbe	0xffffff8000206c29 <_ZN4core3fmt3num3imp52_$LT$impl$u20$core..fmt..Display$u20$for$u20$u16$GT$3fmt17hf3ec0b6410e70552E+0x99>
ffffff8000206bfb: 0f b7 c8             	movzwl	%ax, %ecx
ffffff8000206bfe: 89 c8                	movl	%ecx, %eax
ffffff8000206c00: c1 e8 02             	shrl	$2, %eax
ffffff8000206c03: 69 c0 7b 14 00 00    	imull	$5243, %eax, %eax       # imm = 0x147B
ffffff8000206c09: c1 e8 11             	shrl	$17, %eax
ffffff8000206c0c: 6b d0 64             	imull	$100, %eax, %edx
ffffff8000206c0f: 29 d1                	subl	%edx, %ecx
ffffff8000206c11: 0f b7 c9             	movzwl	%cx, %ecx
ffffff8000206c14: 48 8d 15 35 37 00 00 	leaq	14133(%rip), %rdx       # 0xffffff800020a350 <str.0+0x630>
ffffff8000206c1b: 0f b7 0c 4a          	movzwl	(%rdx,%rcx,2), %ecx
ffffff8000206c1f: 66 89 4c 24 26       	movw	%cx, 38(%rsp)
ffffff8000206c24: b9 25 00 00 00       	movl	$37, %ecx
ffffff8000206c29: 66 83 f8 0a          	cmpw	$10, %ax
ffffff8000206c2d: 73 0a                	jae	0xffffff8000206c39 <_ZN4core3fmt3num3imp52_$LT$impl$u20$core..fmt..Display$u20$for$u20$u16$GT$3fmt17hf3ec0b6410e70552E+0xa9>
ffffff8000206c2f: 04 30                	addb	$48, %al
ffffff8000206c31: 88 04 0c             	movb	%al, (%rsp,%rcx)
ffffff8000206c34: 48 ff c9             	decq	%rcx
ffffff8000206c37: eb 17                	jmp	0xffffff8000206c50 <_ZN4core3fmt3num3imp52_$LT$impl$u20$core..fmt..Display$u20$for$u20$u16$GT$3fmt17hf3ec0b6410e70552E+0xc0>
ffffff8000206c39: 0f b7 c0             	movzwl	%ax, %eax
ffffff8000206c3c: 48 8d 15 0d 37 00 00 	leaq	14093(%rip), %rdx       # 0xffffff800020a350 <str.0+0x630>
ffffff8000206c43: 0f b7 04 42          	movzwl	(%rdx,%rax,2), %eax
ffffff8000206c47: 66 89 44 0c ff       	movw	%ax, -1(%rsp,%rcx)
ffffff8000206c4c: 48 83 c1 fe          	addq	$-2, %rcx
ffffff8000206c50: 4c 8d 04 0c          	leaq	(%rsp,%rcx), %r8
ffffff8000206c54: 49 ff c0             	incq	%r8
ffffff8000206c57: 41 b9 27 00 00 00    	movl	$39, %r9d
ffffff8000206c5d: 49 29 c9             	subq	%rcx, %r9
ffffff8000206c60: 48 8b 15 a9 a0 00 00 	movq	41129(%rip), %rdx       # 0xffffff8000210d10 <_ZN3log6LOGGER17h48756037b7073395E.1+0x110>
ffffff8000206c67: 48 89 f7             	movq	%rsi, %rdi
ffffff8000206c6a: be 01 00 00 00       	movl	$1, %esi
ffffff8000206c6f: 31 c9                	xorl	%ecx, %ecx
ffffff8000206c71: e8 0a eb ff ff       	callq	0xffffff8000205780 <_ZN4core3fmt9Formatter12pad_integral17h43fecee5ed9182e1E>
ffffff8000206c76: 48 83 c4 28          	addq	$40, %rsp
ffffff8000206c7a: c3                   	retq
ffffff8000206c7b: cc                   	int3
ffffff8000206c7c: cc                   	int3
ffffff8000206c7d: cc                   	int3
ffffff8000206c7e: cc                   	int3
ffffff8000206c7f: cc                   	int3

ffffff8000206c80 <_ZN4core3fmt3num3imp52_$LT$impl$u20$core..fmt..Display$u20$for$u20$u32$GT$3fmt17h906c1338c60cfce1E>:
ffffff8000206c80: 48 83 ec 28          	subq	$40, %rsp
ffffff8000206c84: 49 89 f2             	movq	%rsi, %r10
ffffff8000206c87: 44 8b 1f             	movl	(%rdi), %r11d
ffffff8000206c8a: b9 27 00 00 00       	movl	$39, %ecx
ffffff8000206c8f: 49 81 fb 10 27 00 00 	cmpq	$10000, %r11            # imm = 0x2710
ffffff8000206c96: 0f 82 bc 00 00 00    	jb	0xffffff8000206d58 <_ZN4core3fmt3num3imp52_$LT$impl$u20$core..fmt..Display$u20$for$u20$u32$GT$3fmt17h906c1338c60cfce1E+0xd8>
ffffff8000206c9c: bf 27 00 00 00       	movl	$39, %edi
ffffff8000206ca1: 49 b8 4b 59 86 38 d6 c5 6d 34	movabsq	$3777893186295716171, %r8 # imm = 0x346DC5D63886594B
ffffff8000206cab: 4c 8d 0d 9e 36 00 00 	leaq	13982(%rip), %r9        # 0xffffff800020a350 <str.0+0x630>
ffffff8000206cb2: 66 66 66 66 66 2e 0f 1f 84 00 00 00 00 00    	nopw	%cs:(%rax,%rax)
ffffff8000206cc0: 4c 89 d8             	movq	%r11, %rax
ffffff8000206cc3: 49 f7 e0             	mulq	%r8
ffffff8000206cc6: 48 c1 ea 0b          	shrq	$11, %rdx
ffffff8000206cca: 69 c2 10 27 00 00    	imull	$10000, %edx, %eax      # imm = 0x2710
ffffff8000206cd0: 44 89 d9             	movl	%r11d, %ecx
ffffff8000206cd3: 29 c1                	subl	%eax, %ecx
ffffff8000206cd5: 0f b7 c1             	movzwl	%cx, %eax
ffffff8000206cd8: c1 e8 02             	shrl	$2, %eax
ffffff8000206cdb: 69 c0 7b 14 00 00    	imull	$5243, %eax, %eax       # imm = 0x147B
ffffff8000206ce1: c1 e8 11             	shrl	$17, %eax
ffffff8000206ce4: 6b f0 64             	imull	$100, %eax, %esi
ffffff8000206ce7: 29 f1                	subl	%esi, %ecx
ffffff8000206ce9: 0f b7 f1             	movzwl	%cx, %esi
ffffff8000206cec: 48 8d 4f fc          	leaq	-4(%rdi), %rcx
ffffff8000206cf0: 41 0f b7 04 41       	movzwl	(%r9,%rax,2), %eax
ffffff8000206cf5: 66 89 44 3c fd       	movw	%ax, -3(%rsp,%rdi)
ffffff8000206cfa: 41 0f b7 04 71       	movzwl	(%r9,%rsi,2), %eax
ffffff8000206cff: 66 89 44 3c ff       	movw	%ax, -1(%rsp,%rdi)
ffffff8000206d04: 48 89 cf             	movq	%rcx, %rdi
ffffff8000206d07: 49 81 fb ff e0 f5 05 	cmpq	$99999999, %r11         # imm = 0x5F5E0FF
ffffff8000206d0e: 49 89 d3             	movq	%rdx, %r11
ffffff8000206d11: 77 ad                	ja	0xffffff8000206cc0 <_ZN4core3fmt3num3imp52_$LT$impl$u20$core..fmt..Display$u20$for$u20$u32$GT$3fmt17h906c1338c60cfce1E+0x40>
ffffff8000206d13: 48 83 fa 63          	cmpq	$99, %rdx
ffffff8000206d17: 76 2e                	jbe	0xffffff8000206d47 <_ZN4core3fmt3num3imp52_$LT$impl$u20$core..fmt..Display$u20$for$u20$u32$GT$3fmt17h906c1338c60cfce1E+0xc7>
ffffff8000206d19: 0f b7 c2             	movzwl	%dx, %eax
ffffff8000206d1c: c1 e8 02             	shrl	$2, %eax
ffffff8000206d1f: 69 c0 7b 14 00 00    	imull	$5243, %eax, %eax       # imm = 0x147B
ffffff8000206d25: c1 e8 11             	shrl	$17, %eax
ffffff8000206d28: 6b f0 64             	imull	$100, %eax, %esi
ffffff8000206d2b: 29 f2                	subl	%esi, %edx
ffffff8000206d2d: 0f b7 d2             	movzwl	%dx, %edx
ffffff8000206d30: 48 8d 35 19 36 00 00 	leaq	13849(%rip), %rsi       # 0xffffff800020a350 <str.0+0x630>
ffffff8000206d37: 0f b7 14 56          	movzwl	(%rsi,%rdx,2), %edx
ffffff8000206d3b: 66 89 54 0c ff       	movw	%dx, -1(%rsp,%rcx)
ffffff8000206d40: 48 83 c1 fe          	addq	$-2, %rcx
ffffff8000206d44: 48 89 c2             	movq	%rax, %rdx
ffffff8000206d47: 48 83 fa 0a          	cmpq	$10, %rdx
ffffff8000206d4b: 73 16                	jae	0xffffff8000206d63 <_ZN4core3fmt3num3imp52_$LT$impl$u20$core..fmt..Display$u20$for$u20$u32$GT$3fmt17h906c1338c60cfce1E+0xe3>
ffffff8000206d4d: 80 c2 30             	addb	$48, %dl
ffffff8000206d50: 88 14 0c             	movb	%dl, (%rsp,%rcx)
ffffff8000206d53: 48 ff c9             	decq	%rcx
ffffff8000206d56: eb 1f                	jmp	0xffffff8000206d77 <_ZN4core3fmt3num3imp52_$LT$impl$u20$core..fmt..Display$u20$for$u20$u32$GT$3fmt17h906c1338c60cfce1E+0xf7>
ffffff8000206d58: 4c 89 da             	movq	%r11, %rdx
ffffff8000206d5b: 48 83 fa 63          	cmpq	$99, %rdx
ffffff8000206d5f: 77 b8                	ja	0xffffff8000206d19 <_ZN4core3fmt3num3imp52_$LT$impl$u20$core..fmt..Display$u20$for$u20$u32$GT$3fmt17h906c1338c60cfce1E+0x99>
ffffff8000206d61: eb e4                	jmp	0xffffff8000206d47 <_ZN4core3fmt3num3imp52_$LT$impl$u20$core..fmt..Display$u20$for$u20$u32$GT$3fmt17h906c1338c60cfce1E+0xc7>
ffffff8000206d63: 48 8d 05 e6 35 00 00 	leaq	13798(%rip), %rax       # 0xffffff800020a350 <str.0+0x630>
ffffff8000206d6a: 0f b7 04 50          	movzwl	(%rax,%rdx,2), %eax
ffffff8000206d6e: 66 89 44 0c ff       	movw	%ax, -1(%rsp,%rcx)
ffffff8000206d73: 48 83 c1 fe          	addq	$-2, %rcx
ffffff8000206d77: 4c 8d 04 0c          	leaq	(%rsp,%rcx), %r8
ffffff8000206d7b: 49 ff c0             	incq	%r8
ffffff8000206d7e: 41 b9 27 00 00 00    	movl	$39, %r9d
ffffff8000206d84: 49 29 c9             	subq	%rcx, %r9
ffffff8000206d87: 48 8b 15 82 9f 00 00 	movq	40834(%rip), %rdx       # 0xffffff8000210d10 <_ZN3log6LOGGER17h48756037b7073395E.1+0x110>
ffffff8000206d8e: 4c 89 d7             	movq	%r10, %rdi
ffffff8000206d91: be 01 00 00 00       	movl	$1, %esi
ffffff8000206d96: 31 c9                	xorl	%ecx, %ecx
ffffff8000206d98: e8 e3 e9 ff ff       	callq	0xffffff8000205780 <_ZN4core3fmt9Formatter12pad_integral17h43fecee5ed9182e1E>
ffffff8000206d9d: 48 83 c4 28          	addq	$40, %rsp
ffffff8000206da1: c3                   	retq
ffffff8000206da2: cc                   	int3
ffffff8000206da3: cc                   	int3
ffffff8000206da4: cc                   	int3
ffffff8000206da5: cc                   	int3
ffffff8000206da6: cc                   	int3
ffffff8000206da7: cc                   	int3
ffffff8000206da8: cc                   	int3
ffffff8000206da9: cc                   	int3
ffffff8000206daa: cc                   	int3
ffffff8000206dab: cc                   	int3
ffffff8000206dac: cc                   	int3
ffffff8000206dad: cc                   	int3
ffffff8000206dae: cc                   	int3
ffffff8000206daf: cc                   	int3

ffffff8000206db0 <_ZN44_$LT$$RF$T$u20$as$u20$core..fmt..Display$GT$3fmt17h3d7d35182bbb5f6bE>:
ffffff8000206db0: 48 89 f0             	movq	%rsi, %rax
ffffff8000206db3: 48 8b 0f             	movq	(%rdi), %rcx
ffffff8000206db6: 48 8b 31             	movq	(%rcx), %rsi
ffffff8000206db9: 48 8b 51 08          	movq	8(%rcx), %rdx
ffffff8000206dbd: 48 89 c7             	movq	%rax, %rdi
ffffff8000206dc0: e9 4b ee ff ff       	jmp	0xffffff8000205c10 <_ZN4core3fmt9Formatter3pad17hf52b0532a0c80643E>
ffffff8000206dc5: cc                   	int3
ffffff8000206dc6: cc                   	int3
ffffff8000206dc7: cc                   	int3
ffffff8000206dc8: cc                   	int3
ffffff8000206dc9: cc                   	int3
ffffff8000206dca: cc                   	int3
ffffff8000206dcb: cc                   	int3
ffffff8000206dcc: cc                   	int3
ffffff8000206dcd: cc                   	int3
ffffff8000206dce: cc                   	int3
ffffff8000206dcf: cc                   	int3

ffffff8000206dd0 <_ZN68_$LT$core..fmt..builders..PadAdapter$u20$as$u20$core..fmt..Write$GT$9write_str17h094611df1bd204b2E>:
ffffff8000206dd0: 55                   	pushq	%rbp
ffffff8000206dd1: 41 57                	pushq	%r15
ffffff8000206dd3: 41 56                	pushq	%r14
ffffff8000206dd5: 41 55                	pushq	%r13
ffffff8000206dd7: 41 54                	pushq	%r12
ffffff8000206dd9: 53                   	pushq	%rbx
ffffff8000206dda: 48 83 ec 28          	subq	$40, %rsp
ffffff8000206dde: 49 89 d4             	movq	%rdx, %r12
ffffff8000206de1: 48 8b 47 10          	movq	16(%rdi), %rax
ffffff8000206de5: 48 89 44 24 18       	movq	%rax, 24(%rsp)
ffffff8000206dea: 48 8b 07             	movq	(%rdi), %rax
ffffff8000206ded: 48 89 44 24 10       	movq	%rax, 16(%rsp)
ffffff8000206df2: 48 8b 47 08          	movq	8(%rdi), %rax
ffffff8000206df6: 48 89 44 24 08       	movq	%rax, 8(%rsp)
ffffff8000206dfb: 48 89 34 24          	movq	%rsi, (%rsp)
ffffff8000206dff: 48 8d 46 08          	leaq	8(%rsi), %rax
ffffff8000206e03: 48 89 44 24 20       	movq	%rax, 32(%rsp)
ffffff8000206e08: 45 31 ed             	xorl	%r13d, %r13d
ffffff8000206e0b: 45 31 f6             	xorl	%r14d, %r14d
ffffff8000206e0e: 31 ed                	xorl	%ebp, %ebp
ffffff8000206e10: eb 35                	jmp	0xffffff8000206e47 <_ZN68_$LT$core..fmt..builders..PadAdapter$u20$as$u20$core..fmt..Write$GT$9write_str17h094611df1bd204b2E+0x77>
ffffff8000206e12: 66 66 66 66 66 2e 0f 1f 84 00 00 00 00 00    	nopw	%cs:(%rax,%rax)
ffffff8000206e20: 80 7c 32 ff 0a       	cmpb	$10, -1(%rdx,%rsi)
ffffff8000206e25: 0f 94 c0             	sete	%al
ffffff8000206e28: 48 8b 4c 24 18       	movq	24(%rsp), %rcx
ffffff8000206e2d: 88 01                	movb	%al, (%rcx)
ffffff8000206e2f: 48 8b 7c 24 10       	movq	16(%rsp), %rdi
ffffff8000206e34: 48 8b 44 24 08       	movq	8(%rsp), %rax
ffffff8000206e39: ff 50 18             	callq	*24(%rax)
ffffff8000206e3c: 4d 89 fd             	movq	%r15, %r13
ffffff8000206e3f: 84 c0                	testb	%al, %al
ffffff8000206e41: 0f 85 ca 01 00 00    	jne	0xffffff8000207011 <_ZN68_$LT$core..fmt..builders..PadAdapter$u20$as$u20$core..fmt..Write$GT$9write_str17h094611df1bd204b2E+0x241>
ffffff8000206e47: 40 84 ed             	testb	%bpl, %bpl
ffffff8000206e4a: 0f 85 bd 01 00 00    	jne	0xffffff800020700d <_ZN68_$LT$core..fmt..builders..PadAdapter$u20$as$u20$core..fmt..Write$GT$9write_str17h094611df1bd204b2E+0x23d>
ffffff8000206e50: 4d 39 e6             	cmpq	%r12, %r14
ffffff8000206e53: 76 0b                	jbe	0xffffff8000206e60 <_ZN68_$LT$core..fmt..builders..PadAdapter$u20$as$u20$core..fmt..Write$GT$9write_str17h094611df1bd204b2E+0x90>
ffffff8000206e55: 4d 89 f7             	movq	%r14, %r15
ffffff8000206e58: e9 46 01 00 00       	jmp	0xffffff8000206fa3 <_ZN68_$LT$core..fmt..builders..PadAdapter$u20$as$u20$core..fmt..Write$GT$9write_str17h094611df1bd204b2E+0x1d3>
ffffff8000206e5d: 0f 1f 00             	nopl	(%rax)
ffffff8000206e60: 4c 89 e6             	movq	%r12, %rsi
ffffff8000206e63: 4c 29 f6             	subq	%r14, %rsi
ffffff8000206e66: 48 8b 04 24          	movq	(%rsp), %rax
ffffff8000206e6a: 4c 01 f0             	addq	%r14, %rax
ffffff8000206e6d: 48 83 fe 10          	cmpq	$16, %rsi
ffffff8000206e71: 73 2d                	jae	0xffffff8000206ea0 <_ZN68_$LT$core..fmt..builders..PadAdapter$u20$as$u20$core..fmt..Write$GT$9write_str17h094611df1bd204b2E+0xd0>
ffffff8000206e73: 4d 39 e6             	cmpq	%r12, %r14
ffffff8000206e76: 0f 84 24 01 00 00    	je	0xffffff8000206fa0 <_ZN68_$LT$core..fmt..builders..PadAdapter$u20$as$u20$core..fmt..Write$GT$9write_str17h094611df1bd204b2E+0x1d0>
ffffff8000206e7c: 31 c9                	xorl	%ecx, %ecx
ffffff8000206e7e: 66 90                	nop
ffffff8000206e80: 80 3c 08 0a          	cmpb	$10, (%rax,%rcx)
ffffff8000206e84: 0f 84 e9 00 00 00    	je	0xffffff8000206f73 <_ZN68_$LT$core..fmt..builders..PadAdapter$u20$as$u20$core..fmt..Write$GT$9write_str17h094611df1bd204b2E+0x1a3>
ffffff8000206e8a: 48 ff c1             	incq	%rcx
ffffff8000206e8d: 48 39 ce             	cmpq	%rcx, %rsi
ffffff8000206e90: 75 ee                	jne	0xffffff8000206e80 <_ZN68_$LT$core..fmt..builders..PadAdapter$u20$as$u20$core..fmt..Write$GT$9write_str17h094611df1bd204b2E+0xb0>
ffffff8000206e92: e9 09 01 00 00       	jmp	0xffffff8000206fa0 <_ZN68_$LT$core..fmt..builders..PadAdapter$u20$as$u20$core..fmt..Write$GT$9write_str17h094611df1bd204b2E+0x1d0>
ffffff8000206e97: 66 0f 1f 84 00 00 00 00 00   	nopw	(%rax,%rax)
ffffff8000206ea0: 48 8d 78 07          	leaq	7(%rax), %rdi
ffffff8000206ea4: 48 83 e7 f8          	andq	$-8, %rdi
ffffff8000206ea8: 48 29 c7             	subq	%rax, %rdi
ffffff8000206eab: 49 b8 ff fe fe fe fe fe fe fe	movabsq	$-72340172838076673, %r8 # imm = 0xFEFEFEFEFEFEFEFF
ffffff8000206eb5: 49 b9 80 80 80 80 80 80 80 80	movabsq	$-9187201950435737472, %r9 # imm = 0x8080808080808080
ffffff8000206ebf: 49 ba 0a 0a 0a 0a 0a 0a 0a 0a	movabsq	$723401728380766730, %r10 # imm = 0xA0A0A0A0A0A0A0A
ffffff8000206ec9: 74 35                	je	0xffffff8000206f00 <_ZN68_$LT$core..fmt..builders..PadAdapter$u20$as$u20$core..fmt..Write$GT$9write_str17h094611df1bd204b2E+0x130>
ffffff8000206ecb: 48 39 f7             	cmpq	%rsi, %rdi
ffffff8000206ece: 48 0f 43 fe          	cmovaeq	%rsi, %rdi
ffffff8000206ed2: 48 85 ff             	testq	%rdi, %rdi
ffffff8000206ed5: 74 29                	je	0xffffff8000206f00 <_ZN68_$LT$core..fmt..builders..PadAdapter$u20$as$u20$core..fmt..Write$GT$9write_str17h094611df1bd204b2E+0x130>
ffffff8000206ed7: 31 c9                	xorl	%ecx, %ecx
ffffff8000206ed9: 0f 1f 80 00 00 00 00 	nopl	(%rax)
ffffff8000206ee0: 80 3c 08 0a          	cmpb	$10, (%rax,%rcx)
ffffff8000206ee4: 0f 84 89 00 00 00    	je	0xffffff8000206f73 <_ZN68_$LT$core..fmt..builders..PadAdapter$u20$as$u20$core..fmt..Write$GT$9write_str17h094611df1bd204b2E+0x1a3>
ffffff8000206eea: 48 ff c1             	incq	%rcx
ffffff8000206eed: 48 39 cf             	cmpq	%rcx, %rdi
ffffff8000206ef0: 75 ee                	jne	0xffffff8000206ee0 <_ZN68_$LT$core..fmt..builders..PadAdapter$u20$as$u20$core..fmt..Write$GT$9write_str17h094611df1bd204b2E+0x110>
ffffff8000206ef2: 48 8d 4e f0          	leaq	-16(%rsi), %rcx
ffffff8000206ef6: 48 39 cf             	cmpq	%rcx, %rdi
ffffff8000206ef9: 76 0b                	jbe	0xffffff8000206f06 <_ZN68_$LT$core..fmt..builders..PadAdapter$u20$as$u20$core..fmt..Write$GT$9write_str17h094611df1bd204b2E+0x136>
ffffff8000206efb: eb 56                	jmp	0xffffff8000206f53 <_ZN68_$LT$core..fmt..builders..PadAdapter$u20$as$u20$core..fmt..Write$GT$9write_str17h094611df1bd204b2E+0x183>
ffffff8000206efd: 0f 1f 00             	nopl	(%rax)
ffffff8000206f00: 48 8d 4e f0          	leaq	-16(%rsi), %rcx
ffffff8000206f04: 31 ff                	xorl	%edi, %edi
ffffff8000206f06: 48 8b 54 24 20       	movq	32(%rsp), %rdx
ffffff8000206f0b: 4c 01 f2             	addq	%r14, %rdx
ffffff8000206f0e: 66 90                	nop
ffffff8000206f10: 48 8b 6c 3a f8       	movq	-8(%rdx,%rdi), %rbp
ffffff8000206f15: 48 89 eb             	movq	%rbp, %rbx
ffffff8000206f18: 48 f7 d3             	notq	%rbx
ffffff8000206f1b: 4c 31 d5             	xorq	%r10, %rbp
ffffff8000206f1e: 4c 01 c5             	addq	%r8, %rbp
ffffff8000206f21: 4c 21 cb             	andq	%r9, %rbx
ffffff8000206f24: 48 85 eb             	testq	%rbp, %rbx
ffffff8000206f27: 75 21                	jne	0xffffff8000206f4a <_ZN68_$LT$core..fmt..builders..PadAdapter$u20$as$u20$core..fmt..Write$GT$9write_str17h094611df1bd204b2E+0x17a>
ffffff8000206f29: 48 8b 2c 3a          	movq	(%rdx,%rdi), %rbp
ffffff8000206f2d: 48 89 eb             	movq	%rbp, %rbx
ffffff8000206f30: 48 f7 d3             	notq	%rbx
ffffff8000206f33: 4c 31 d5             	xorq	%r10, %rbp
ffffff8000206f36: 4c 01 c5             	addq	%r8, %rbp
ffffff8000206f39: 4c 21 cb             	andq	%r9, %rbx
ffffff8000206f3c: 48 85 eb             	testq	%rbp, %rbx
ffffff8000206f3f: 75 09                	jne	0xffffff8000206f4a <_ZN68_$LT$core..fmt..builders..PadAdapter$u20$as$u20$core..fmt..Write$GT$9write_str17h094611df1bd204b2E+0x17a>
ffffff8000206f41: 48 83 c7 10          	addq	$16, %rdi
ffffff8000206f45: 48 39 cf             	cmpq	%rcx, %rdi
ffffff8000206f48: 76 c6                	jbe	0xffffff8000206f10 <_ZN68_$LT$core..fmt..builders..PadAdapter$u20$as$u20$core..fmt..Write$GT$9write_str17h094611df1bd204b2E+0x140>
ffffff8000206f4a: 48 39 f7             	cmpq	%rsi, %rdi
ffffff8000206f4d: 0f 87 cf 00 00 00    	ja	0xffffff8000207022 <_ZN68_$LT$core..fmt..builders..PadAdapter$u20$as$u20$core..fmt..Write$GT$9write_str17h094611df1bd204b2E+0x252>
ffffff8000206f53: 48 39 fe             	cmpq	%rdi, %rsi
ffffff8000206f56: 74 48                	je	0xffffff8000206fa0 <_ZN68_$LT$core..fmt..builders..PadAdapter$u20$as$u20$core..fmt..Write$GT$9write_str17h094611df1bd204b2E+0x1d0>
ffffff8000206f58: 0f 1f 84 00 00 00 00 00      	nopl	(%rax,%rax)
ffffff8000206f60: 80 3c 38 0a          	cmpb	$10, (%rax,%rdi)
ffffff8000206f64: 74 0a                	je	0xffffff8000206f70 <_ZN68_$LT$core..fmt..builders..PadAdapter$u20$as$u20$core..fmt..Write$GT$9write_str17h094611df1bd204b2E+0x1a0>
ffffff8000206f66: 48 ff c7             	incq	%rdi
ffffff8000206f69: 48 39 fe             	cmpq	%rdi, %rsi
ffffff8000206f6c: 75 f2                	jne	0xffffff8000206f60 <_ZN68_$LT$core..fmt..builders..PadAdapter$u20$as$u20$core..fmt..Write$GT$9write_str17h094611df1bd204b2E+0x190>
ffffff8000206f6e: eb 30                	jmp	0xffffff8000206fa0 <_ZN68_$LT$core..fmt..builders..PadAdapter$u20$as$u20$core..fmt..Write$GT$9write_str17h094611df1bd204b2E+0x1d0>
ffffff8000206f70: 48 89 f9             	movq	%rdi, %rcx
ffffff8000206f73: 4d 8d 3c 0e          	leaq	(%r14,%rcx), %r15
ffffff8000206f77: 49 ff c7             	incq	%r15
ffffff8000206f7a: 49 01 ce             	addq	%rcx, %r14
ffffff8000206f7d: 4d 39 e6             	cmpq	%r12, %r14
ffffff8000206f80: 73 0b                	jae	0xffffff8000206f8d <_ZN68_$LT$core..fmt..builders..PadAdapter$u20$as$u20$core..fmt..Write$GT$9write_str17h094611df1bd204b2E+0x1bd>
ffffff8000206f82: 48 8b 04 24          	movq	(%rsp), %rax
ffffff8000206f86: 42 80 3c 30 0a       	cmpb	$10, (%rax,%r14)
ffffff8000206f8b: 74 6c                	je	0xffffff8000206ff9 <_ZN68_$LT$core..fmt..builders..PadAdapter$u20$as$u20$core..fmt..Write$GT$9write_str17h094611df1bd204b2E+0x229>
ffffff8000206f8d: 4d 89 fe             	movq	%r15, %r14
ffffff8000206f90: 4d 39 e7             	cmpq	%r12, %r15
ffffff8000206f93: 0f 86 c7 fe ff ff    	jbe	0xffffff8000206e60 <_ZN68_$LT$core..fmt..builders..PadAdapter$u20$as$u20$core..fmt..Write$GT$9write_str17h094611df1bd204b2E+0x90>
ffffff8000206f99: eb 08                	jmp	0xffffff8000206fa3 <_ZN68_$LT$core..fmt..builders..PadAdapter$u20$as$u20$core..fmt..Write$GT$9write_str17h094611df1bd204b2E+0x1d3>
ffffff8000206f9b: 0f 1f 44 00 00       	nopl	(%rax,%rax)
ffffff8000206fa0: 4d 89 e7             	movq	%r12, %r15
ffffff8000206fa3: 4d 89 fe             	movq	%r15, %r14
ffffff8000206fa6: 40 b5 01             	movb	$1, %bpl
ffffff8000206fa9: 4d 89 ef             	movq	%r13, %r15
ffffff8000206fac: 4c 89 e3             	movq	%r12, %rbx
ffffff8000206faf: 4d 39 e5             	cmpq	%r12, %r13
ffffff8000206fb2: 74 59                	je	0xffffff800020700d <_ZN68_$LT$core..fmt..builders..PadAdapter$u20$as$u20$core..fmt..Write$GT$9write_str17h094611df1bd204b2E+0x23d>
ffffff8000206fb4: 48 8b 44 24 18       	movq	24(%rsp), %rax
ffffff8000206fb9: 80 38 00             	cmpb	$0, (%rax)
ffffff8000206fbc: 74 1d                	je	0xffffff8000206fdb <_ZN68_$LT$core..fmt..builders..PadAdapter$u20$as$u20$core..fmt..Write$GT$9write_str17h094611df1bd204b2E+0x20b>
ffffff8000206fbe: ba 04 00 00 00       	movl	$4, %edx
ffffff8000206fc3: 48 8b 7c 24 10       	movq	16(%rsp), %rdi
ffffff8000206fc8: 48 8d 35 59 2b 00 00 	leaq	11097(%rip), %rsi       # 0xffffff8000209b28 <trap_handler_table+0xb28>
ffffff8000206fcf: 48 8b 44 24 08       	movq	8(%rsp), %rax
ffffff8000206fd4: ff 50 18             	callq	*24(%rax)
ffffff8000206fd7: 84 c0                	testb	%al, %al
ffffff8000206fd9: 75 36                	jne	0xffffff8000207011 <_ZN68_$LT$core..fmt..builders..PadAdapter$u20$as$u20$core..fmt..Write$GT$9write_str17h094611df1bd204b2E+0x241>
ffffff8000206fdb: 48 89 da             	movq	%rbx, %rdx
ffffff8000206fde: 4c 29 ea             	subq	%r13, %rdx
ffffff8000206fe1: 48 8b 04 24          	movq	(%rsp), %rax
ffffff8000206fe5: 4a 8d 34 28          	leaq	(%rax,%r13), %rsi
ffffff8000206fe9: 4c 39 eb             	cmpq	%r13, %rbx
ffffff8000206fec: 0f 85 2e fe ff ff    	jne	0xffffff8000206e20 <_ZN68_$LT$core..fmt..builders..PadAdapter$u20$as$u20$core..fmt..Write$GT$9write_str17h094611df1bd204b2E+0x50>
ffffff8000206ff2: 31 c0                	xorl	%eax, %eax
ffffff8000206ff4: e9 2f fe ff ff       	jmp	0xffffff8000206e28 <_ZN68_$LT$core..fmt..builders..PadAdapter$u20$as$u20$core..fmt..Write$GT$9write_str17h094611df1bd204b2E+0x58>
ffffff8000206ff9: 31 ed                	xorl	%ebp, %ebp
ffffff8000206ffb: 4d 89 fe             	movq	%r15, %r14
ffffff8000206ffe: 4c 89 fb             	movq	%r15, %rbx
ffffff8000207001: 48 8b 44 24 18       	movq	24(%rsp), %rax
ffffff8000207006: 80 38 00             	cmpb	$0, (%rax)
ffffff8000207009: 75 b3                	jne	0xffffff8000206fbe <_ZN68_$LT$core..fmt..builders..PadAdapter$u20$as$u20$core..fmt..Write$GT$9write_str17h094611df1bd204b2E+0x1ee>
ffffff800020700b: eb ce                	jmp	0xffffff8000206fdb <_ZN68_$LT$core..fmt..builders..PadAdapter$u20$as$u20$core..fmt..Write$GT$9write_str17h094611df1bd204b2E+0x20b>
ffffff800020700d: 31 c0                	xorl	%eax, %eax
ffffff800020700f: eb 02                	jmp	0xffffff8000207013 <_ZN68_$LT$core..fmt..builders..PadAdapter$u20$as$u20$core..fmt..Write$GT$9write_str17h094611df1bd204b2E+0x243>
ffffff8000207011: b0 01                	movb	$1, %al
ffffff8000207013: 48 83 c4 28          	addq	$40, %rsp
ffffff8000207017: 5b                   	popq	%rbx
ffffff8000207018: 41 5c                	popq	%r12
ffffff800020701a: 41 5d                	popq	%r13
ffffff800020701c: 41 5e                	popq	%r14
ffffff800020701e: 41 5f                	popq	%r15
ffffff8000207020: 5d                   	popq	%rbp
ffffff8000207021: c3                   	retq
ffffff8000207022: 48 8d 15 0f 99 00 00 	leaq	39183(%rip), %rdx       # 0xffffff8000210938 <_ZN5axhal8platform6pc_x864time12CPU_FREQ_MHZ17hcbee90971ca93e77E.0+0x7b0>
ffffff8000207029: e8 c2 ea ff ff       	callq	0xffffff8000205af0 <_ZN4core5slice5index26slice_start_index_len_fail17h2bd13147effaa2ceE>
ffffff800020702e: 0f 0b                	ud2

ffffff8000207030 <_ZN4core3fmt5Write10write_char17h51594f28cb46c655E>:
ffffff8000207030: 50                   	pushq	%rax
ffffff8000207031: c7 44 24 04 00 00 00 00      	movl	$0, 4(%rsp)
ffffff8000207039: 81 fe 80 00 00 00    	cmpl	$128, %esi
ffffff800020703f: 73 16                	jae	0xffffff8000207057 <_ZN4core3fmt5Write10write_char17h51594f28cb46c655E+0x27>
ffffff8000207041: 40 88 74 24 04       	movb	%sil, 4(%rsp)
ffffff8000207046: ba 01 00 00 00       	movl	$1, %edx
ffffff800020704b: 48 8d 74 24 04       	leaq	4(%rsp), %rsi
ffffff8000207050: e8 7b fd ff ff       	callq	0xffffff8000206dd0 <_ZN68_$LT$core..fmt..builders..PadAdapter$u20$as$u20$core..fmt..Write$GT$9write_str17h094611df1bd204b2E>
ffffff8000207055: 59                   	popq	%rcx
ffffff8000207056: c3                   	retq
ffffff8000207057: 89 f0                	movl	%esi, %eax
ffffff8000207059: 81 fe 00 08 00 00    	cmpl	$2048, %esi             # imm = 0x800
ffffff800020705f: 73 27                	jae	0xffffff8000207088 <_ZN4core3fmt5Write10write_char17h51594f28cb46c655E+0x58>
ffffff8000207061: c1 e8 06             	shrl	$6, %eax
ffffff8000207064: 0c c0                	orb	$-64, %al
ffffff8000207066: 88 44 24 04          	movb	%al, 4(%rsp)
ffffff800020706a: 40 80 e6 3f          	andb	$63, %sil
ffffff800020706e: 40 80 ce 80          	orb	$-128, %sil
ffffff8000207072: 40 88 74 24 05       	movb	%sil, 5(%rsp)
ffffff8000207077: ba 02 00 00 00       	movl	$2, %edx
ffffff800020707c: 48 8d 74 24 04       	leaq	4(%rsp), %rsi
ffffff8000207081: e8 4a fd ff ff       	callq	0xffffff8000206dd0 <_ZN68_$LT$core..fmt..builders..PadAdapter$u20$as$u20$core..fmt..Write$GT$9write_str17h094611df1bd204b2E>
ffffff8000207086: 59                   	popq	%rcx
ffffff8000207087: c3                   	retq
ffffff8000207088: 81 fe 00 00 01 00    	cmpl	$65536, %esi            # imm = 0x10000
ffffff800020708e: 73 34                	jae	0xffffff80002070c4 <_ZN4core3fmt5Write10write_char17h51594f28cb46c655E+0x94>
ffffff8000207090: c1 e8 0c             	shrl	$12, %eax
ffffff8000207093: 0c e0                	orb	$-32, %al
ffffff8000207095: 88 44 24 04          	movb	%al, 4(%rsp)
ffffff8000207099: 89 f0                	movl	%esi, %eax
ffffff800020709b: c1 e8 06             	shrl	$6, %eax
ffffff800020709e: 24 3f                	andb	$63, %al
ffffff80002070a0: 0c 80                	orb	$-128, %al
ffffff80002070a2: 88 44 24 05          	movb	%al, 5(%rsp)
ffffff80002070a6: 40 80 e6 3f          	andb	$63, %sil
ffffff80002070aa: 40 80 ce 80          	orb	$-128, %sil
ffffff80002070ae: 40 88 74 24 06       	movb	%sil, 6(%rsp)
ffffff80002070b3: ba 03 00 00 00       	movl	$3, %edx
ffffff80002070b8: 48 8d 74 24 04       	leaq	4(%rsp), %rsi
ffffff80002070bd: e8 0e fd ff ff       	callq	0xffffff8000206dd0 <_ZN68_$LT$core..fmt..builders..PadAdapter$u20$as$u20$core..fmt..Write$GT$9write_str17h094611df1bd204b2E>
ffffff80002070c2: 59                   	popq	%rcx
ffffff80002070c3: c3                   	retq
ffffff80002070c4: c1 e8 12             	shrl	$18, %eax
ffffff80002070c7: 24 07                	andb	$7, %al
ffffff80002070c9: 0c f0                	orb	$-16, %al
ffffff80002070cb: 88 44 24 04          	movb	%al, 4(%rsp)
ffffff80002070cf: 89 f0                	movl	%esi, %eax
ffffff80002070d1: c1 e8 0c             	shrl	$12, %eax
ffffff80002070d4: 24 3f                	andb	$63, %al
ffffff80002070d6: 0c 80                	orb	$-128, %al
ffffff80002070d8: 88 44 24 05          	movb	%al, 5(%rsp)
ffffff80002070dc: 89 f0                	movl	%esi, %eax
ffffff80002070de: c1 e8 06             	shrl	$6, %eax
ffffff80002070e1: 24 3f                	andb	$63, %al
ffffff80002070e3: 0c 80                	orb	$-128, %al
ffffff80002070e5: 88 44 24 06          	movb	%al, 6(%rsp)
ffffff80002070e9: 40 80 e6 3f          	andb	$63, %sil
ffffff80002070ed: 40 80 ce 80          	orb	$-128, %sil
ffffff80002070f1: 40 88 74 24 07       	movb	%sil, 7(%rsp)
ffffff80002070f6: ba 04 00 00 00       	movl	$4, %edx
ffffff80002070fb: 48 8d 74 24 04       	leaq	4(%rsp), %rsi
ffffff8000207100: e8 cb fc ff ff       	callq	0xffffff8000206dd0 <_ZN68_$LT$core..fmt..builders..PadAdapter$u20$as$u20$core..fmt..Write$GT$9write_str17h094611df1bd204b2E>
ffffff8000207105: 59                   	popq	%rcx
ffffff8000207106: c3                   	retq
ffffff8000207107: cc                   	int3
ffffff8000207108: cc                   	int3
ffffff8000207109: cc                   	int3
ffffff800020710a: cc                   	int3
ffffff800020710b: cc                   	int3
ffffff800020710c: cc                   	int3
ffffff800020710d: cc                   	int3
ffffff800020710e: cc                   	int3
ffffff800020710f: cc                   	int3

ffffff8000207110 <_ZN4core3fmt5Write9write_fmt17h74f77c27d3903763E>:
ffffff8000207110: 48 83 ec 38          	subq	$56, %rsp
ffffff8000207114: 48 89 3c 24          	movq	%rdi, (%rsp)
ffffff8000207118: 48 8b 46 28          	movq	40(%rsi), %rax
ffffff800020711c: 48 89 44 24 30       	movq	%rax, 48(%rsp)
ffffff8000207121: 48 8b 46 20          	movq	32(%rsi), %rax
ffffff8000207125: 48 89 44 24 28       	movq	%rax, 40(%rsp)
ffffff800020712a: 48 8b 46 18          	movq	24(%rsi), %rax
ffffff800020712e: 48 89 44 24 20       	movq	%rax, 32(%rsp)
ffffff8000207133: 48 8b 46 10          	movq	16(%rsi), %rax
ffffff8000207137: 48 89 44 24 18       	movq	%rax, 24(%rsp)
ffffff800020713c: 48 8b 06             	movq	(%rsi), %rax
ffffff800020713f: 48 8b 4e 08          	movq	8(%rsi), %rcx
ffffff8000207143: 48 89 4c 24 10       	movq	%rcx, 16(%rsp)
ffffff8000207148: 48 89 44 24 08       	movq	%rax, 8(%rsp)
ffffff800020714d: 48 8d 35 84 97 00 00 	leaq	38788(%rip), %rsi       # 0xffffff80002108d8 <_ZN5axhal8platform6pc_x864time12CPU_FREQ_MHZ17hcbee90971ca93e77E.0+0x750>
ffffff8000207154: 48 89 e7             	movq	%rsp, %rdi
ffffff8000207157: 48 8d 54 24 08       	leaq	8(%rsp), %rdx
ffffff800020715c: e8 5f f2 ff ff       	callq	0xffffff80002063c0 <_ZN4core3fmt5write17h3e64ac24810c32e1E>
ffffff8000207161: 48 83 c4 38          	addq	$56, %rsp
ffffff8000207165: c3                   	retq
ffffff8000207166: cc                   	int3
ffffff8000207167: cc                   	int3
ffffff8000207168: cc                   	int3
ffffff8000207169: cc                   	int3
ffffff800020716a: cc                   	int3
ffffff800020716b: cc                   	int3
ffffff800020716c: cc                   	int3
ffffff800020716d: cc                   	int3
ffffff800020716e: cc                   	int3
ffffff800020716f: cc                   	int3

ffffff8000207170 <_ZN50_$LT$$RF$mut$u20$W$u20$as$u20$core..fmt..Write$GT$9write_str17h6c5cd5a0ba49edf5E>:
ffffff8000207170: 48 8b 3f             	movq	(%rdi), %rdi
ffffff8000207173: e9 58 fc ff ff       	jmp	0xffffff8000206dd0 <_ZN68_$LT$core..fmt..builders..PadAdapter$u20$as$u20$core..fmt..Write$GT$9write_str17h094611df1bd204b2E>
ffffff8000207178: cc                   	int3
ffffff8000207179: cc                   	int3
ffffff800020717a: cc                   	int3
ffffff800020717b: cc                   	int3
ffffff800020717c: cc                   	int3
ffffff800020717d: cc                   	int3
ffffff800020717e: cc                   	int3
ffffff800020717f: cc                   	int3

ffffff8000207180 <_ZN50_$LT$$RF$mut$u20$W$u20$as$u20$core..fmt..Write$GT$10write_char17h8bf3b8cf49744e4bE>:
ffffff8000207180: 50                   	pushq	%rax
ffffff8000207181: 48 8b 3f             	movq	(%rdi), %rdi
ffffff8000207184: c7 44 24 04 00 00 00 00      	movl	$0, 4(%rsp)
ffffff800020718c: 81 fe 80 00 00 00    	cmpl	$128, %esi
ffffff8000207192: 73 16                	jae	0xffffff80002071aa <_ZN50_$LT$$RF$mut$u20$W$u20$as$u20$core..fmt..Write$GT$10write_char17h8bf3b8cf49744e4bE+0x2a>
ffffff8000207194: 40 88 74 24 04       	movb	%sil, 4(%rsp)
ffffff8000207199: ba 01 00 00 00       	movl	$1, %edx
ffffff800020719e: 48 8d 74 24 04       	leaq	4(%rsp), %rsi
ffffff80002071a3: e8 28 fc ff ff       	callq	0xffffff8000206dd0 <_ZN68_$LT$core..fmt..builders..PadAdapter$u20$as$u20$core..fmt..Write$GT$9write_str17h094611df1bd204b2E>
ffffff80002071a8: 59                   	popq	%rcx
ffffff80002071a9: c3                   	retq
ffffff80002071aa: 89 f0                	movl	%esi, %eax
ffffff80002071ac: 81 fe 00 08 00 00    	cmpl	$2048, %esi             # imm = 0x800
ffffff80002071b2: 73 27                	jae	0xffffff80002071db <_ZN50_$LT$$RF$mut$u20$W$u20$as$u20$core..fmt..Write$GT$10write_char17h8bf3b8cf49744e4bE+0x5b>
ffffff80002071b4: c1 e8 06             	shrl	$6, %eax
ffffff80002071b7: 0c c0                	orb	$-64, %al
ffffff80002071b9: 88 44 24 04          	movb	%al, 4(%rsp)
ffffff80002071bd: 40 80 e6 3f          	andb	$63, %sil
ffffff80002071c1: 40 80 ce 80          	orb	$-128, %sil
ffffff80002071c5: 40 88 74 24 05       	movb	%sil, 5(%rsp)
ffffff80002071ca: ba 02 00 00 00       	movl	$2, %edx
ffffff80002071cf: 48 8d 74 24 04       	leaq	4(%rsp), %rsi
ffffff80002071d4: e8 f7 fb ff ff       	callq	0xffffff8000206dd0 <_ZN68_$LT$core..fmt..builders..PadAdapter$u20$as$u20$core..fmt..Write$GT$9write_str17h094611df1bd204b2E>
ffffff80002071d9: 59                   	popq	%rcx
ffffff80002071da: c3                   	retq
ffffff80002071db: 81 fe 00 00 01 00    	cmpl	$65536, %esi            # imm = 0x10000
ffffff80002071e1: 73 34                	jae	0xffffff8000207217 <_ZN50_$LT$$RF$mut$u20$W$u20$as$u20$core..fmt..Write$GT$10write_char17h8bf3b8cf49744e4bE+0x97>
ffffff80002071e3: c1 e8 0c             	shrl	$12, %eax
ffffff80002071e6: 0c e0                	orb	$-32, %al
ffffff80002071e8: 88 44 24 04          	movb	%al, 4(%rsp)
ffffff80002071ec: 89 f0                	movl	%esi, %eax
ffffff80002071ee: c1 e8 06             	shrl	$6, %eax
ffffff80002071f1: 24 3f                	andb	$63, %al
ffffff80002071f3: 0c 80                	orb	$-128, %al
ffffff80002071f5: 88 44 24 05          	movb	%al, 5(%rsp)
ffffff80002071f9: 40 80 e6 3f          	andb	$63, %sil
ffffff80002071fd: 40 80 ce 80          	orb	$-128, %sil
ffffff8000207201: 40 88 74 24 06       	movb	%sil, 6(%rsp)
ffffff8000207206: ba 03 00 00 00       	movl	$3, %edx
ffffff800020720b: 48 8d 74 24 04       	leaq	4(%rsp), %rsi
ffffff8000207210: e8 bb fb ff ff       	callq	0xffffff8000206dd0 <_ZN68_$LT$core..fmt..builders..PadAdapter$u20$as$u20$core..fmt..Write$GT$9write_str17h094611df1bd204b2E>
ffffff8000207215: 59                   	popq	%rcx
ffffff8000207216: c3                   	retq
ffffff8000207217: c1 e8 12             	shrl	$18, %eax
ffffff800020721a: 24 07                	andb	$7, %al
ffffff800020721c: 0c f0                	orb	$-16, %al
ffffff800020721e: 88 44 24 04          	movb	%al, 4(%rsp)
ffffff8000207222: 89 f0                	movl	%esi, %eax
ffffff8000207224: c1 e8 0c             	shrl	$12, %eax
ffffff8000207227: 24 3f                	andb	$63, %al
ffffff8000207229: 0c 80                	orb	$-128, %al
ffffff800020722b: 88 44 24 05          	movb	%al, 5(%rsp)
ffffff800020722f: 89 f0                	movl	%esi, %eax
ffffff8000207231: c1 e8 06             	shrl	$6, %eax
ffffff8000207234: 24 3f                	andb	$63, %al
ffffff8000207236: 0c 80                	orb	$-128, %al
ffffff8000207238: 88 44 24 06          	movb	%al, 6(%rsp)
ffffff800020723c: 40 80 e6 3f          	andb	$63, %sil
ffffff8000207240: 40 80 ce 80          	orb	$-128, %sil
ffffff8000207244: 40 88 74 24 07       	movb	%sil, 7(%rsp)
ffffff8000207249: ba 04 00 00 00       	movl	$4, %edx
ffffff800020724e: 48 8d 74 24 04       	leaq	4(%rsp), %rsi
ffffff8000207253: e8 78 fb ff ff       	callq	0xffffff8000206dd0 <_ZN68_$LT$core..fmt..builders..PadAdapter$u20$as$u20$core..fmt..Write$GT$9write_str17h094611df1bd204b2E>
ffffff8000207258: 59                   	popq	%rcx
ffffff8000207259: c3                   	retq
ffffff800020725a: cc                   	int3
ffffff800020725b: cc                   	int3
ffffff800020725c: cc                   	int3
ffffff800020725d: cc                   	int3
ffffff800020725e: cc                   	int3
ffffff800020725f: cc                   	int3

ffffff8000207260 <_ZN50_$LT$$RF$mut$u20$W$u20$as$u20$core..fmt..Write$GT$9write_fmt17h05b948b7296f43e5E>:
ffffff8000207260: 48 83 ec 38          	subq	$56, %rsp
ffffff8000207264: 48 8b 07             	movq	(%rdi), %rax
ffffff8000207267: 48 89 04 24          	movq	%rax, (%rsp)
ffffff800020726b: 48 8b 46 28          	movq	40(%rsi), %rax
ffffff800020726f: 48 89 44 24 30       	movq	%rax, 48(%rsp)
ffffff8000207274: 48 8b 46 20          	movq	32(%rsi), %rax
ffffff8000207278: 48 89 44 24 28       	movq	%rax, 40(%rsp)
ffffff800020727d: 48 8b 46 18          	movq	24(%rsi), %rax
ffffff8000207281: 48 89 44 24 20       	movq	%rax, 32(%rsp)
ffffff8000207286: 48 8b 46 10          	movq	16(%rsi), %rax
ffffff800020728a: 48 89 44 24 18       	movq	%rax, 24(%rsp)
ffffff800020728f: 48 8b 06             	movq	(%rsi), %rax
ffffff8000207292: 48 8b 4e 08          	movq	8(%rsi), %rcx
ffffff8000207296: 48 89 4c 24 10       	movq	%rcx, 16(%rsp)
ffffff800020729b: 48 89 44 24 08       	movq	%rax, 8(%rsp)
ffffff80002072a0: 48 8d 35 31 96 00 00 	leaq	38449(%rip), %rsi       # 0xffffff80002108d8 <_ZN5axhal8platform6pc_x864time12CPU_FREQ_MHZ17hcbee90971ca93e77E.0+0x750>
ffffff80002072a7: 48 89 e7             	movq	%rsp, %rdi
ffffff80002072aa: 48 8d 54 24 08       	leaq	8(%rsp), %rdx
ffffff80002072af: e8 0c f1 ff ff       	callq	0xffffff80002063c0 <_ZN4core3fmt5write17h3e64ac24810c32e1E>
ffffff80002072b4: 48 83 c4 38          	addq	$56, %rsp
ffffff80002072b8: c3                   	retq
ffffff80002072b9: cc                   	int3
ffffff80002072ba: cc                   	int3
ffffff80002072bb: cc                   	int3
ffffff80002072bc: cc                   	int3
ffffff80002072bd: cc                   	int3
ffffff80002072be: cc                   	int3
ffffff80002072bf: cc                   	int3

ffffff80002072c0 <_ZN4core3fmt8builders10DebugTuple5field17hd21dd5678d410a30E>:
ffffff80002072c0: 41 57                	pushq	%r15
ffffff80002072c2: 41 56                	pushq	%r14
ffffff80002072c4: 41 55                	pushq	%r13
ffffff80002072c6: 41 54                	pushq	%r12
ffffff80002072c8: 53                   	pushq	%rbx
ffffff80002072c9: 48 83 ec 60          	subq	$96, %rsp
ffffff80002072cd: 48 89 fb             	movq	%rdi, %rbx
ffffff80002072d0: 80 7f 10 00          	cmpb	$0, 16(%rdi)
ffffff80002072d4: 74 1f                	je	0xffffff80002072f5 <_ZN4core3fmt8builders10DebugTuple5field17hd21dd5678d410a30E+0x35>
ffffff80002072d6: 4c 8b 2b             	movq	(%rbx), %r13
ffffff80002072d9: b0 01                	movb	$1, %al
ffffff80002072db: 88 43 10             	movb	%al, 16(%rbx)
ffffff80002072de: 49 ff c5             	incq	%r13
ffffff80002072e1: 4c 89 2b             	movq	%r13, (%rbx)
ffffff80002072e4: 48 89 d8             	movq	%rbx, %rax
ffffff80002072e7: 48 83 c4 60          	addq	$96, %rsp
ffffff80002072eb: 5b                   	popq	%rbx
ffffff80002072ec: 41 5c                	popq	%r12
ffffff80002072ee: 41 5d                	popq	%r13
ffffff80002072f0: 41 5e                	popq	%r14
ffffff80002072f2: 41 5f                	popq	%r15
ffffff80002072f4: c3                   	retq
ffffff80002072f5: 49 89 d6             	movq	%rdx, %r14
ffffff80002072f8: 49 89 f7             	movq	%rsi, %r15
ffffff80002072fb: 4c 8b 2b             	movq	(%rbx), %r13
ffffff80002072fe: 4c 8b 63 08          	movq	8(%rbx), %r12
ffffff8000207302: 41 8b 44 24 30       	movl	48(%r12), %eax
ffffff8000207307: a8 04                	testb	$4, %al
ffffff8000207309: 75 41                	jne	0xffffff800020734c <_ZN4core3fmt8builders10DebugTuple5field17hd21dd5678d410a30E+0x8c>
ffffff800020730b: 31 c0                	xorl	%eax, %eax
ffffff800020730d: 4d 85 ed             	testq	%r13, %r13
ffffff8000207310: 0f 94 c0             	sete	%al
ffffff8000207313: 48 8d 0d 17 30 00 00 	leaq	12311(%rip), %rcx       # 0xffffff800020a331 <str.0+0x611>
ffffff800020731a: 48 8d 35 06 30 00 00 	leaq	12294(%rip), %rsi       # 0xffffff800020a327 <str.0+0x607>
ffffff8000207321: 48 0f 44 f1          	cmoveq	%rcx, %rsi
ffffff8000207325: ba 02 00 00 00       	movl	$2, %edx
ffffff800020732a: 48 29 c2             	subq	%rax, %rdx
ffffff800020732d: 49 8b 3c 24          	movq	(%r12), %rdi
ffffff8000207331: 49 8b 44 24 08       	movq	8(%r12), %rax
ffffff8000207336: ff 50 18             	callq	*24(%rax)
ffffff8000207339: 89 c1                	movl	%eax, %ecx
ffffff800020733b: b0 01                	movb	$1, %al
ffffff800020733d: 84 c9                	testb	%cl, %cl
ffffff800020733f: 75 9a                	jne	0xffffff80002072db <_ZN4core3fmt8builders10DebugTuple5field17hd21dd5678d410a30E+0x1b>
ffffff8000207341: 4c 89 ff             	movq	%r15, %rdi
ffffff8000207344: 4c 89 e6             	movq	%r12, %rsi
ffffff8000207347: 41 ff d6             	callq	*%r14
ffffff800020734a: eb 8f                	jmp	0xffffff80002072db <_ZN4core3fmt8builders10DebugTuple5field17hd21dd5678d410a30E+0x1b>
ffffff800020734c: 4d 85 ed             	testq	%r13, %r13
ffffff800020734f: 75 2b                	jne	0xffffff800020737c <_ZN4core3fmt8builders10DebugTuple5field17hd21dd5678d410a30E+0xbc>
ffffff8000207351: 49 8b 3c 24          	movq	(%r12), %rdi
ffffff8000207355: 49 8b 44 24 08       	movq	8(%r12), %rax
ffffff800020735a: 48 8d 35 ce 2f 00 00 	leaq	12238(%rip), %rsi       # 0xffffff800020a32f <str.0+0x60f>
ffffff8000207361: ba 02 00 00 00       	movl	$2, %edx
ffffff8000207366: ff 50 18             	callq	*24(%rax)
ffffff8000207369: 84 c0                	testb	%al, %al
ffffff800020736b: 74 0a                	je	0xffffff8000207377 <_ZN4core3fmt8builders10DebugTuple5field17hd21dd5678d410a30E+0xb7>
ffffff800020736d: b0 01                	movb	$1, %al
ffffff800020736f: 45 31 ed             	xorl	%r13d, %r13d
ffffff8000207372: e9 64 ff ff ff       	jmp	0xffffff80002072db <_ZN4core3fmt8builders10DebugTuple5field17hd21dd5678d410a30E+0x1b>
ffffff8000207377: 41 8b 44 24 30       	movl	48(%r12), %eax
ffffff800020737c: c6 44 24 07 01       	movb	$1, 7(%rsp)
ffffff8000207381: 49 8b 0c 24          	movq	(%r12), %rcx
ffffff8000207385: 49 8b 54 24 08       	movq	8(%r12), %rdx
ffffff800020738a: 48 89 4c 24 48       	movq	%rcx, 72(%rsp)
ffffff800020738f: 48 89 54 24 50       	movq	%rdx, 80(%rsp)
ffffff8000207394: 48 8d 4c 24 07       	leaq	7(%rsp), %rcx
ffffff8000207399: 48 89 4c 24 58       	movq	%rcx, 88(%rsp)
ffffff800020739e: 41 8b 4c 24 34       	movl	52(%r12), %ecx
ffffff80002073a3: 41 0f b6 54 24 38    	movzbl	56(%r12), %edx
ffffff80002073a9: 49 8b 74 24 10       	movq	16(%r12), %rsi
ffffff80002073ae: 49 8b 7c 24 18       	movq	24(%r12), %rdi
ffffff80002073b3: 4d 8b 44 24 20       	movq	32(%r12), %r8
ffffff80002073b8: 4d 8b 4c 24 28       	movq	40(%r12), %r9
ffffff80002073bd: 89 44 24 38          	movl	%eax, 56(%rsp)
ffffff80002073c1: 89 4c 24 3c          	movl	%ecx, 60(%rsp)
ffffff80002073c5: 88 54 24 40          	movb	%dl, 64(%rsp)
ffffff80002073c9: 48 89 74 24 18       	movq	%rsi, 24(%rsp)
ffffff80002073ce: 48 89 7c 24 20       	movq	%rdi, 32(%rsp)
ffffff80002073d3: 4c 89 44 24 28       	movq	%r8, 40(%rsp)
ffffff80002073d8: 4c 89 4c 24 30       	movq	%r9, 48(%rsp)
ffffff80002073dd: 48 8d 44 24 48       	leaq	72(%rsp), %rax
ffffff80002073e2: 48 89 44 24 08       	movq	%rax, 8(%rsp)
ffffff80002073e7: 48 8d 05 a2 94 00 00 	leaq	38050(%rip), %rax       # 0xffffff8000210890 <_ZN5axhal8platform6pc_x864time12CPU_FREQ_MHZ17hcbee90971ca93e77E.0+0x708>
ffffff80002073ee: 48 89 44 24 10       	movq	%rax, 16(%rsp)
ffffff80002073f3: 48 8d 74 24 08       	leaq	8(%rsp), %rsi
ffffff80002073f8: 4c 89 ff             	movq	%r15, %rdi
ffffff80002073fb: 41 ff d6             	callq	*%r14
ffffff80002073fe: 84 c0                	testb	%al, %al
ffffff8000207400: 0f 85 d3 fe ff ff    	jne	0xffffff80002072d9 <_ZN4core3fmt8builders10DebugTuple5field17hd21dd5678d410a30E+0x19>
ffffff8000207406: 48 8b 7c 24 08       	movq	8(%rsp), %rdi
ffffff800020740b: 48 8b 44 24 10       	movq	16(%rsp), %rax
ffffff8000207410: 48 8d 35 0e 2f 00 00 	leaq	12046(%rip), %rsi       # 0xffffff800020a325 <str.0+0x605>
ffffff8000207417: ba 02 00 00 00       	movl	$2, %edx
ffffff800020741c: ff 50 18             	callq	*24(%rax)
ffffff800020741f: e9 b7 fe ff ff       	jmp	0xffffff80002072db <_ZN4core3fmt8builders10DebugTuple5field17hd21dd5678d410a30E+0x1b>
ffffff8000207424: cc                   	int3
ffffff8000207425: cc                   	int3
ffffff8000207426: cc                   	int3
ffffff8000207427: cc                   	int3
ffffff8000207428: cc                   	int3
ffffff8000207429: cc                   	int3
ffffff800020742a: cc                   	int3
ffffff800020742b: cc                   	int3
ffffff800020742c: cc                   	int3
ffffff800020742d: cc                   	int3
ffffff800020742e: cc                   	int3
ffffff800020742f: cc                   	int3

ffffff8000207430 <_ZN57_$LT$core..fmt..Arguments$u20$as$u20$core..fmt..Debug$GT$3fmt17h0b4deac70b97a53dE>:
ffffff8000207430: 48 83 ec 38          	subq	$56, %rsp
ffffff8000207434: 48 8b 06             	movq	(%rsi), %rax
ffffff8000207437: 48 8b 76 08          	movq	8(%rsi), %rsi
ffffff800020743b: 48 8b 4f 28          	movq	40(%rdi), %rcx
ffffff800020743f: 48 89 4c 24 30       	movq	%rcx, 48(%rsp)
ffffff8000207444: 48 8b 4f 20          	movq	32(%rdi), %rcx
ffffff8000207448: 48 89 4c 24 28       	movq	%rcx, 40(%rsp)
ffffff800020744d: 48 8b 4f 18          	movq	24(%rdi), %rcx
ffffff8000207451: 48 89 4c 24 20       	movq	%rcx, 32(%rsp)
ffffff8000207456: 48 8b 4f 10          	movq	16(%rdi), %rcx
ffffff800020745a: 48 89 4c 24 18       	movq	%rcx, 24(%rsp)
ffffff800020745f: 48 8b 0f             	movq	(%rdi), %rcx
ffffff8000207462: 48 8b 57 08          	movq	8(%rdi), %rdx
ffffff8000207466: 48 89 54 24 10       	movq	%rdx, 16(%rsp)
ffffff800020746b: 48 89 4c 24 08       	movq	%rcx, 8(%rsp)
ffffff8000207470: 48 8d 54 24 08       	leaq	8(%rsp), %rdx
ffffff8000207475: 48 89 c7             	movq	%rax, %rdi
ffffff8000207478: e8 43 ef ff ff       	callq	0xffffff80002063c0 <_ZN4core3fmt5write17h3e64ac24810c32e1E>
ffffff800020747d: 48 83 c4 38          	addq	$56, %rsp
ffffff8000207481: c3                   	retq
ffffff8000207482: cc                   	int3
ffffff8000207483: cc                   	int3
ffffff8000207484: cc                   	int3
ffffff8000207485: cc                   	int3
ffffff8000207486: cc                   	int3
ffffff8000207487: cc                   	int3
ffffff8000207488: cc                   	int3
ffffff8000207489: cc                   	int3
ffffff800020748a: cc                   	int3
ffffff800020748b: cc                   	int3
ffffff800020748c: cc                   	int3
ffffff800020748d: cc                   	int3
ffffff800020748e: cc                   	int3
ffffff800020748f: cc                   	int3

ffffff8000207490 <_ZN4core3str16slice_error_fail17h6c2f4383cb1ee393E>:
ffffff8000207490: 50                   	pushq	%rax
ffffff8000207491: e8 8a 03 00 00       	callq	0xffffff8000207820 <_ZN4core3str19slice_error_fail_rt17h8dbd833ad14dcedbE>
ffffff8000207496: 0f 0b                	ud2
ffffff8000207498: cc                   	int3
ffffff8000207499: cc                   	int3
ffffff800020749a: cc                   	int3
ffffff800020749b: cc                   	int3
ffffff800020749c: cc                   	int3
ffffff800020749d: cc                   	int3
ffffff800020749e: cc                   	int3
ffffff800020749f: cc                   	int3

ffffff80002074a0 <_ZN4core7unicode12unicode_data15grapheme_extend6lookup17h7fa976c0a05ab13eE>:
ffffff80002074a0: 50                   	pushq	%rax
ffffff80002074a1: 41 89 fa             	movl	%edi, %r10d
ffffff80002074a4: 41 c1 e2 0b          	shll	$11, %r10d
ffffff80002074a8: b8 21 00 00 00       	movl	$33, %eax
ffffff80002074ad: 31 d2                	xorl	%edx, %edx
ffffff80002074af: 4c 8d 05 1e 37 00 00 	leaq	14110(%rip), %r8        # 0xffffff800020abd4 <_ZN4core7unicode12unicode_data15grapheme_extend17SHORT_OFFSET_RUNS17h846696f24a2b7e51E>
ffffff80002074b6: 41 b9 ff 00 00 00    	movl	$255, %r9d
ffffff80002074bc: 41 bb 21 00 00 00    	movl	$33, %r11d
ffffff80002074c2: eb 14                	jmp	0xffffff80002074d8 <_ZN4core7unicode12unicode_data15grapheme_extend6lookup17h7fa976c0a05ab13eE+0x38>
ffffff80002074c4: 66 66 66 2e 0f 1f 84 00 00 00 00 00  	nopw	%cs:(%rax,%rax)
ffffff80002074d0: 49 89 c3             	movq	%rax, %r11
ffffff80002074d3: 48 29 d0             	subq	%rdx, %rax
ffffff80002074d6: 76 3a                	jbe	0xffffff8000207512 <_ZN4core7unicode12unicode_data15grapheme_extend6lookup17h7fa976c0a05ab13eE+0x72>
ffffff80002074d8: 48 d1 e8             	shrq	%rax
ffffff80002074db: 48 01 d0             	addq	%rdx, %rax
ffffff80002074de: 41 8b 0c 80          	movl	(%r8,%rax,4), %ecx
ffffff80002074e2: c1 e1 0b             	shll	$11, %ecx
ffffff80002074e5: 31 f6                	xorl	%esi, %esi
ffffff80002074e7: 44 39 d1             	cmpl	%r10d, %ecx
ffffff80002074ea: 40 0f 95 c6          	setne	%sil
ffffff80002074ee: 41 0f 42 f1          	cmovbl	%r9d, %esi
ffffff80002074f2: 40 80 fe 01          	cmpb	$1, %sil
ffffff80002074f6: 74 d8                	je	0xffffff80002074d0 <_ZN4core7unicode12unicode_data15grapheme_extend6lookup17h7fa976c0a05ab13eE+0x30>
ffffff80002074f8: 40 0f b6 ce          	movzbl	%sil, %ecx
ffffff80002074fc: 48 ff c0             	incq	%rax
ffffff80002074ff: 48 89 c2             	movq	%rax, %rdx
ffffff8000207502: 81 f9 ff 00 00 00    	cmpl	$255, %ecx
ffffff8000207508: 75 08                	jne	0xffffff8000207512 <_ZN4core7unicode12unicode_data15grapheme_extend6lookup17h7fa976c0a05ab13eE+0x72>
ffffff800020750a: 4c 89 d8             	movq	%r11, %rax
ffffff800020750d: 48 29 d0             	subq	%rdx, %rax
ffffff8000207510: 77 c6                	ja	0xffffff80002074d8 <_ZN4core7unicode12unicode_data15grapheme_extend6lookup17h7fa976c0a05ab13eE+0x38>
ffffff8000207512: 48 83 fa 20          	cmpq	$32, %rdx
ffffff8000207516: 0f 87 a7 00 00 00    	ja	0xffffff80002075c3 <_ZN4core7unicode12unicode_data15grapheme_extend6lookup17h7fa976c0a05ab13eE+0x123>
ffffff800020751c: 41 8b 04 90          	movl	(%r8,%rdx,4), %eax
ffffff8000207520: 48 c1 e8 15          	shrq	$21, %rax
ffffff8000207524: 41 b9 d7 02 00 00    	movl	$727, %r9d              # imm = 0x2D7
ffffff800020752a: 48 83 fa 20          	cmpq	$32, %rdx
ffffff800020752e: 74 0e                	je	0xffffff800020753e <_ZN4core7unicode12unicode_data15grapheme_extend6lookup17h7fa976c0a05ab13eE+0x9e>
ffffff8000207530: 45 8b 4c 90 04       	movl	4(%r8,%rdx,4), %r9d
ffffff8000207535: 49 c1 e9 15          	shrq	$21, %r9
ffffff8000207539: 48 85 d2             	testq	%rdx, %rdx
ffffff800020753c: 74 5c                	je	0xffffff800020759a <_ZN4core7unicode12unicode_data15grapheme_extend6lookup17h7fa976c0a05ab13eE+0xfa>
ffffff800020753e: b9 ff ff 1f 00       	movl	$2097151, %ecx          # imm = 0x1FFFFF
ffffff8000207543: 41 23 4c 90 fc       	andl	-4(%r8,%rdx,4), %ecx
ffffff8000207548: ba 01 00 00 00       	movl	$1, %edx
ffffff800020754d: 85 d2                	testl	%edx, %edx
ffffff800020754f: 0f 44 ca             	cmovel	%edx, %ecx
ffffff8000207552: 48 89 c2             	movq	%rax, %rdx
ffffff8000207555: 48 f7 d2             	notq	%rdx
ffffff8000207558: 4c 01 ca             	addq	%r9, %rdx
ffffff800020755b: 74 32                	je	0xffffff800020758f <_ZN4core7unicode12unicode_data15grapheme_extend6lookup17h7fa976c0a05ab13eE+0xef>
ffffff800020755d: 29 cf                	subl	%ecx, %edi
ffffff800020755f: 49 ff c9             	decq	%r9
ffffff8000207562: 31 c9                	xorl	%ecx, %ecx
ffffff8000207564: 4c 8d 05 ed 36 00 00 	leaq	14061(%rip), %r8        # 0xffffff800020ac58 <_ZN4core7unicode12unicode_data15grapheme_extend7OFFSETS17ha79b4a14ed4d5bccE>
ffffff800020756b: 48 89 c2             	movq	%rax, %rdx
ffffff800020756e: 66 90                	nop
ffffff8000207570: 48 81 fa d6 02 00 00 	cmpq	$726, %rdx              # imm = 0x2D6
ffffff8000207577: 77 25                	ja	0xffffff800020759e <_ZN4core7unicode12unicode_data15grapheme_extend6lookup17h7fa976c0a05ab13eE+0xfe>
ffffff8000207579: 42 0f b6 34 02       	movzbl	(%rdx,%r8), %esi
ffffff800020757e: 01 f1                	addl	%esi, %ecx
ffffff8000207580: 39 f9                	cmpl	%edi, %ecx
ffffff8000207582: 77 0f                	ja	0xffffff8000207593 <_ZN4core7unicode12unicode_data15grapheme_extend6lookup17h7fa976c0a05ab13eE+0xf3>
ffffff8000207584: 48 ff c2             	incq	%rdx
ffffff8000207587: 49 39 d1             	cmpq	%rdx, %r9
ffffff800020758a: 75 e4                	jne	0xffffff8000207570 <_ZN4core7unicode12unicode_data15grapheme_extend6lookup17h7fa976c0a05ab13eE+0xd0>
ffffff800020758c: 4c 89 c8             	movq	%r9, %rax
ffffff800020758f: 24 01                	andb	$1, %al
ffffff8000207591: 59                   	popq	%rcx
ffffff8000207592: c3                   	retq
ffffff8000207593: 48 89 d0             	movq	%rdx, %rax
ffffff8000207596: 24 01                	andb	$1, %al
ffffff8000207598: 59                   	popq	%rcx
ffffff8000207599: c3                   	retq
ffffff800020759a: 31 d2                	xorl	%edx, %edx
ffffff800020759c: eb af                	jmp	0xffffff800020754d <_ZN4core7unicode12unicode_data15grapheme_extend6lookup17h7fa976c0a05ab13eE+0xad>
ffffff800020759e: 48 3d d8 02 00 00    	cmpq	$728, %rax              # imm = 0x2D8
ffffff80002075a4: b9 d7 02 00 00       	movl	$727, %ecx              # imm = 0x2D7
ffffff80002075a9: 48 0f 42 c1          	cmovbq	%rcx, %rax
ffffff80002075ad: 48 8d 15 1c 95 00 00 	leaq	38172(%rip), %rdx       # 0xffffff8000210ad0 <_ZN5axhal8platform6pc_x864time12CPU_FREQ_MHZ17hcbee90971ca93e77E.0+0x948>
ffffff80002075b4: be d7 02 00 00       	movl	$727, %esi              # imm = 0x2D7
ffffff80002075b9: 48 89 c7             	movq	%rax, %rdi
ffffff80002075bc: e8 0f e0 ff ff       	callq	0xffffff80002055d0 <_ZN4core9panicking18panic_bounds_check17hbf0f76b280770d4fE>
ffffff80002075c1: 0f 0b                	ud2
ffffff80002075c3: 48 8d 15 ee 94 00 00 	leaq	38126(%rip), %rdx       # 0xffffff8000210ab8 <_ZN5axhal8platform6pc_x864time12CPU_FREQ_MHZ17hcbee90971ca93e77E.0+0x930>
ffffff80002075ca: bf 21 00 00 00       	movl	$33, %edi
ffffff80002075cf: be 21 00 00 00       	movl	$33, %esi
ffffff80002075d4: e8 f7 df ff ff       	callq	0xffffff80002055d0 <_ZN4core9panicking18panic_bounds_check17hbf0f76b280770d4fE>
ffffff80002075d9: 0f 0b                	ud2
ffffff80002075db: cc                   	int3
ffffff80002075dc: cc                   	int3
ffffff80002075dd: cc                   	int3
ffffff80002075de: cc                   	int3
ffffff80002075df: cc                   	int3

ffffff80002075e0 <_ZN4core7unicode9printable12is_printable17h1cea438ea4fda24bE>:
ffffff80002075e0: 50                   	pushq	%rax
ffffff80002075e1: 83 ff 20             	cmpl	$32, %edi
ffffff80002075e4: 73 04                	jae	0xffffff80002075ea <_ZN4core7unicode9printable12is_printable17h1cea438ea4fda24bE+0xa>
ffffff80002075e6: 31 c0                	xorl	%eax, %eax
ffffff80002075e8: 59                   	popq	%rcx
ffffff80002075e9: c3                   	retq
ffffff80002075ea: b0 01                	movb	$1, %al
ffffff80002075ec: 83 ff 7f             	cmpl	$127, %edi
ffffff80002075ef: 73 02                	jae	0xffffff80002075f3 <_ZN4core7unicode9printable12is_printable17h1cea438ea4fda24bE+0x13>
ffffff80002075f1: 59                   	popq	%rcx
ffffff80002075f2: c3                   	retq
ffffff80002075f3: 81 ff 00 00 01 00    	cmpl	$65536, %edi            # imm = 0x10000
ffffff80002075f9: 73 2f                	jae	0xffffff800020762a <_ZN4core7unicode9printable12is_printable17h1cea438ea4fda24bE+0x4a>
ffffff80002075fb: 48 c7 04 24 2f 01 00 00      	movq	$303, (%rsp)    # imm = 0x12F
ffffff8000207603: 48 8d 35 20 30 00 00 	leaq	12320(%rip), %rsi       # 0xffffff800020a62a <str.0+0x90a>
ffffff800020760a: 48 8d 0d 69 30 00 00 	leaq	12393(%rip), %rcx       # 0xffffff800020a67a <str.0+0x95a>
ffffff8000207611: 4c 8d 0d 81 31 00 00 	leaq	12673(%rip), %r9        # 0xffffff800020a799 <str.0+0xa79>
ffffff8000207618: ba 28 00 00 00       	movl	$40, %edx
ffffff800020761d: 41 b8 1f 01 00 00    	movl	$287, %r8d              # imm = 0x11F
ffffff8000207623: e8 d8 00 00 00       	callq	0xffffff8000207700 <_ZN4core7unicode9printable5check17hc7a5da0bcc4e4701E>
ffffff8000207628: 59                   	popq	%rcx
ffffff8000207629: c3                   	retq
ffffff800020762a: 81 ff 00 00 02 00    	cmpl	$131072, %edi           # imm = 0x20000
ffffff8000207630: 73 2f                	jae	0xffffff8000207661 <_ZN4core7unicode9printable12is_printable17h1cea438ea4fda24bE+0x81>
ffffff8000207632: 48 c7 04 24 c2 01 00 00      	movq	$450, (%rsp)    # imm = 0x1C2
ffffff800020763a: 48 8d 35 87 32 00 00 	leaq	12935(%rip), %rsi       # 0xffffff800020a8c8 <str.0+0xba8>
ffffff8000207641: 48 8d 0d d8 32 00 00 	leaq	13016(%rip), %rcx       # 0xffffff800020a920 <str.0+0xc00>
ffffff8000207648: 4c 8d 0d 95 33 00 00 	leaq	13205(%rip), %r9        # 0xffffff800020a9e4 <str.0+0xcc4>
ffffff800020764f: ba 2c 00 00 00       	movl	$44, %edx
ffffff8000207654: 41 b8 c4 00 00 00    	movl	$196, %r8d
ffffff800020765a: e8 a1 00 00 00       	callq	0xffffff8000207700 <_ZN4core7unicode9printable5check17hc7a5da0bcc4e4701E>
ffffff800020765f: 59                   	popq	%rcx
ffffff8000207660: c3                   	retq
ffffff8000207661: 8d 8f 50 dc fc ff    	leal	-205744(%rdi), %ecx
ffffff8000207667: 31 c0                	xorl	%eax, %eax
ffffff8000207669: 81 f9 50 dd 0a 00    	cmpl	$712016, %ecx           # imm = 0xADD50
ffffff800020766f: 72 80                	jb	0xffffff80002075f1 <_ZN4core7unicode9printable12is_printable17h1cea438ea4fda24bE+0x11>
ffffff8000207671: 8d 8f b5 ec fc ff    	leal	-201547(%rdi), %ecx
ffffff8000207677: 83 f9 05             	cmpl	$5, %ecx
ffffff800020767a: 0f 82 71 ff ff ff    	jb	0xffffff80002075f1 <_ZN4core7unicode9printable12is_printable17h1cea438ea4fda24bE+0x11>
ffffff8000207680: 8d 8f e2 05 fd ff    	leal	-195102(%rdi), %ecx
ffffff8000207686: 81 f9 e2 05 00 00    	cmpl	$1506, %ecx             # imm = 0x5E2
ffffff800020768c: 0f 82 5f ff ff ff    	jb	0xffffff80002075f1 <_ZN4core7unicode9printable12is_printable17h1cea438ea4fda24bE+0x11>
ffffff8000207692: 8d 8f 1f 14 fd ff    	leal	-191457(%rdi), %ecx
ffffff8000207698: 81 f9 1f 0c 00 00    	cmpl	$3103, %ecx             # imm = 0xC1F
ffffff800020769e: 0f 82 4d ff ff ff    	jb	0xffffff80002075f1 <_ZN4core7unicode9printable12is_printable17h1cea438ea4fda24bE+0x11>
ffffff80002076a4: 8d 8f 5e 31 fd ff    	leal	-183970(%rdi), %ecx
ffffff80002076aa: 83 f9 0e             	cmpl	$14, %ecx
ffffff80002076ad: 0f 82 3e ff ff ff    	jb	0xffffff80002075f1 <_ZN4core7unicode9printable12is_printable17h1cea438ea4fda24bE+0x11>
ffffff80002076b3: 89 f9                	movl	%edi, %ecx
ffffff80002076b5: 83 e1 fe             	andl	$-2, %ecx
ffffff80002076b8: 81 f9 1e b8 02 00    	cmpl	$178206, %ecx           # imm = 0x2B81E
ffffff80002076be: 0f 84 2d ff ff ff    	je	0xffffff80002075f1 <_ZN4core7unicode9printable12is_printable17h1cea438ea4fda24bE+0x11>
ffffff80002076c4: 89 f9                	movl	%edi, %ecx
ffffff80002076c6: 83 e1 e0             	andl	$-32, %ecx
ffffff80002076c9: 81 f9 e0 a6 02 00    	cmpl	$173792, %ecx           # imm = 0x2A6E0
ffffff80002076cf: 0f 84 1c ff ff ff    	je	0xffffff80002075f1 <_ZN4core7unicode9printable12is_printable17h1cea438ea4fda24bE+0x11>
ffffff80002076d5: 8d 8f c6 48 fd ff    	leal	-177978(%rdi), %ecx
ffffff80002076db: 83 f9 06             	cmpl	$6, %ecx
ffffff80002076de: 0f 82 0d ff ff ff    	jb	0xffffff80002075f1 <_ZN4core7unicode9printable12is_printable17h1cea438ea4fda24bE+0x11>
ffffff80002076e4: 81 c7 00 00 ef ff    	addl	$4293853184, %edi       # imm = 0xFFEF0000
ffffff80002076ea: 81 ff f0 01 fd ff    	cmpl	$4294771184, %edi       # imm = 0xFFFD01F0
ffffff80002076f0: 0f 92 c0             	setb	%al
ffffff80002076f3: 59                   	popq	%rcx
ffffff80002076f4: c3                   	retq
ffffff80002076f5: cc                   	int3
ffffff80002076f6: cc                   	int3
ffffff80002076f7: cc                   	int3
ffffff80002076f8: cc                   	int3
ffffff80002076f9: cc                   	int3
ffffff80002076fa: cc                   	int3
ffffff80002076fb: cc                   	int3
ffffff80002076fc: cc                   	int3
ffffff80002076fd: cc                   	int3
ffffff80002076fe: cc                   	int3
ffffff80002076ff: cc                   	int3

ffffff8000207700 <_ZN4core7unicode9printable5check17hc7a5da0bcc4e4701E>:
ffffff8000207700: 55                   	pushq	%rbp
ffffff8000207701: 41 57                	pushq	%r15
ffffff8000207703: 41 56                	pushq	%r14
ffffff8000207705: 53                   	pushq	%rbx
ffffff8000207706: 50                   	pushq	%rax
ffffff8000207707: 4c 8b 5c 24 30       	movq	48(%rsp), %r11
ffffff800020770c: 41 89 ff             	movl	%edi, %r15d
ffffff800020770f: 41 c1 ef 08          	shrl	$8, %r15d
ffffff8000207713: 4c 8d 34 56          	leaq	(%rsi,%rdx,2), %r14
ffffff8000207717: 31 c0                	xorl	%eax, %eax
ffffff8000207719: 48 89 f3             	movq	%rsi, %rbx
ffffff800020771c: 0f b6 56 01          	movzbl	1(%rsi), %edx
ffffff8000207720: 48 83 c6 02          	addq	$2, %rsi
ffffff8000207724: 4c 8d 14 10          	leaq	(%rax,%rdx), %r10
ffffff8000207728: 44 38 3b             	cmpb	%r15b, (%rbx)
ffffff800020772b: 75 43                	jne	0xffffff8000207770 <_ZN4core7unicode9printable5check17hc7a5da0bcc4e4701E+0x70>
ffffff800020772d: 49 39 c2             	cmpq	%rax, %r10
ffffff8000207730: 0f 82 ac 00 00 00    	jb	0xffffff80002077e2 <_ZN4core7unicode9printable5check17hc7a5da0bcc4e4701E+0xe2>
ffffff8000207736: 4d 39 c2             	cmpq	%r8, %r10
ffffff8000207739: 0f 87 b7 00 00 00    	ja	0xffffff80002077f6 <_ZN4core7unicode9printable5check17hc7a5da0bcc4e4701E+0xf6>
ffffff800020773f: 48 01 c8             	addq	%rcx, %rax
ffffff8000207742: 31 db                	xorl	%ebx, %ebx
ffffff8000207744: 66 66 66 2e 0f 1f 84 00 00 00 00 00  	nopw	%cs:(%rax,%rax)
ffffff8000207750: 48 39 da             	cmpq	%rbx, %rdx
ffffff8000207753: 74 1d                	je	0xffffff8000207772 <_ZN4core7unicode9printable5check17hc7a5da0bcc4e4701E+0x72>
ffffff8000207755: 48 8d 6b 01          	leaq	1(%rbx), %rbp
ffffff8000207759: 40 38 3c 18          	cmpb	%dil, (%rax,%rbx)
ffffff800020775d: 48 89 eb             	movq	%rbp, %rbx
ffffff8000207760: 75 ee                	jne	0xffffff8000207750 <_ZN4core7unicode9printable5check17hc7a5da0bcc4e4701E+0x50>
ffffff8000207762: eb 6f                	jmp	0xffffff80002077d3 <_ZN4core7unicode9printable5check17hc7a5da0bcc4e4701E+0xd3>
ffffff8000207764: 66 66 66 2e 0f 1f 84 00 00 00 00 00  	nopw	%cs:(%rax,%rax)
ffffff8000207770: 77 08                	ja	0xffffff800020777a <_ZN4core7unicode9printable5check17hc7a5da0bcc4e4701E+0x7a>
ffffff8000207772: 4c 89 d0             	movq	%r10, %rax
ffffff8000207775: 4c 39 f6             	cmpq	%r14, %rsi
ffffff8000207778: 75 9f                	jne	0xffffff8000207719 <_ZN4core7unicode9printable5check17hc7a5da0bcc4e4701E+0x19>
ffffff800020777a: 4d 01 cb             	addq	%r9, %r11
ffffff800020777d: 0f b7 cf             	movzwl	%di, %ecx
ffffff8000207780: b0 01                	movb	$1, %al
ffffff8000207782: 66 66 66 66 66 2e 0f 1f 84 00 00 00 00 00    	nopw	%cs:(%rax,%rax)
ffffff8000207790: 49 8d 71 01          	leaq	1(%r9), %rsi
ffffff8000207794: 41 0f b6 11          	movzbl	(%r9), %edx
ffffff8000207798: 84 d2                	testb	%dl, %dl
ffffff800020779a: 78 14                	js	0xffffff80002077b0 <_ZN4core7unicode9printable5check17hc7a5da0bcc4e4701E+0xb0>
ffffff800020779c: 49 89 f1             	movq	%rsi, %r9
ffffff800020779f: 29 d1                	subl	%edx, %ecx
ffffff80002077a1: 79 27                	jns	0xffffff80002077ca <_ZN4core7unicode9printable5check17hc7a5da0bcc4e4701E+0xca>
ffffff80002077a3: eb 30                	jmp	0xffffff80002077d5 <_ZN4core7unicode9printable5check17hc7a5da0bcc4e4701E+0xd5>
ffffff80002077a5: 66 66 2e 0f 1f 84 00 00 00 00 00     	nopw	%cs:(%rax,%rax)
ffffff80002077b0: 4c 39 de             	cmpq	%r11, %rsi
ffffff80002077b3: 74 4e                	je	0xffffff8000207803 <_ZN4core7unicode9printable5check17hc7a5da0bcc4e4701E+0x103>
ffffff80002077b5: 41 0f b6 71 01       	movzbl	1(%r9), %esi
ffffff80002077ba: 49 83 c1 02          	addq	$2, %r9
ffffff80002077be: 83 e2 7f             	andl	$127, %edx
ffffff80002077c1: c1 e2 08             	shll	$8, %edx
ffffff80002077c4: 09 f2                	orl	%esi, %edx
ffffff80002077c6: 29 d1                	subl	%edx, %ecx
ffffff80002077c8: 78 0b                	js	0xffffff80002077d5 <_ZN4core7unicode9printable5check17hc7a5da0bcc4e4701E+0xd5>
ffffff80002077ca: 34 01                	xorb	$1, %al
ffffff80002077cc: 4d 39 d9             	cmpq	%r11, %r9
ffffff80002077cf: 75 bf                	jne	0xffffff8000207790 <_ZN4core7unicode9printable5check17hc7a5da0bcc4e4701E+0x90>
ffffff80002077d1: eb 02                	jmp	0xffffff80002077d5 <_ZN4core7unicode9printable5check17hc7a5da0bcc4e4701E+0xd5>
ffffff80002077d3: 31 c0                	xorl	%eax, %eax
ffffff80002077d5: 24 01                	andb	$1, %al
ffffff80002077d7: 48 83 c4 08          	addq	$8, %rsp
ffffff80002077db: 5b                   	popq	%rbx
ffffff80002077dc: 41 5e                	popq	%r14
ffffff80002077de: 41 5f                	popq	%r15
ffffff80002077e0: 5d                   	popq	%rbp
ffffff80002077e1: c3                   	retq
ffffff80002077e2: 48 8d 15 9f 92 00 00 	leaq	37535(%rip), %rdx       # 0xffffff8000210a88 <_ZN5axhal8platform6pc_x864time12CPU_FREQ_MHZ17hcbee90971ca93e77E.0+0x900>
ffffff80002077e9: 48 89 c7             	movq	%rax, %rdi
ffffff80002077ec: 4c 89 d6             	movq	%r10, %rsi
ffffff80002077ef: e8 0c f0 ff ff       	callq	0xffffff8000206800 <_ZN4core5slice5index22slice_index_order_fail17hcae3d7e770631c37E>
ffffff80002077f4: 0f 0b                	ud2
ffffff80002077f6: 4c 89 d7             	movq	%r10, %rdi
ffffff80002077f9: 4c 89 c6             	movq	%r8, %rsi
ffffff80002077fc: e8 7f e3 ff ff       	callq	0xffffff8000205b80 <_ZN4core5slice5index24slice_end_index_len_fail17h7a4fc369ac38be6fE>
ffffff8000207801: 0f 0b                	ud2
ffffff8000207803: 48 8d 3d 84 2a 00 00 	leaq	10884(%rip), %rdi       # 0xffffff800020a28e <str.0+0x56e>
ffffff800020780a: 48 8d 15 8f 92 00 00 	leaq	37519(%rip), %rdx       # 0xffffff8000210aa0 <_ZN5axhal8platform6pc_x864time12CPU_FREQ_MHZ17hcbee90971ca93e77E.0+0x918>
ffffff8000207811: be 2b 00 00 00       	movl	$43, %esi
ffffff8000207816: e8 e5 ea ff ff       	callq	0xffffff8000206300 <_ZN4core9panicking5panic17ha75736b023e20f84E>
ffffff800020781b: 0f 0b                	ud2
ffffff800020781d: cc                   	int3
ffffff800020781e: cc                   	int3
ffffff800020781f: cc                   	int3

ffffff8000207820 <_ZN4core3str19slice_error_fail_rt17h8dbd833ad14dcedbE>:
ffffff8000207820: 48 81 ec d8 00 00 00 	subq	$216, %rsp
ffffff8000207827: 49 89 d1             	movq	%rdx, %r9
ffffff800020782a: 48 89 94 24 c0 00 00 00      	movq	%rdx, 192(%rsp)
ffffff8000207832: 48 89 8c 24 c8 00 00 00      	movq	%rcx, 200(%rsp)
ffffff800020783a: 48 81 fe 01 01 00 00 	cmpq	$257, %rsi              # imm = 0x101
ffffff8000207841: 72 5d                	jb	0xffffff80002078a0 <_ZN4core3str19slice_error_fail_rt17h8dbd833ad14dcedbE+0x80>
ffffff8000207843: b8 01 01 00 00       	movl	$257, %eax              # imm = 0x101
ffffff8000207848: 0f 1f 84 00 00 00 00 00      	nopl	(%rax,%rax)
ffffff8000207850: 80 7c 07 ff bf       	cmpb	$-65, -1(%rdi,%rax)
ffffff8000207855: 48 8d 40 ff          	leaq	-1(%rax), %rax
ffffff8000207859: 7e f5                	jle	0xffffff8000207850 <_ZN4core3str19slice_error_fail_rt17h8dbd833ad14dcedbE+0x30>
ffffff800020785b: 48 39 f0             	cmpq	%rsi, %rax
ffffff800020785e: 73 3a                	jae	0xffffff800020789a <_ZN4core3str19slice_error_fail_rt17h8dbd833ad14dcedbE+0x7a>
ffffff8000207860: 80 3c 07 bf          	cmpb	$-65, (%rdi,%rax)
ffffff8000207864: 0f 8e 9d 01 00 00    	jle	0xffffff8000207a07 <_ZN4core3str19slice_error_fail_rt17h8dbd833ad14dcedbE+0x1e7>
ffffff800020786a: 48 89 7c 24 10       	movq	%rdi, 16(%rsp)
ffffff800020786f: 48 89 44 24 18       	movq	%rax, 24(%rsp)
ffffff8000207874: ba 05 00 00 00       	movl	$5, %edx
ffffff8000207879: 48 8d 05 0a 2d 00 00 	leaq	11530(%rip), %rax       # 0xffffff800020a58a <str.0+0x86a>
ffffff8000207880: 48 89 84 24 a0 00 00 00      	movq	%rax, 160(%rsp)
ffffff8000207888: 48 89 94 24 a8 00 00 00      	movq	%rdx, 168(%rsp)
ffffff8000207890: 49 39 f1             	cmpq	%rsi, %r9
ffffff8000207893: 76 37                	jbe	0xffffff80002078cc <_ZN4core3str19slice_error_fail_rt17h8dbd833ad14dcedbE+0xac>
ffffff8000207895: e9 dd 00 00 00       	jmp	0xffffff8000207977 <_ZN4core3str19slice_error_fail_rt17h8dbd833ad14dcedbE+0x157>
ffffff800020789a: 0f 85 67 01 00 00    	jne	0xffffff8000207a07 <_ZN4core3str19slice_error_fail_rt17h8dbd833ad14dcedbE+0x1e7>
ffffff80002078a0: 48 89 7c 24 10       	movq	%rdi, 16(%rsp)
ffffff80002078a5: 48 89 74 24 18       	movq	%rsi, 24(%rsp)
ffffff80002078aa: 48 8b 05 5f 94 00 00 	movq	37983(%rip), %rax       # 0xffffff8000210d10 <_ZN3log6LOGGER17h48756037b7073395E.1+0x110>
ffffff80002078b1: 31 d2                	xorl	%edx, %edx
ffffff80002078b3: 48 89 84 24 a0 00 00 00      	movq	%rax, 160(%rsp)
ffffff80002078bb: 48 89 94 24 a8 00 00 00      	movq	%rdx, 168(%rsp)
ffffff80002078c3: 49 39 f1             	cmpq	%rsi, %r9
ffffff80002078c6: 0f 87 ab 00 00 00    	ja	0xffffff8000207977 <_ZN4core3str19slice_error_fail_rt17h8dbd833ad14dcedbE+0x157>
ffffff80002078cc: 48 39 f1             	cmpq	%rsi, %rcx
ffffff80002078cf: 0f 87 a2 00 00 00    	ja	0xffffff8000207977 <_ZN4core3str19slice_error_fail_rt17h8dbd833ad14dcedbE+0x157>
ffffff80002078d5: 49 39 c9             	cmpq	%rcx, %r9
ffffff80002078d8: 0f 86 35 01 00 00    	jbe	0xffffff8000207a13 <_ZN4core3str19slice_error_fail_rt17h8dbd833ad14dcedbE+0x1f3>
ffffff80002078de: 48 8d 84 24 c0 00 00 00      	leaq	192(%rsp), %rax
ffffff80002078e6: 48 89 44 24 50       	movq	%rax, 80(%rsp)
ffffff80002078eb: 48 8d 05 5e dd ff ff 	leaq	-8866(%rip), %rax       # 0xffffff8000205650 <_ZN4core3fmt3num3imp52_$LT$impl$u20$core..fmt..Display$u20$for$u20$u64$GT$3fmt17h78dc0edf4b145690E>
ffffff80002078f2: 48 89 44 24 58       	movq	%rax, 88(%rsp)
ffffff80002078f7: 48 8d 8c 24 c8 00 00 00      	leaq	200(%rsp), %rcx
ffffff80002078ff: 48 89 4c 24 60       	movq	%rcx, 96(%rsp)
ffffff8000207904: 48 89 44 24 68       	movq	%rax, 104(%rsp)
ffffff8000207909: 48 8d 44 24 10       	leaq	16(%rsp), %rax
ffffff800020790e: 48 89 44 24 70       	movq	%rax, 112(%rsp)
ffffff8000207913: 48 8d 05 c6 08 00 00 	leaq	2246(%rip), %rax        # 0xffffff80002081e0 <_ZN44_$LT$$RF$T$u20$as$u20$core..fmt..Display$GT$3fmt17h826ed5806fed4bf7E>
ffffff800020791a: 48 89 44 24 78       	movq	%rax, 120(%rsp)
ffffff800020791f: 48 8d 8c 24 a0 00 00 00      	leaq	160(%rsp), %rcx
ffffff8000207927: 48 89 8c 24 80 00 00 00      	movq	%rcx, 128(%rsp)
ffffff800020792f: 48 89 84 24 88 00 00 00      	movq	%rax, 136(%rsp)
ffffff8000207937: 48 8d 05 a2 90 00 00 	leaq	37026(%rip), %rax       # 0xffffff80002109e0 <_ZN5axhal8platform6pc_x864time12CPU_FREQ_MHZ17hcbee90971ca93e77E.0+0x858>
ffffff800020793e: 48 89 44 24 30       	movq	%rax, 48(%rsp)
ffffff8000207943: 48 c7 44 24 38 04 00 00 00   	movq	$4, 56(%rsp)
ffffff800020794c: 48 c7 44 24 20 00 00 00 00   	movq	$0, 32(%rsp)
ffffff8000207955: 48 8d 44 24 50       	leaq	80(%rsp), %rax
ffffff800020795a: 48 89 44 24 40       	movq	%rax, 64(%rsp)
ffffff800020795f: 48 c7 44 24 48 04 00 00 00   	movq	$4, 72(%rsp)
ffffff8000207968: 48 8d 7c 24 20       	leaq	32(%rsp), %rdi
ffffff800020796d: 4c 89 c6             	movq	%r8, %rsi
ffffff8000207970: e8 fb db ff ff       	callq	0xffffff8000205570 <_ZN4core9panicking9panic_fmt17h95420505f5f4b6c1E>
ffffff8000207975: 0f 0b                	ud2
ffffff8000207977: 49 39 f1             	cmpq	%rsi, %r9
ffffff800020797a: 49 0f 47 c9          	cmovaq	%r9, %rcx
ffffff800020797e: 48 89 8c 24 b0 00 00 00      	movq	%rcx, 176(%rsp)
ffffff8000207986: 48 8d 84 24 b0 00 00 00      	leaq	176(%rsp), %rax
ffffff800020798e: 48 89 44 24 50       	movq	%rax, 80(%rsp)
ffffff8000207993: 48 8d 05 b6 dc ff ff 	leaq	-9034(%rip), %rax       # 0xffffff8000205650 <_ZN4core3fmt3num3imp52_$LT$impl$u20$core..fmt..Display$u20$for$u20$u64$GT$3fmt17h78dc0edf4b145690E>
ffffff800020799a: 48 89 44 24 58       	movq	%rax, 88(%rsp)
ffffff800020799f: 48 8d 44 24 10       	leaq	16(%rsp), %rax
ffffff80002079a4: 48 89 44 24 60       	movq	%rax, 96(%rsp)
ffffff80002079a9: 48 8d 05 30 08 00 00 	leaq	2096(%rip), %rax        # 0xffffff80002081e0 <_ZN44_$LT$$RF$T$u20$as$u20$core..fmt..Display$GT$3fmt17h826ed5806fed4bf7E>
ffffff80002079b0: 48 89 44 24 68       	movq	%rax, 104(%rsp)
ffffff80002079b5: 48 8d 8c 24 a0 00 00 00      	leaq	160(%rsp), %rcx
ffffff80002079bd: 48 89 4c 24 70       	movq	%rcx, 112(%rsp)
ffffff80002079c2: 48 89 44 24 78       	movq	%rax, 120(%rsp)
ffffff80002079c7: 48 8d 05 e2 8f 00 00 	leaq	36834(%rip), %rax       # 0xffffff80002109b0 <_ZN5axhal8platform6pc_x864time12CPU_FREQ_MHZ17hcbee90971ca93e77E.0+0x828>
ffffff80002079ce: 48 89 44 24 30       	movq	%rax, 48(%rsp)
ffffff80002079d3: 48 c7 44 24 38 03 00 00 00   	movq	$3, 56(%rsp)
ffffff80002079dc: 48 c7 44 24 20 00 00 00 00   	movq	$0, 32(%rsp)
ffffff80002079e5: 48 8d 44 24 50       	leaq	80(%rsp), %rax
ffffff80002079ea: 48 89 44 24 40       	movq	%rax, 64(%rsp)
ffffff80002079ef: 48 c7 44 24 48 03 00 00 00   	movq	$3, 72(%rsp)
ffffff80002079f8: 48 8d 7c 24 20       	leaq	32(%rsp), %rdi
ffffff80002079fd: 4c 89 c6             	movq	%r8, %rsi
ffffff8000207a00: e8 6b db ff ff       	callq	0xffffff8000205570 <_ZN4core9panicking9panic_fmt17h95420505f5f4b6c1E>
ffffff8000207a05: 0f 0b                	ud2
ffffff8000207a07: 31 d2                	xorl	%edx, %edx
ffffff8000207a09: 48 89 c1             	movq	%rax, %rcx
ffffff8000207a0c: e8 7f fa ff ff       	callq	0xffffff8000207490 <_ZN4core3str16slice_error_fail17h6c2f4383cb1ee393E>
ffffff8000207a11: 0f 0b                	ud2
ffffff8000207a13: 4d 85 c9             	testq	%r9, %r9
ffffff8000207a16: 75 3c                	jne	0xffffff8000207a54 <_ZN4core3str19slice_error_fail_rt17h8dbd833ad14dcedbE+0x234>
ffffff8000207a18: 49 89 c9             	movq	%rcx, %r9
ffffff8000207a1b: 4c 89 8c 24 d0 00 00 00      	movq	%r9, 208(%rsp)
ffffff8000207a23: 48 89 f2             	movq	%rsi, %rdx
ffffff8000207a26: 49 39 f1             	cmpq	%rsi, %r9
ffffff8000207a29: 73 57                	jae	0xffffff8000207a82 <_ZN4core3str19slice_error_fail_rt17h8dbd833ad14dcedbE+0x262>
ffffff8000207a2b: 31 c0                	xorl	%eax, %eax
ffffff8000207a2d: 4c 89 c9             	movq	%r9, %rcx
ffffff8000207a30: 48 83 e9 03          	subq	$3, %rcx
ffffff8000207a34: 48 0f 43 c1          	cmovaeq	%rcx, %rax
ffffff8000207a38: 49 ff c1             	incq	%r9
ffffff8000207a3b: 49 39 c1             	cmpq	%rax, %r9
ffffff8000207a3e: 73 22                	jae	0xffffff8000207a62 <_ZN4core3str19slice_error_fail_rt17h8dbd833ad14dcedbE+0x242>
ffffff8000207a40: 48 8d 15 29 90 00 00 	leaq	36905(%rip), %rdx       # 0xffffff8000210a70 <_ZN5axhal8platform6pc_x864time12CPU_FREQ_MHZ17hcbee90971ca93e77E.0+0x8e8>
ffffff8000207a47: 48 89 c7             	movq	%rax, %rdi
ffffff8000207a4a: 4c 89 ce             	movq	%r9, %rsi
ffffff8000207a4d: e8 ae ed ff ff       	callq	0xffffff8000206800 <_ZN4core5slice5index22slice_index_order_fail17hcae3d7e770631c37E>
ffffff8000207a52: 0f 0b                	ud2
ffffff8000207a54: 49 39 f1             	cmpq	%rsi, %r9
ffffff8000207a57: 73 70                	jae	0xffffff8000207ac9 <_ZN4core3str19slice_error_fail_rt17h8dbd833ad14dcedbE+0x2a9>
ffffff8000207a59: 42 80 3c 0f c0       	cmpb	$-64, (%rdi,%r9)
ffffff8000207a5e: 7d b8                	jge	0xffffff8000207a18 <_ZN4core3str19slice_error_fail_rt17h8dbd833ad14dcedbE+0x1f8>
ffffff8000207a60: eb b9                	jmp	0xffffff8000207a1b <_ZN4core3str19slice_error_fail_rt17h8dbd833ad14dcedbE+0x1fb>
ffffff8000207a62: 48 01 f8             	addq	%rdi, %rax
ffffff8000207a65: 4a 8d 0c 0f          	leaq	(%rdi,%r9), %rcx
ffffff8000207a69: 48 29 c1             	subq	%rax, %rcx
ffffff8000207a6c: 0f 1f 40 00          	nopl	(%rax)
ffffff8000207a70: 48 ff c9             	decq	%rcx
ffffff8000207a73: 49 8d 51 ff          	leaq	-1(%r9), %rdx
ffffff8000207a77: 42 80 7c 0f ff c0    	cmpb	$-64, -1(%rdi,%r9)
ffffff8000207a7d: 49 89 d1             	movq	%rdx, %r9
ffffff8000207a80: 7c ee                	jl	0xffffff8000207a70 <_ZN4core3str19slice_error_fail_rt17h8dbd833ad14dcedbE+0x250>
ffffff8000207a82: 48 85 d2             	testq	%rdx, %rdx
ffffff8000207a85: 74 0e                	je	0xffffff8000207a95 <_ZN4core3str19slice_error_fail_rt17h8dbd833ad14dcedbE+0x275>
ffffff8000207a87: 48 39 f2             	cmpq	%rsi, %rdx
ffffff8000207a8a: 73 48                	jae	0xffffff8000207ad4 <_ZN4core3str19slice_error_fail_rt17h8dbd833ad14dcedbE+0x2b4>
ffffff8000207a8c: 80 3c 17 bf          	cmpb	$-65, (%rdi,%rdx)
ffffff8000207a90: 7e 4a                	jle	0xffffff8000207adc <_ZN4core3str19slice_error_fail_rt17h8dbd833ad14dcedbE+0x2bc>
ffffff8000207a92: 48 29 d6             	subq	%rdx, %rsi
ffffff8000207a95: 48 89 f0             	movq	%rsi, %rax
ffffff8000207a98: 48 85 c0             	testq	%rax, %rax
ffffff8000207a9b: 75 16                	jne	0xffffff8000207ab3 <_ZN4core3str19slice_error_fail_rt17h8dbd833ad14dcedbE+0x293>
ffffff8000207a9d: 48 8d 3d ea 27 00 00 	leaq	10218(%rip), %rdi       # 0xffffff800020a28e <str.0+0x56e>
ffffff8000207aa4: be 2b 00 00 00       	movl	$43, %esi
ffffff8000207aa9: 4c 89 c2             	movq	%r8, %rdx
ffffff8000207aac: e8 4f e8 ff ff       	callq	0xffffff8000206300 <_ZN4core9panicking5panic17ha75736b023e20f84E>
ffffff8000207ab1: 0f 0b                	ud2
ffffff8000207ab3: 0f b6 0c 17          	movzbl	(%rdi,%rdx), %ecx
ffffff8000207ab7: 84 c9                	testb	%cl, %cl
ffffff8000207ab9: 78 2b                	js	0xffffff8000207ae6 <_ZN4core3str19slice_error_fail_rt17h8dbd833ad14dcedbE+0x2c6>
ffffff8000207abb: 89 4c 24 0c          	movl	%ecx, 12(%rsp)
ffffff8000207abf: b8 01 00 00 00       	movl	$1, %eax
ffffff8000207ac4: e9 a8 00 00 00       	jmp	0xffffff8000207b71 <_ZN4core3str19slice_error_fail_rt17h8dbd833ad14dcedbE+0x351>
ffffff8000207ac9: 0f 84 49 ff ff ff    	je	0xffffff8000207a18 <_ZN4core3str19slice_error_fail_rt17h8dbd833ad14dcedbE+0x1f8>
ffffff8000207acf: e9 47 ff ff ff       	jmp	0xffffff8000207a1b <_ZN4core3str19slice_error_fail_rt17h8dbd833ad14dcedbE+0x1fb>
ffffff8000207ad4: 48 89 f0             	movq	%rsi, %rax
ffffff8000207ad7: 48 29 d0             	subq	%rdx, %rax
ffffff8000207ada: 74 bc                	je	0xffffff8000207a98 <_ZN4core3str19slice_error_fail_rt17h8dbd833ad14dcedbE+0x278>
ffffff8000207adc: 48 89 f1             	movq	%rsi, %rcx
ffffff8000207adf: e8 ac f9 ff ff       	callq	0xffffff8000207490 <_ZN4core3str16slice_error_fail17h6c2f4383cb1ee393E>
ffffff8000207ae4: 0f 0b                	ud2
ffffff8000207ae6: 89 c8                	movl	%ecx, %eax
ffffff8000207ae8: 83 e0 1f             	andl	$31, %eax
ffffff8000207aeb: 0f b6 74 17 01       	movzbl	1(%rdi,%rdx), %esi
ffffff8000207af0: 83 e6 3f             	andl	$63, %esi
ffffff8000207af3: 80 f9 df             	cmpb	$-33, %cl
ffffff8000207af6: 76 3a                	jbe	0xffffff8000207b32 <_ZN4core3str19slice_error_fail_rt17h8dbd833ad14dcedbE+0x312>
ffffff8000207af8: 44 0f b6 4c 17 02    	movzbl	2(%rdi,%rdx), %r9d
ffffff8000207afe: c1 e6 06             	shll	$6, %esi
ffffff8000207b01: 41 83 e1 3f          	andl	$63, %r9d
ffffff8000207b05: 41 09 f1             	orl	%esi, %r9d
ffffff8000207b08: 80 f9 f0             	cmpb	$-16, %cl
ffffff8000207b0b: 72 2e                	jb	0xffffff8000207b3b <_ZN4core3str19slice_error_fail_rt17h8dbd833ad14dcedbE+0x31b>
ffffff8000207b0d: 0f b6 4c 17 03       	movzbl	3(%rdi,%rdx), %ecx
ffffff8000207b12: 83 e0 07             	andl	$7, %eax
ffffff8000207b15: c1 e0 12             	shll	$18, %eax
ffffff8000207b18: 41 c1 e1 06          	shll	$6, %r9d
ffffff8000207b1c: 83 e1 3f             	andl	$63, %ecx
ffffff8000207b1f: 44 09 c9             	orl	%r9d, %ecx
ffffff8000207b22: 09 c1                	orl	%eax, %ecx
ffffff8000207b24: 81 f9 00 00 11 00    	cmpl	$1114112, %ecx          # imm = 0x110000
ffffff8000207b2a: 0f 84 6d ff ff ff    	je	0xffffff8000207a9d <_ZN4core3str19slice_error_fail_rt17h8dbd833ad14dcedbE+0x27d>
ffffff8000207b30: eb 12                	jmp	0xffffff8000207b44 <_ZN4core3str19slice_error_fail_rt17h8dbd833ad14dcedbE+0x324>
ffffff8000207b32: c1 e0 06             	shll	$6, %eax
ffffff8000207b35: 09 f0                	orl	%esi, %eax
ffffff8000207b37: 89 c1                	movl	%eax, %ecx
ffffff8000207b39: eb 09                	jmp	0xffffff8000207b44 <_ZN4core3str19slice_error_fail_rt17h8dbd833ad14dcedbE+0x324>
ffffff8000207b3b: c1 e0 0c             	shll	$12, %eax
ffffff8000207b3e: 41 09 c1             	orl	%eax, %r9d
ffffff8000207b41: 44 89 c9             	movl	%r9d, %ecx
ffffff8000207b44: 89 4c 24 0c          	movl	%ecx, 12(%rsp)
ffffff8000207b48: b8 01 00 00 00       	movl	$1, %eax
ffffff8000207b4d: 81 f9 80 00 00 00    	cmpl	$128, %ecx
ffffff8000207b53: 72 1c                	jb	0xffffff8000207b71 <_ZN4core3str19slice_error_fail_rt17h8dbd833ad14dcedbE+0x351>
ffffff8000207b55: b8 02 00 00 00       	movl	$2, %eax
ffffff8000207b5a: 81 f9 ff 07 00 00    	cmpl	$2047, %ecx             # imm = 0x7FF
ffffff8000207b60: 76 0f                	jbe	0xffffff8000207b71 <_ZN4core3str19slice_error_fail_rt17h8dbd833ad14dcedbE+0x351>
ffffff8000207b62: 81 f9 00 00 01 00    	cmpl	$65536, %ecx            # imm = 0x10000
ffffff8000207b68: b8 04 00 00 00       	movl	$4, %eax
ffffff8000207b6d: 48 83 d8 00          	sbbq	$0, %rax
ffffff8000207b71: 48 01 d0             	addq	%rdx, %rax
ffffff8000207b74: 48 89 94 24 b0 00 00 00      	movq	%rdx, 176(%rsp)
ffffff8000207b7c: 48 89 84 24 b8 00 00 00      	movq	%rax, 184(%rsp)
ffffff8000207b84: 48 8d 84 24 d0 00 00 00      	leaq	208(%rsp), %rax
ffffff8000207b8c: 48 89 44 24 50       	movq	%rax, 80(%rsp)
ffffff8000207b91: 48 8d 05 b8 da ff ff 	leaq	-9544(%rip), %rax       # 0xffffff8000205650 <_ZN4core3fmt3num3imp52_$LT$impl$u20$core..fmt..Display$u20$for$u20$u64$GT$3fmt17h78dc0edf4b145690E>
ffffff8000207b98: 48 89 44 24 58       	movq	%rax, 88(%rsp)
ffffff8000207b9d: 48 8d 44 24 0c       	leaq	12(%rsp), %rax
ffffff8000207ba2: 48 89 44 24 60       	movq	%rax, 96(%rsp)
ffffff8000207ba7: 48 8d 05 92 00 00 00 	leaq	146(%rip), %rax         # 0xffffff8000207c40 <_ZN41_$LT$char$u20$as$u20$core..fmt..Debug$GT$3fmt17h32e01e00aeb272a8E>
ffffff8000207bae: 48 89 44 24 68       	movq	%rax, 104(%rsp)
ffffff8000207bb3: 48 8d 84 24 b0 00 00 00      	leaq	176(%rsp), %rax
ffffff8000207bbb: 48 89 44 24 70       	movq	%rax, 112(%rsp)
ffffff8000207bc0: 48 8d 05 c9 03 00 00 	leaq	969(%rip), %rax         # 0xffffff8000207f90 <_ZN71_$LT$core..ops..range..Range$LT$Idx$GT$$u20$as$u20$core..fmt..Debug$GT$3fmt17h426c5b91468c7882E>
ffffff8000207bc7: 48 89 44 24 78       	movq	%rax, 120(%rsp)
ffffff8000207bcc: 48 8d 44 24 10       	leaq	16(%rsp), %rax
ffffff8000207bd1: 48 89 84 24 80 00 00 00      	movq	%rax, 128(%rsp)
ffffff8000207bd9: 48 8d 05 00 06 00 00 	leaq	1536(%rip), %rax        # 0xffffff80002081e0 <_ZN44_$LT$$RF$T$u20$as$u20$core..fmt..Display$GT$3fmt17h826ed5806fed4bf7E>
ffffff8000207be0: 48 89 84 24 88 00 00 00      	movq	%rax, 136(%rsp)
ffffff8000207be8: 48 8d 8c 24 a0 00 00 00      	leaq	160(%rsp), %rcx
ffffff8000207bf0: 48 89 8c 24 90 00 00 00      	movq	%rcx, 144(%rsp)
ffffff8000207bf8: 48 89 84 24 98 00 00 00      	movq	%rax, 152(%rsp)
ffffff8000207c00: 48 8d 05 19 8e 00 00 	leaq	36377(%rip), %rax       # 0xffffff8000210a20 <_ZN5axhal8platform6pc_x864time12CPU_FREQ_MHZ17hcbee90971ca93e77E.0+0x898>
ffffff8000207c07: 48 89 44 24 30       	movq	%rax, 48(%rsp)
ffffff8000207c0c: 48 c7 44 24 38 05 00 00 00   	movq	$5, 56(%rsp)
ffffff8000207c15: 48 c7 44 24 20 00 00 00 00   	movq	$0, 32(%rsp)
ffffff8000207c1e: 48 8d 44 24 50       	leaq	80(%rsp), %rax
ffffff8000207c23: 48 89 44 24 40       	movq	%rax, 64(%rsp)
ffffff8000207c28: 48 c7 44 24 48 05 00 00 00   	movq	$5, 72(%rsp)
ffffff8000207c31: 48 8d 7c 24 20       	leaq	32(%rsp), %rdi
ffffff8000207c36: 4c 89 c6             	movq	%r8, %rsi
ffffff8000207c39: e8 32 d9 ff ff       	callq	0xffffff8000205570 <_ZN4core9panicking9panic_fmt17h95420505f5f4b6c1E>
ffffff8000207c3e: 0f 0b                	ud2

ffffff8000207c40 <_ZN41_$LT$char$u20$as$u20$core..fmt..Debug$GT$3fmt17h32e01e00aeb272a8E>:
ffffff8000207c40: 55                   	pushq	%rbp
ffffff8000207c41: 41 57                	pushq	%r15
ffffff8000207c43: 41 56                	pushq	%r14
ffffff8000207c45: 41 55                	pushq	%r13
ffffff8000207c47: 41 54                	pushq	%r12
ffffff8000207c49: 53                   	pushq	%rbx
ffffff8000207c4a: 50                   	pushq	%rax
ffffff8000207c4b: 49 89 fe             	movq	%rdi, %r14
ffffff8000207c4e: 48 8b 1e             	movq	(%rsi), %rbx
ffffff8000207c51: 48 8b 46 08          	movq	8(%rsi), %rax
ffffff8000207c55: 48 8b 40 20          	movq	32(%rax), %rax
ffffff8000207c59: 48 89 df             	movq	%rbx, %rdi
ffffff8000207c5c: be 27 00 00 00       	movl	$39, %esi
ffffff8000207c61: 49 89 c5             	movq	%rax, %r13
ffffff8000207c64: ff d0                	callq	*%rax
ffffff8000207c66: 84 c0                	testb	%al, %al
ffffff8000207c68: 74 11                	je	0xffffff8000207c7b <_ZN41_$LT$char$u20$as$u20$core..fmt..Debug$GT$3fmt17h32e01e00aeb272a8E+0x3b>
ffffff8000207c6a: b0 01                	movb	$1, %al
ffffff8000207c6c: 48 83 c4 08          	addq	$8, %rsp
ffffff8000207c70: 5b                   	popq	%rbx
ffffff8000207c71: 41 5c                	popq	%r12
ffffff8000207c73: 41 5d                	popq	%r13
ffffff8000207c75: 41 5e                	popq	%r14
ffffff8000207c77: 41 5f                	popq	%r15
ffffff8000207c79: 5d                   	popq	%rbp
ffffff8000207c7a: c3                   	retq
ffffff8000207c7b: 45 8b 3e             	movl	(%r14), %r15d
ffffff8000207c7e: 49 83 ff 27          	cmpq	$39, %r15
ffffff8000207c82: 77 58                	ja	0xffffff8000207cdc <_ZN41_$LT$char$u20$as$u20$core..fmt..Debug$GT$3fmt17h32e01e00aeb272a8E+0x9c>
ffffff8000207c84: ba 02 00 11 00       	movl	$1114114, %edx          # imm = 0x110002
ffffff8000207c89: b8 30 00 00 00       	movl	$48, %eax
ffffff8000207c8e: 48 8d 0d 3f 1c 00 00 	leaq	7231(%rip), %rcx        # 0xffffff80002098d4 <trap_handler_table+0x8d4>
ffffff8000207c95: 4a 63 34 b9          	movslq	(%rcx,%r15,4), %rsi
ffffff8000207c99: 48 01 ce             	addq	%rcx, %rsi
ffffff8000207c9c: ff e6                	jmpq	*%rsi
ffffff8000207c9e: ba 02 00 11 00       	movl	$1114114, %edx          # imm = 0x110002
ffffff8000207ca3: b8 74 00 00 00       	movl	$116, %eax
ffffff8000207ca8: 41 89 c6             	movl	%eax, %r14d
ffffff8000207cab: 41 b4 05             	movb	$5, %r12b
ffffff8000207cae: 8d 82 00 00 ef ff    	leal	-1114112(%rdx), %eax
ffffff8000207cb4: 81 fa 00 00 11 00    	cmpl	$1114112, %edx          # imm = 0x110000
ffffff8000207cba: b9 03 00 00 00       	movl	$3, %ecx
ffffff8000207cbf: 0f 43 c8             	cmovael	%eax, %ecx
ffffff8000207cc2: bd 01 00 11 00       	movl	$1114113, %ebp          # imm = 0x110001
ffffff8000207cc7: be 5c 00 00 00       	movl	$92, %esi
ffffff8000207ccc: 48 8d 05 a1 1c 00 00 	leaq	7329(%rip), %rax        # 0xffffff8000209974 <trap_handler_table+0x974>
ffffff8000207cd3: 48 63 0c 88          	movslq	(%rax,%rcx,4), %rcx
ffffff8000207cd7: 48 01 c1             	addq	%rax, %rcx
ffffff8000207cda: ff e1                	jmpq	*%rcx
ffffff8000207cdc: 41 83 ff 5c          	cmpl	$92, %r15d
ffffff8000207ce0: 75 39                	jne	0xffffff8000207d1b <_ZN41_$LT$char$u20$as$u20$core..fmt..Debug$GT$3fmt17h32e01e00aeb272a8E+0xdb>
ffffff8000207ce2: ba 02 00 11 00       	movl	$1114114, %edx          # imm = 0x110002
ffffff8000207ce7: 45 89 fe             	movl	%r15d, %r14d
ffffff8000207cea: 41 b4 05             	movb	$5, %r12b
ffffff8000207ced: 8d 82 00 00 ef ff    	leal	-1114112(%rdx), %eax
ffffff8000207cf3: 81 fa 00 00 11 00    	cmpl	$1114112, %edx          # imm = 0x110000
ffffff8000207cf9: b9 03 00 00 00       	movl	$3, %ecx
ffffff8000207cfe: 0f 43 c8             	cmovael	%eax, %ecx
ffffff8000207d01: bd 01 00 11 00       	movl	$1114113, %ebp          # imm = 0x110001
ffffff8000207d06: be 5c 00 00 00       	movl	$92, %esi
ffffff8000207d0b: 48 8d 05 62 1c 00 00 	leaq	7266(%rip), %rax        # 0xffffff8000209974 <trap_handler_table+0x974>
ffffff8000207d12: 48 63 0c 88          	movslq	(%rax,%rcx,4), %rcx
ffffff8000207d16: 48 01 c1             	addq	%rax, %rcx
ffffff8000207d19: ff e1                	jmpq	*%rcx
ffffff8000207d1b: 44 89 ff             	movl	%r15d, %edi
ffffff8000207d1e: e8 7d f7 ff ff       	callq	0xffffff80002074a0 <_ZN4core7unicode12unicode_data15grapheme_extend6lookup17h7fa976c0a05ab13eE>
ffffff8000207d23: 84 c0                	testb	%al, %al
ffffff8000207d25: 0f 84 00 01 00 00    	je	0xffffff8000207e2b <_ZN41_$LT$char$u20$as$u20$core..fmt..Debug$GT$3fmt17h32e01e00aeb272a8E+0x1eb>
ffffff8000207d2b: 44 89 f8             	movl	%r15d, %eax
ffffff8000207d2e: 83 c8 01             	orl	$1, %eax
ffffff8000207d31: 0f bd c0             	bsrl	%eax, %eax
ffffff8000207d34: 83 f0 1c             	xorl	$28, %eax
ffffff8000207d37: c1 e8 02             	shrl	$2, %eax
ffffff8000207d3a: 83 f0 07             	xorl	$7, %eax
ffffff8000207d3d: 41 89 c6             	movl	%eax, %r14d
ffffff8000207d40: 41 b4 05             	movb	$5, %r12b
ffffff8000207d43: 41 8d 87 00 00 ef ff 	leal	-1114112(%r15), %eax
ffffff8000207d4a: 41 81 ff 00 00 11 00 	cmpl	$1114112, %r15d         # imm = 0x110000
ffffff8000207d51: b9 03 00 00 00       	movl	$3, %ecx
ffffff8000207d56: 0f 43 c8             	cmovael	%eax, %ecx
ffffff8000207d59: bd 01 00 11 00       	movl	$1114113, %ebp          # imm = 0x110001
ffffff8000207d5e: be 5c 00 00 00       	movl	$92, %esi
ffffff8000207d63: 48 8d 05 0a 1c 00 00 	leaq	7178(%rip), %rax        # 0xffffff8000209974 <trap_handler_table+0x974>
ffffff8000207d6a: 48 63 0c 88          	movslq	(%rax,%rcx,4), %rcx
ffffff8000207d6e: 48 01 c1             	addq	%rax, %rcx
ffffff8000207d71: 44 89 fa             	movl	%r15d, %edx
ffffff8000207d74: ff e1                	jmpq	*%rcx
ffffff8000207d76: ba 02 00 11 00       	movl	$1114114, %edx          # imm = 0x110002
ffffff8000207d7b: b8 6e 00 00 00       	movl	$110, %eax
ffffff8000207d80: 41 89 c6             	movl	%eax, %r14d
ffffff8000207d83: 41 b4 05             	movb	$5, %r12b
ffffff8000207d86: 8d 82 00 00 ef ff    	leal	-1114112(%rdx), %eax
ffffff8000207d8c: 81 fa 00 00 11 00    	cmpl	$1114112, %edx          # imm = 0x110000
ffffff8000207d92: b9 03 00 00 00       	movl	$3, %ecx
ffffff8000207d97: 0f 43 c8             	cmovael	%eax, %ecx
ffffff8000207d9a: bd 01 00 11 00       	movl	$1114113, %ebp          # imm = 0x110001
ffffff8000207d9f: be 5c 00 00 00       	movl	$92, %esi
ffffff8000207da4: 48 8d 05 c9 1b 00 00 	leaq	7113(%rip), %rax        # 0xffffff8000209974 <trap_handler_table+0x974>
ffffff8000207dab: 48 63 0c 88          	movslq	(%rax,%rcx,4), %rcx
ffffff8000207daf: 48 01 c1             	addq	%rax, %rcx
ffffff8000207db2: ff e1                	jmpq	*%rcx
ffffff8000207db4: ba 02 00 11 00       	movl	$1114114, %edx          # imm = 0x110002
ffffff8000207db9: b8 72 00 00 00       	movl	$114, %eax
ffffff8000207dbe: 41 89 c6             	movl	%eax, %r14d
ffffff8000207dc1: 41 b4 05             	movb	$5, %r12b
ffffff8000207dc4: 8d 82 00 00 ef ff    	leal	-1114112(%rdx), %eax
ffffff8000207dca: 81 fa 00 00 11 00    	cmpl	$1114112, %edx          # imm = 0x110000
ffffff8000207dd0: b9 03 00 00 00       	movl	$3, %ecx
ffffff8000207dd5: 0f 43 c8             	cmovael	%eax, %ecx
ffffff8000207dd8: bd 01 00 11 00       	movl	$1114113, %ebp          # imm = 0x110001
ffffff8000207ddd: be 5c 00 00 00       	movl	$92, %esi
ffffff8000207de2: 48 8d 05 8b 1b 00 00 	leaq	7051(%rip), %rax        # 0xffffff8000209974 <trap_handler_table+0x974>
ffffff8000207de9: 48 63 0c 88          	movslq	(%rax,%rcx,4), %rcx
ffffff8000207ded: 48 01 c1             	addq	%rax, %rcx
ffffff8000207df0: ff e1                	jmpq	*%rcx
ffffff8000207df2: ba 02 00 11 00       	movl	$1114114, %edx          # imm = 0x110002
ffffff8000207df7: 45 89 fe             	movl	%r15d, %r14d
ffffff8000207dfa: 41 b4 05             	movb	$5, %r12b
ffffff8000207dfd: 8d 82 00 00 ef ff    	leal	-1114112(%rdx), %eax
ffffff8000207e03: 81 fa 00 00 11 00    	cmpl	$1114112, %edx          # imm = 0x110000
ffffff8000207e09: b9 03 00 00 00       	movl	$3, %ecx
ffffff8000207e0e: 0f 43 c8             	cmovael	%eax, %ecx
ffffff8000207e11: bd 01 00 11 00       	movl	$1114113, %ebp          # imm = 0x110001
ffffff8000207e16: be 5c 00 00 00       	movl	$92, %esi
ffffff8000207e1b: 48 8d 05 52 1b 00 00 	leaq	6994(%rip), %rax        # 0xffffff8000209974 <trap_handler_table+0x974>
ffffff8000207e22: 48 63 0c 88          	movslq	(%rax,%rcx,4), %rcx
ffffff8000207e26: 48 01 c1             	addq	%rax, %rcx
ffffff8000207e29: ff e1                	jmpq	*%rcx
ffffff8000207e2b: 44 89 ff             	movl	%r15d, %edi
ffffff8000207e2e: e8 ad f7 ff ff       	callq	0xffffff80002075e0 <_ZN4core7unicode9printable12is_printable17h1cea438ea4fda24bE>
ffffff8000207e33: ba 01 00 11 00       	movl	$1114113, %edx          # imm = 0x110001
ffffff8000207e38: 84 c0                	testb	%al, %al
ffffff8000207e3a: 74 05                	je	0xffffff8000207e41 <_ZN41_$LT$char$u20$as$u20$core..fmt..Debug$GT$3fmt17h32e01e00aeb272a8E+0x201>
ffffff8000207e3c: 44 89 f8             	movl	%r15d, %eax
ffffff8000207e3f: eb 15                	jmp	0xffffff8000207e56 <_ZN41_$LT$char$u20$as$u20$core..fmt..Debug$GT$3fmt17h32e01e00aeb272a8E+0x216>
ffffff8000207e41: 44 89 f8             	movl	%r15d, %eax
ffffff8000207e44: 83 c8 01             	orl	$1, %eax
ffffff8000207e47: 0f bd c0             	bsrl	%eax, %eax
ffffff8000207e4a: 83 f0 1c             	xorl	$28, %eax
ffffff8000207e4d: c1 e8 02             	shrl	$2, %eax
ffffff8000207e50: 83 f0 07             	xorl	$7, %eax
ffffff8000207e53: 44 89 fa             	movl	%r15d, %edx
ffffff8000207e56: 41 89 c6             	movl	%eax, %r14d
ffffff8000207e59: 41 b4 05             	movb	$5, %r12b
ffffff8000207e5c: 8d 82 00 00 ef ff    	leal	-1114112(%rdx), %eax
ffffff8000207e62: 81 fa 00 00 11 00    	cmpl	$1114112, %edx          # imm = 0x110000
ffffff8000207e68: b9 03 00 00 00       	movl	$3, %ecx
ffffff8000207e6d: 0f 43 c8             	cmovael	%eax, %ecx
ffffff8000207e70: bd 01 00 11 00       	movl	$1114113, %ebp          # imm = 0x110001
ffffff8000207e75: be 5c 00 00 00       	movl	$92, %esi
ffffff8000207e7a: 48 8d 05 f3 1a 00 00 	leaq	6899(%rip), %rax        # 0xffffff8000209974 <trap_handler_table+0x974>
ffffff8000207e81: 48 63 0c 88          	movslq	(%rax,%rcx,4), %rcx
ffffff8000207e85: 48 01 c1             	addq	%rax, %rcx
ffffff8000207e88: ff e1                	jmpq	*%rcx
ffffff8000207e8a: 66 0f 1f 44 00 00    	nopw	(%rax,%rax)
ffffff8000207e90: 48 89 df             	movq	%rbx, %rdi
ffffff8000207e93: 41 ff d5             	callq	*%r13
ffffff8000207e96: 84 c0                	testb	%al, %al
ffffff8000207e98: 0f 85 cc fd ff ff    	jne	0xffffff8000207c6a <_ZN41_$LT$char$u20$as$u20$core..fmt..Debug$GT$3fmt17h32e01e00aeb272a8E+0x2a>
ffffff8000207e9e: 8d 85 00 00 ef ff    	leal	-1114112(%rbp), %eax
ffffff8000207ea4: 81 fd 00 00 11 00    	cmpl	$1114112, %ebp          # imm = 0x110000
ffffff8000207eaa: b9 03 00 00 00       	movl	$3, %ecx
ffffff8000207eaf: 0f 43 c8             	cmovael	%eax, %ecx
ffffff8000207eb2: be 5c 00 00 00       	movl	$92, %esi
ffffff8000207eb7: 48 8d 05 b6 1a 00 00 	leaq	6838(%rip), %rax        # 0xffffff8000209974 <trap_handler_table+0x974>
ffffff8000207ebe: 48 63 0c 88          	movslq	(%rax,%rcx,4), %rcx
ffffff8000207ec2: 48 01 c1             	addq	%rax, %rcx
ffffff8000207ec5: 89 ea                	movl	%ebp, %edx
ffffff8000207ec7: bd 01 00 11 00       	movl	$1114113, %ebp          # imm = 0x110001
ffffff8000207ecc: ff e1                	jmpq	*%rcx
ffffff8000207ece: bd 00 00 11 00       	movl	$1114112, %ebp          # imm = 0x110000
ffffff8000207ed3: 44 89 f6             	movl	%r14d, %esi
ffffff8000207ed6: 41 81 fe 00 00 11 00 	cmpl	$1114112, %r14d         # imm = 0x110000
ffffff8000207edd: 75 b1                	jne	0xffffff8000207e90 <_ZN41_$LT$char$u20$as$u20$core..fmt..Debug$GT$3fmt17h32e01e00aeb272a8E+0x250>
ffffff8000207edf: 48 89 df             	movq	%rbx, %rdi
ffffff8000207ee2: be 27 00 00 00       	movl	$39, %esi
ffffff8000207ee7: 4c 89 e8             	movq	%r13, %rax
ffffff8000207eea: 48 83 c4 08          	addq	$8, %rsp
ffffff8000207eee: 5b                   	popq	%rbx
ffffff8000207eef: 41 5c                	popq	%r12
ffffff8000207ef1: 41 5d                	popq	%r13
ffffff8000207ef3: 41 5e                	popq	%r14
ffffff8000207ef5: 41 5f                	popq	%r15
ffffff8000207ef7: 5d                   	popq	%rbp
ffffff8000207ef8: ff e0                	jmpq	*%rax
ffffff8000207efa: be 7d 00 00 00       	movl	$125, %esi
ffffff8000207eff: 41 0f b6 c4          	movzbl	%r12b, %eax
ffffff8000207f03: 48 8d 0d 7a 1a 00 00 	leaq	6778(%rip), %rcx        # 0xffffff8000209984 <trap_handler_table+0x984>
ffffff8000207f0a: 48 63 04 81          	movslq	(%rcx,%rax,4), %rax
ffffff8000207f0e: 48 01 c8             	addq	%rcx, %rax
ffffff8000207f11: 45 31 e4             	xorl	%r12d, %r12d
ffffff8000207f14: 89 d5                	movl	%edx, %ebp
ffffff8000207f16: ff e0                	jmpq	*%rax
ffffff8000207f18: 49 83 fe 01          	cmpq	$1, %r14
ffffff8000207f1c: 41 b4 02             	movb	$2, %r12b
ffffff8000207f1f: 41 80 dc 00          	sbbb	$0, %r12b
ffffff8000207f23: 31 c0                	xorl	%eax, %eax
ffffff8000207f25: 4c 89 f1             	movq	%r14, %rcx
ffffff8000207f28: 48 83 e9 01          	subq	$1, %rcx
ffffff8000207f2c: 48 0f 43 c1          	cmovaeq	%rcx, %rax
ffffff8000207f30: 41 c1 e6 02          	shll	$2, %r14d
ffffff8000207f34: 89 d7                	movl	%edx, %edi
ffffff8000207f36: 44 89 f1             	movl	%r14d, %ecx
ffffff8000207f39: d3 ef                	shrl	%cl, %edi
ffffff8000207f3b: 83 e7 0f             	andl	$15, %edi
ffffff8000207f3e: 8d 4f 57             	leal	87(%rdi), %ecx
ffffff8000207f41: 89 fe                	movl	%edi, %esi
ffffff8000207f43: 83 ce 30             	orl	$48, %esi
ffffff8000207f46: 40 80 ff 0a          	cmpb	$10, %dil
ffffff8000207f4a: 0f 43 f1             	cmovael	%ecx, %esi
ffffff8000207f4d: 89 d5                	movl	%edx, %ebp
ffffff8000207f4f: 49 89 c6             	movq	%rax, %r14
ffffff8000207f52: e9 39 ff ff ff       	jmp	0xffffff8000207e90 <_ZN41_$LT$char$u20$as$u20$core..fmt..Debug$GT$3fmt17h32e01e00aeb272a8E+0x250>
ffffff8000207f57: 41 b4 02             	movb	$2, %r12b
ffffff8000207f5a: be 7b 00 00 00       	movl	$123, %esi
ffffff8000207f5f: 89 d5                	movl	%edx, %ebp
ffffff8000207f61: e9 2a ff ff ff       	jmp	0xffffff8000207e90 <_ZN41_$LT$char$u20$as$u20$core..fmt..Debug$GT$3fmt17h32e01e00aeb272a8E+0x250>
ffffff8000207f66: 41 b4 03             	movb	$3, %r12b
ffffff8000207f69: be 75 00 00 00       	movl	$117, %esi
ffffff8000207f6e: 89 d5                	movl	%edx, %ebp
ffffff8000207f70: e9 1b ff ff ff       	jmp	0xffffff8000207e90 <_ZN41_$LT$char$u20$as$u20$core..fmt..Debug$GT$3fmt17h32e01e00aeb272a8E+0x250>
ffffff8000207f75: 41 b4 04             	movb	$4, %r12b
ffffff8000207f78: be 5c 00 00 00       	movl	$92, %esi
ffffff8000207f7d: 89 d5                	movl	%edx, %ebp
ffffff8000207f7f: e9 0c ff ff ff       	jmp	0xffffff8000207e90 <_ZN41_$LT$char$u20$as$u20$core..fmt..Debug$GT$3fmt17h32e01e00aeb272a8E+0x250>
ffffff8000207f84: cc                   	int3
ffffff8000207f85: cc                   	int3
ffffff8000207f86: cc                   	int3
ffffff8000207f87: cc                   	int3
ffffff8000207f88: cc                   	int3
ffffff8000207f89: cc                   	int3
ffffff8000207f8a: cc                   	int3
ffffff8000207f8b: cc                   	int3
ffffff8000207f8c: cc                   	int3
ffffff8000207f8d: cc                   	int3
ffffff8000207f8e: cc                   	int3
ffffff8000207f8f: cc                   	int3

ffffff8000207f90 <_ZN71_$LT$core..ops..range..Range$LT$Idx$GT$$u20$as$u20$core..fmt..Debug$GT$3fmt17h426c5b91468c7882E>:
ffffff8000207f90: 41 56                	pushq	%r14
ffffff8000207f92: 53                   	pushq	%rbx
ffffff8000207f93: 48 83 ec 38          	subq	$56, %rsp
ffffff8000207f97: 48 89 f3             	movq	%rsi, %rbx
ffffff8000207f9a: 49 89 fe             	movq	%rdi, %r14
ffffff8000207f9d: 48 8b 3f             	movq	(%rdi), %rdi
ffffff8000207fa0: e8 3b e6 ff ff       	callq	0xffffff80002065e0 <_ZN4core3fmt3num50_$LT$impl$u20$core..fmt..Debug$u20$for$u20$u64$GT$3fmt17h7dd8586018e85dc2E.179>
ffffff8000207fa5: 84 c0                	testb	%al, %al
ffffff8000207fa7: 75 48                	jne	0xffffff8000207ff1 <_ZN71_$LT$core..ops..range..Range$LT$Idx$GT$$u20$as$u20$core..fmt..Debug$GT$3fmt17h426c5b91468c7882E+0x61>
ffffff8000207fa9: 48 8b 3b             	movq	(%rbx), %rdi
ffffff8000207fac: 48 8b 73 08          	movq	8(%rbx), %rsi
ffffff8000207fb0: 48 c7 44 24 08 00 00 00 00   	movq	$0, 8(%rsp)
ffffff8000207fb9: 48 8d 05 10 88 00 00 	leaq	34832(%rip), %rax       # 0xffffff80002107d0 <_ZN5axhal8platform6pc_x864time12CPU_FREQ_MHZ17hcbee90971ca93e77E.0+0x648>
ffffff8000207fc0: 48 89 44 24 18       	movq	%rax, 24(%rsp)
ffffff8000207fc5: 48 c7 44 24 20 01 00 00 00   	movq	$1, 32(%rsp)
ffffff8000207fce: 48 8b 05 3b 8d 00 00 	movq	36155(%rip), %rax       # 0xffffff8000210d10 <_ZN3log6LOGGER17h48756037b7073395E.1+0x110>
ffffff8000207fd5: 48 89 44 24 28       	movq	%rax, 40(%rsp)
ffffff8000207fda: 48 c7 44 24 30 00 00 00 00   	movq	$0, 48(%rsp)
ffffff8000207fe3: 48 8d 54 24 08       	leaq	8(%rsp), %rdx
ffffff8000207fe8: e8 d3 e3 ff ff       	callq	0xffffff80002063c0 <_ZN4core3fmt5write17h3e64ac24810c32e1E>
ffffff8000207fed: 84 c0                	testb	%al, %al
ffffff8000207fef: 74 0a                	je	0xffffff8000207ffb <_ZN71_$LT$core..ops..range..Range$LT$Idx$GT$$u20$as$u20$core..fmt..Debug$GT$3fmt17h426c5b91468c7882E+0x6b>
ffffff8000207ff1: b0 01                	movb	$1, %al
ffffff8000207ff3: 48 83 c4 38          	addq	$56, %rsp
ffffff8000207ff7: 5b                   	popq	%rbx
ffffff8000207ff8: 41 5e                	popq	%r14
ffffff8000207ffa: c3                   	retq
ffffff8000207ffb: 49 8b 7e 08          	movq	8(%r14), %rdi
ffffff8000207fff: 48 89 de             	movq	%rbx, %rsi
ffffff8000208002: 48 83 c4 38          	addq	$56, %rsp
ffffff8000208006: 5b                   	popq	%rbx
ffffff8000208007: 41 5e                	popq	%r14
ffffff8000208009: e9 d2 e5 ff ff       	jmp	0xffffff80002065e0 <_ZN4core3fmt3num50_$LT$impl$u20$core..fmt..Debug$u20$for$u20$u64$GT$3fmt17h7dd8586018e85dc2E.179>
ffffff800020800e: cc                   	int3
ffffff800020800f: cc                   	int3

ffffff8000208010 <_ZN4core3fmt3num53_$LT$impl$u20$core..fmt..LowerHex$u20$for$u20$i64$GT$3fmt17h4fa87f856a4ce963E>:
ffffff8000208010: 48 81 ec 88 00 00 00 	subq	$136, %rsp
ffffff8000208017: 48 8b 07             	movq	(%rdi), %rax
ffffff800020801a: 4c 8d 84 24 88 00 00 00      	leaq	136(%rsp), %r8
ffffff8000208022: 45 31 c9             	xorl	%r9d, %r9d
ffffff8000208025: 41 ba 30 00 00 00    	movl	$48, %r10d
ffffff800020802b: 48 89 c2             	movq	%rax, %rdx
ffffff800020802e: 66 90                	nop
ffffff8000208030: 48 c1 ea 04          	shrq	$4, %rdx
ffffff8000208034: 89 c1                	movl	%eax, %ecx
ffffff8000208036: 80 e1 0f             	andb	$15, %cl
ffffff8000208039: 80 f9 0a             	cmpb	$10, %cl
ffffff800020803c: bf 57 00 00 00       	movl	$87, %edi
ffffff8000208041: 41 0f 42 fa          	cmovbl	%r10d, %edi
ffffff8000208045: 40 00 cf             	addb	%cl, %dil
ffffff8000208048: 41 88 78 ff          	movb	%dil, -1(%r8)
ffffff800020804c: 49 ff c8             	decq	%r8
ffffff800020804f: 49 ff c1             	incq	%r9
ffffff8000208052: 48 83 f8 0f          	cmpq	$15, %rax
ffffff8000208056: 48 89 d0             	movq	%rdx, %rax
ffffff8000208059: 77 d5                	ja	0xffffff8000208030 <_ZN4core3fmt3num53_$LT$impl$u20$core..fmt..LowerHex$u20$for$u20$i64$GT$3fmt17h4fa87f856a4ce963E+0x20>
ffffff800020805b: bf 80 00 00 00       	movl	$128, %edi
ffffff8000208060: 4c 29 cf             	subq	%r9, %rdi
ffffff8000208063: 48 81 ff 81 00 00 00 	cmpq	$129, %rdi
ffffff800020806a: 73 21                	jae	0xffffff800020808d <_ZN4core3fmt3num53_$LT$impl$u20$core..fmt..LowerHex$u20$for$u20$i64$GT$3fmt17h4fa87f856a4ce963E+0x7d>
ffffff800020806c: 48 8d 15 db 22 00 00 	leaq	8923(%rip), %rdx        # 0xffffff800020a34e <str.0+0x62e>
ffffff8000208073: b9 02 00 00 00       	movl	$2, %ecx
ffffff8000208078: 48 89 f7             	movq	%rsi, %rdi
ffffff800020807b: be 01 00 00 00       	movl	$1, %esi
ffffff8000208080: e8 fb d6 ff ff       	callq	0xffffff8000205780 <_ZN4core3fmt9Formatter12pad_integral17h43fecee5ed9182e1E>
ffffff8000208085: 48 81 c4 88 00 00 00 	addq	$136, %rsp
ffffff800020808c: c3                   	retq
ffffff800020808d: 48 8d 15 2c 88 00 00 	leaq	34860(%rip), %rdx       # 0xffffff80002108c0 <_ZN5axhal8platform6pc_x864time12CPU_FREQ_MHZ17hcbee90971ca93e77E.0+0x738>
ffffff8000208094: be 80 00 00 00       	movl	$128, %esi
ffffff8000208099: e8 52 da ff ff       	callq	0xffffff8000205af0 <_ZN4core5slice5index26slice_start_index_len_fail17h2bd13147effaa2ceE>
ffffff800020809e: 0f 0b                	ud2

ffffff80002080a0 <_ZN4core3fmt3num3imp52_$LT$impl$u20$core..fmt..Display$u20$for$u20$i32$GT$3fmt17hf2b97c49f5936fcbE>:
ffffff80002080a0: 53                   	pushq	%rbx
ffffff80002080a1: 48 83 ec 30          	subq	$48, %rsp
ffffff80002080a5: 49 89 f2             	movq	%rsi, %r10
ffffff80002080a8: 48 63 37             	movslq	(%rdi), %rsi
ffffff80002080ab: 48 89 f0             	movq	%rsi, %rax
ffffff80002080ae: 48 f7 d8             	negq	%rax
ffffff80002080b1: 48 85 f6             	testq	%rsi, %rsi
ffffff80002080b4: 41 89 f3             	movl	%esi, %r11d
ffffff80002080b7: 4c 0f 48 d8          	cmovsq	%rax, %r11
ffffff80002080bb: b8 27 00 00 00       	movl	$39, %eax
ffffff80002080c0: 49 81 fb 10 27 00 00 	cmpq	$10000, %r11            # imm = 0x2710
ffffff80002080c7: 0f 82 bc 00 00 00    	jb	0xffffff8000208189 <_ZN4core3fmt3num3imp52_$LT$impl$u20$core..fmt..Display$u20$for$u20$i32$GT$3fmt17hf2b97c49f5936fcbE+0xe9>
ffffff80002080cd: b9 27 00 00 00       	movl	$39, %ecx
ffffff80002080d2: 49 b8 4b 59 86 38 d6 c5 6d 34	movabsq	$3777893186295716171, %r8 # imm = 0x346DC5D63886594B
ffffff80002080dc: 4c 8d 0d 6d 22 00 00 	leaq	8813(%rip), %r9         # 0xffffff800020a350 <str.0+0x630>
ffffff80002080e3: 66 66 66 66 2e 0f 1f 84 00 00 00 00 00       	nopw	%cs:(%rax,%rax)
ffffff80002080f0: 4c 89 d8             	movq	%r11, %rax
ffffff80002080f3: 49 f7 e0             	mulq	%r8
ffffff80002080f6: 48 c1 ea 0b          	shrq	$11, %rdx
ffffff80002080fa: 69 c2 10 27 00 00    	imull	$10000, %edx, %eax      # imm = 0x2710
ffffff8000208100: 44 89 df             	movl	%r11d, %edi
ffffff8000208103: 29 c7                	subl	%eax, %edi
ffffff8000208105: 0f b7 c7             	movzwl	%di, %eax
ffffff8000208108: c1 e8 02             	shrl	$2, %eax
ffffff800020810b: 69 d8 7b 14 00 00    	imull	$5243, %eax, %ebx       # imm = 0x147B
ffffff8000208111: c1 eb 11             	shrl	$17, %ebx
ffffff8000208114: 6b c3 64             	imull	$100, %ebx, %eax
ffffff8000208117: 29 c7                	subl	%eax, %edi
ffffff8000208119: 0f b7 ff             	movzwl	%di, %edi
ffffff800020811c: 48 8d 41 fc          	leaq	-4(%rcx), %rax
ffffff8000208120: 41 0f b7 1c 59       	movzwl	(%r9,%rbx,2), %ebx
ffffff8000208125: 66 89 5c 0c 05       	movw	%bx, 5(%rsp,%rcx)
ffffff800020812a: 41 0f b7 3c 79       	movzwl	(%r9,%rdi,2), %edi
ffffff800020812f: 66 89 7c 0c 07       	movw	%di, 7(%rsp,%rcx)
ffffff8000208134: 48 89 c1             	movq	%rax, %rcx
ffffff8000208137: 49 81 fb ff e0 f5 05 	cmpq	$99999999, %r11         # imm = 0x5F5E0FF
ffffff800020813e: 49 89 d3             	movq	%rdx, %r11
ffffff8000208141: 77 ad                	ja	0xffffff80002080f0 <_ZN4core3fmt3num3imp52_$LT$impl$u20$core..fmt..Display$u20$for$u20$i32$GT$3fmt17hf2b97c49f5936fcbE+0x50>
ffffff8000208143: 48 83 fa 63          	cmpq	$99, %rdx
ffffff8000208147: 76 2e                	jbe	0xffffff8000208177 <_ZN4core3fmt3num3imp52_$LT$impl$u20$core..fmt..Display$u20$for$u20$i32$GT$3fmt17hf2b97c49f5936fcbE+0xd7>
ffffff8000208149: 0f b7 ca             	movzwl	%dx, %ecx
ffffff800020814c: c1 e9 02             	shrl	$2, %ecx
ffffff800020814f: 69 c9 7b 14 00 00    	imull	$5243, %ecx, %ecx       # imm = 0x147B
ffffff8000208155: c1 e9 11             	shrl	$17, %ecx
ffffff8000208158: 6b f9 64             	imull	$100, %ecx, %edi
ffffff800020815b: 29 fa                	subl	%edi, %edx
ffffff800020815d: 0f b7 d2             	movzwl	%dx, %edx
ffffff8000208160: 48 8d 3d e9 21 00 00 	leaq	8681(%rip), %rdi        # 0xffffff800020a350 <str.0+0x630>
ffffff8000208167: 0f b7 14 57          	movzwl	(%rdi,%rdx,2), %edx
ffffff800020816b: 66 89 54 04 07       	movw	%dx, 7(%rsp,%rax)
ffffff8000208170: 48 83 c0 fe          	addq	$-2, %rax
ffffff8000208174: 48 89 ca             	movq	%rcx, %rdx
ffffff8000208177: 48 83 fa 0a          	cmpq	$10, %rdx
ffffff800020817b: 73 17                	jae	0xffffff8000208194 <_ZN4core3fmt3num3imp52_$LT$impl$u20$core..fmt..Display$u20$for$u20$i32$GT$3fmt17hf2b97c49f5936fcbE+0xf4>
ffffff800020817d: 80 c2 30             	addb	$48, %dl
ffffff8000208180: 88 54 04 08          	movb	%dl, 8(%rsp,%rax)
ffffff8000208184: 48 ff c8             	decq	%rax
ffffff8000208187: eb 1f                	jmp	0xffffff80002081a8 <_ZN4core3fmt3num3imp52_$LT$impl$u20$core..fmt..Display$u20$for$u20$i32$GT$3fmt17hf2b97c49f5936fcbE+0x108>
ffffff8000208189: 4c 89 da             	movq	%r11, %rdx
ffffff800020818c: 48 83 fa 63          	cmpq	$99, %rdx
ffffff8000208190: 77 b7                	ja	0xffffff8000208149 <_ZN4core3fmt3num3imp52_$LT$impl$u20$core..fmt..Display$u20$for$u20$i32$GT$3fmt17hf2b97c49f5936fcbE+0xa9>
ffffff8000208192: eb e3                	jmp	0xffffff8000208177 <_ZN4core3fmt3num3imp52_$LT$impl$u20$core..fmt..Display$u20$for$u20$i32$GT$3fmt17hf2b97c49f5936fcbE+0xd7>
ffffff8000208194: 48 8d 0d b5 21 00 00 	leaq	8629(%rip), %rcx        # 0xffffff800020a350 <str.0+0x630>
ffffff800020819b: 0f b7 0c 51          	movzwl	(%rcx,%rdx,2), %ecx
ffffff800020819f: 66 89 4c 04 07       	movw	%cx, 7(%rsp,%rax)
ffffff80002081a4: 48 83 c0 fe          	addq	$-2, %rax
ffffff80002081a8: 4c 8d 04 04          	leaq	(%rsp,%rax), %r8
ffffff80002081ac: 49 83 c0 09          	addq	$9, %r8
ffffff80002081b0: 41 b9 27 00 00 00    	movl	$39, %r9d
ffffff80002081b6: 49 29 c1             	subq	%rax, %r9
ffffff80002081b9: f7 d6                	notl	%esi
ffffff80002081bb: c1 ee 1f             	shrl	$31, %esi
ffffff80002081be: 48 8b 15 4b 8b 00 00 	movq	35659(%rip), %rdx       # 0xffffff8000210d10 <_ZN3log6LOGGER17h48756037b7073395E.1+0x110>
ffffff80002081c5: 4c 89 d7             	movq	%r10, %rdi
ffffff80002081c8: 31 c9                	xorl	%ecx, %ecx
ffffff80002081ca: e8 b1 d5 ff ff       	callq	0xffffff8000205780 <_ZN4core3fmt9Formatter12pad_integral17h43fecee5ed9182e1E>
ffffff80002081cf: 48 83 c4 30          	addq	$48, %rsp
ffffff80002081d3: 5b                   	popq	%rbx
ffffff80002081d4: c3                   	retq
ffffff80002081d5: cc                   	int3
ffffff80002081d6: cc                   	int3
ffffff80002081d7: cc                   	int3
ffffff80002081d8: cc                   	int3
ffffff80002081d9: cc                   	int3
ffffff80002081da: cc                   	int3
ffffff80002081db: cc                   	int3
ffffff80002081dc: cc                   	int3
ffffff80002081dd: cc                   	int3
ffffff80002081de: cc                   	int3
ffffff80002081df: cc                   	int3

ffffff80002081e0 <_ZN44_$LT$$RF$T$u20$as$u20$core..fmt..Display$GT$3fmt17h826ed5806fed4bf7E>:
ffffff80002081e0: 48 89 f0             	movq	%rsi, %rax
ffffff80002081e3: 48 8b 37             	movq	(%rdi), %rsi
ffffff80002081e6: 48 8b 57 08          	movq	8(%rdi), %rdx
ffffff80002081ea: 48 89 c7             	movq	%rax, %rdi
ffffff80002081ed: e9 1e da ff ff       	jmp	0xffffff8000205c10 <_ZN4core3fmt9Formatter3pad17hf52b0532a0c80643E>
ffffff80002081f2: cc                   	int3
ffffff80002081f3: cc                   	int3
ffffff80002081f4: cc                   	int3
ffffff80002081f5: cc                   	int3
ffffff80002081f6: cc                   	int3
ffffff80002081f7: cc                   	int3
ffffff80002081f8: cc                   	int3
ffffff80002081f9: cc                   	int3
ffffff80002081fa: cc                   	int3
ffffff80002081fb: cc                   	int3
ffffff80002081fc: cc                   	int3
ffffff80002081fd: cc                   	int3
ffffff80002081fe: cc                   	int3
ffffff80002081ff: cc                   	int3

ffffff8000208200 <_ZN4core3fmt5Write10write_char17ha8ea6a5ebf78fa8eE>:
ffffff8000208200: 50                   	pushq	%rax
ffffff8000208201: c7 44 24 04 00 00 00 00      	movl	$0, 4(%rsp)
ffffff8000208209: 81 fe 80 00 00 00    	cmpl	$128, %esi
ffffff800020820f: 73 0f                	jae	0xffffff8000208220 <_ZN4core3fmt5Write10write_char17ha8ea6a5ebf78fa8eE+0x20>
ffffff8000208211: 40 88 74 24 04       	movb	%sil, 4(%rsp)
ffffff8000208216: b8 01 00 00 00       	movl	$1, %eax
ffffff800020821b: e9 90 00 00 00       	jmp	0xffffff80002082b0 <_ZN4core3fmt5Write10write_char17ha8ea6a5ebf78fa8eE+0xb0>
ffffff8000208220: 89 f0                	movl	%esi, %eax
ffffff8000208222: 81 fe 00 08 00 00    	cmpl	$2048, %esi             # imm = 0x800
ffffff8000208228: 73 1d                	jae	0xffffff8000208247 <_ZN4core3fmt5Write10write_char17ha8ea6a5ebf78fa8eE+0x47>
ffffff800020822a: c1 e8 06             	shrl	$6, %eax
ffffff800020822d: 0c c0                	orb	$-64, %al
ffffff800020822f: 88 44 24 04          	movb	%al, 4(%rsp)
ffffff8000208233: 40 80 e6 3f          	andb	$63, %sil
ffffff8000208237: 40 80 ce 80          	orb	$-128, %sil
ffffff800020823b: 40 88 74 24 05       	movb	%sil, 5(%rsp)
ffffff8000208240: b8 02 00 00 00       	movl	$2, %eax
ffffff8000208245: eb 69                	jmp	0xffffff80002082b0 <_ZN4core3fmt5Write10write_char17ha8ea6a5ebf78fa8eE+0xb0>
ffffff8000208247: 81 fe 00 00 01 00    	cmpl	$65536, %esi            # imm = 0x10000
ffffff800020824d: 73 2a                	jae	0xffffff8000208279 <_ZN4core3fmt5Write10write_char17ha8ea6a5ebf78fa8eE+0x79>
ffffff800020824f: c1 e8 0c             	shrl	$12, %eax
ffffff8000208252: 0c e0                	orb	$-32, %al
ffffff8000208254: 88 44 24 04          	movb	%al, 4(%rsp)
ffffff8000208258: 89 f0                	movl	%esi, %eax
ffffff800020825a: c1 e8 06             	shrl	$6, %eax
ffffff800020825d: 24 3f                	andb	$63, %al
ffffff800020825f: 0c 80                	orb	$-128, %al
ffffff8000208261: 88 44 24 05          	movb	%al, 5(%rsp)
ffffff8000208265: 40 80 e6 3f          	andb	$63, %sil
ffffff8000208269: 40 80 ce 80          	orb	$-128, %sil
ffffff800020826d: 40 88 74 24 06       	movb	%sil, 6(%rsp)
ffffff8000208272: b8 03 00 00 00       	movl	$3, %eax
ffffff8000208277: eb 37                	jmp	0xffffff80002082b0 <_ZN4core3fmt5Write10write_char17ha8ea6a5ebf78fa8eE+0xb0>
ffffff8000208279: c1 e8 12             	shrl	$18, %eax
ffffff800020827c: 24 07                	andb	$7, %al
ffffff800020827e: 0c f0                	orb	$-16, %al
ffffff8000208280: 88 44 24 04          	movb	%al, 4(%rsp)
ffffff8000208284: 89 f0                	movl	%esi, %eax
ffffff8000208286: c1 e8 0c             	shrl	$12, %eax
ffffff8000208289: 24 3f                	andb	$63, %al
ffffff800020828b: 0c 80                	orb	$-128, %al
ffffff800020828d: 88 44 24 05          	movb	%al, 5(%rsp)
ffffff8000208291: 89 f0                	movl	%esi, %eax
ffffff8000208293: c1 e8 06             	shrl	$6, %eax
ffffff8000208296: 24 3f                	andb	$63, %al
ffffff8000208298: 0c 80                	orb	$-128, %al
ffffff800020829a: 88 44 24 06          	movb	%al, 6(%rsp)
ffffff800020829e: 40 80 e6 3f          	andb	$63, %sil
ffffff80002082a2: 40 80 ce 80          	orb	$-128, %sil
ffffff80002082a6: 40 88 74 24 07       	movb	%sil, 7(%rsp)
ffffff80002082ab: b8 04 00 00 00       	movl	$4, %eax
ffffff80002082b0: 9c                   	pushfq
ffffff80002082b1: 41 58                	popq	%r8
ffffff80002082b3: fa                   	cli
ffffff80002082b4: 4c 8d 0c 04          	leaq	(%rsp,%rax), %r9
ffffff80002082b8: 49 83 c1 04          	addq	$4, %r9
ffffff80002082bc: 48 8d 74 24 04       	leaq	4(%rsp), %rsi
ffffff80002082c1: eb 13                	jmp	0xffffff80002082d6 <_ZN4core3fmt5Write10write_char17ha8ea6a5ebf78fa8eE+0xd6>
ffffff80002082c3: 66 66 66 66 2e 0f 1f 84 00 00 00 00 00       	nopw	%cs:(%rax,%rax)
ffffff80002082d0: fb                   	sti
ffffff80002082d1: 4c 39 ce             	cmpq	%r9, %rsi
ffffff80002082d4: 74 6b                	je	0xffffff8000208341 <_ZN4core3fmt5Write10write_char17ha8ea6a5ebf78fa8eE+0x141>
ffffff80002082d6: 0f b6 0e             	movzbl	(%rsi), %ecx
ffffff80002082d9: 9c                   	pushfq
ffffff80002082da: 5f                   	popq	%rdi
ffffff80002082db: fa                   	cli
ffffff80002082dc: 80 f9 0a             	cmpb	$10, %cl
ffffff80002082df: 75 3f                	jne	0xffffff8000208320 <_ZN4core3fmt5Write10write_char17ha8ea6a5ebf78fa8eE+0x120>
ffffff80002082e1: 66 66 66 66 66 66 2e 0f 1f 84 00 00 00 00 00 	nopw	%cs:(%rax,%rax)
ffffff80002082f0: 66 ba fd 03          	movw	$1021, %dx              # imm = 0x3FD
ffffff80002082f4: ec                   	inb	%dx, %al
ffffff80002082f5: a8 20                	testb	$32, %al
ffffff80002082f7: 74 f7                	je	0xffffff80002082f0 <_ZN4core3fmt5Write10write_char17ha8ea6a5ebf78fa8eE+0xf0>
ffffff80002082f9: 66 ba f8 03          	movw	$1016, %dx              # imm = 0x3F8
ffffff80002082fd: b0 0d                	movb	$13, %al
ffffff80002082ff: ee                   	outb	%al, %dx
ffffff8000208300: 66 ba fd 03          	movw	$1021, %dx              # imm = 0x3FD
ffffff8000208304: ec                   	inb	%dx, %al
ffffff8000208305: a8 20                	testb	$32, %al
ffffff8000208307: 74 f7                	je	0xffffff8000208300 <_ZN4core3fmt5Write10write_char17ha8ea6a5ebf78fa8eE+0x100>
ffffff8000208309: 66 ba f8 03          	movw	$1016, %dx              # imm = 0x3F8
ffffff800020830d: b0 0a                	movb	$10, %al
ffffff800020830f: ee                   	outb	%al, %dx
ffffff8000208310: 48 ff c6             	incq	%rsi
ffffff8000208313: f7 c7 00 02 00 00    	testl	$512, %edi              # imm = 0x200
ffffff8000208319: 75 b5                	jne	0xffffff80002082d0 <_ZN4core3fmt5Write10write_char17ha8ea6a5ebf78fa8eE+0xd0>
ffffff800020831b: eb 1e                	jmp	0xffffff800020833b <_ZN4core3fmt5Write10write_char17ha8ea6a5ebf78fa8eE+0x13b>
ffffff800020831d: 0f 1f 00             	nopl	(%rax)
ffffff8000208320: 66 ba fd 03          	movw	$1021, %dx              # imm = 0x3FD
ffffff8000208324: ec                   	inb	%dx, %al
ffffff8000208325: a8 20                	testb	$32, %al
ffffff8000208327: 74 f7                	je	0xffffff8000208320 <_ZN4core3fmt5Write10write_char17ha8ea6a5ebf78fa8eE+0x120>
ffffff8000208329: 66 ba f8 03          	movw	$1016, %dx              # imm = 0x3F8
ffffff800020832d: 89 c8                	movl	%ecx, %eax
ffffff800020832f: ee                   	outb	%al, %dx
ffffff8000208330: 48 ff c6             	incq	%rsi
ffffff8000208333: f7 c7 00 02 00 00    	testl	$512, %edi              # imm = 0x200
ffffff8000208339: 75 95                	jne	0xffffff80002082d0 <_ZN4core3fmt5Write10write_char17ha8ea6a5ebf78fa8eE+0xd0>
ffffff800020833b: fa                   	cli
ffffff800020833c: 4c 39 ce             	cmpq	%r9, %rsi
ffffff800020833f: 75 95                	jne	0xffffff80002082d6 <_ZN4core3fmt5Write10write_char17ha8ea6a5ebf78fa8eE+0xd6>
ffffff8000208341: 41 f7 c0 00 02 00 00 	testl	$512, %r8d              # imm = 0x200
ffffff8000208348: 75 05                	jne	0xffffff800020834f <_ZN4core3fmt5Write10write_char17ha8ea6a5ebf78fa8eE+0x14f>
ffffff800020834a: fa                   	cli
ffffff800020834b: 31 c0                	xorl	%eax, %eax
ffffff800020834d: 59                   	popq	%rcx
ffffff800020834e: c3                   	retq
ffffff800020834f: fb                   	sti
ffffff8000208350: 31 c0                	xorl	%eax, %eax
ffffff8000208352: 59                   	popq	%rcx
ffffff8000208353: c3                   	retq
ffffff8000208354: cc                   	int3
ffffff8000208355: cc                   	int3
ffffff8000208356: cc                   	int3
ffffff8000208357: cc                   	int3
ffffff8000208358: cc                   	int3
ffffff8000208359: cc                   	int3
ffffff800020835a: cc                   	int3
ffffff800020835b: cc                   	int3
ffffff800020835c: cc                   	int3
ffffff800020835d: cc                   	int3
ffffff800020835e: cc                   	int3
ffffff800020835f: cc                   	int3

ffffff8000208360 <_ZN4core3fmt5Write9write_fmt17h5922923a1e2eeda2E>:
ffffff8000208360: 48 83 ec 38          	subq	$56, %rsp
ffffff8000208364: 48 89 3c 24          	movq	%rdi, (%rsp)
ffffff8000208368: 48 8b 46 28          	movq	40(%rsi), %rax
ffffff800020836c: 48 89 44 24 30       	movq	%rax, 48(%rsp)
ffffff8000208371: 48 8b 46 20          	movq	32(%rsi), %rax
ffffff8000208375: 48 89 44 24 28       	movq	%rax, 40(%rsp)
ffffff800020837a: 48 8b 46 18          	movq	24(%rsi), %rax
ffffff800020837e: 48 89 44 24 20       	movq	%rax, 32(%rsp)
ffffff8000208383: 48 8b 46 10          	movq	16(%rsi), %rax
ffffff8000208387: 48 89 44 24 18       	movq	%rax, 24(%rsp)
ffffff800020838c: 48 8b 06             	movq	(%rsi), %rax
ffffff800020838f: 48 8b 4e 08          	movq	8(%rsi), %rcx
ffffff8000208393: 48 89 4c 24 10       	movq	%rcx, 16(%rsp)
ffffff8000208398: 48 89 44 24 08       	movq	%rax, 8(%rsp)
ffffff800020839d: 48 8d 35 dc 87 00 00 	leaq	34780(%rip), %rsi       # 0xffffff8000210b80 <_ZN5axhal8platform6pc_x864time12CPU_FREQ_MHZ17hcbee90971ca93e77E.0+0x9f8>
ffffff80002083a4: 48 89 e7             	movq	%rsp, %rdi
ffffff80002083a7: 48 8d 54 24 08       	leaq	8(%rsp), %rdx
ffffff80002083ac: e8 0f e0 ff ff       	callq	0xffffff80002063c0 <_ZN4core3fmt5write17h3e64ac24810c32e1E>
ffffff80002083b1: 48 83 c4 38          	addq	$56, %rsp
ffffff80002083b5: c3                   	retq
ffffff80002083b6: cc                   	int3
ffffff80002083b7: cc                   	int3
ffffff80002083b8: cc                   	int3
ffffff80002083b9: cc                   	int3
ffffff80002083ba: cc                   	int3
ffffff80002083bb: cc                   	int3
ffffff80002083bc: cc                   	int3
ffffff80002083bd: cc                   	int3
ffffff80002083be: cc                   	int3
ffffff80002083bf: cc                   	int3

ffffff80002083c0 <_ZN50_$LT$$RF$mut$u20$W$u20$as$u20$core..fmt..Write$GT$9write_str17he5332886e618b953E>:
ffffff80002083c0: 50                   	pushq	%rax
ffffff80002083c1: 48 85 d2             	testq	%rdx, %rdx
ffffff80002083c4: 0f 84 91 00 00 00    	je	0xffffff800020845b <_ZN50_$LT$$RF$mut$u20$W$u20$as$u20$core..fmt..Write$GT$9write_str17he5332886e618b953E+0x9b>
ffffff80002083ca: 49 89 d1             	movq	%rdx, %r9
ffffff80002083cd: 9c                   	pushfq
ffffff80002083ce: 41 58                	popq	%r8
ffffff80002083d0: fa                   	cli
ffffff80002083d1: 49 01 f1             	addq	%rsi, %r9
ffffff80002083d4: eb 10                	jmp	0xffffff80002083e6 <_ZN50_$LT$$RF$mut$u20$W$u20$as$u20$core..fmt..Write$GT$9write_str17he5332886e618b953E+0x26>
ffffff80002083d6: 66 2e 0f 1f 84 00 00 00 00 00	nopw	%cs:(%rax,%rax)
ffffff80002083e0: fb                   	sti
ffffff80002083e1: 4c 39 ce             	cmpq	%r9, %rsi
ffffff80002083e4: 74 6b                	je	0xffffff8000208451 <_ZN50_$LT$$RF$mut$u20$W$u20$as$u20$core..fmt..Write$GT$9write_str17he5332886e618b953E+0x91>
ffffff80002083e6: 0f b6 0e             	movzbl	(%rsi), %ecx
ffffff80002083e9: 9c                   	pushfq
ffffff80002083ea: 5f                   	popq	%rdi
ffffff80002083eb: fa                   	cli
ffffff80002083ec: 80 f9 0a             	cmpb	$10, %cl
ffffff80002083ef: 75 3f                	jne	0xffffff8000208430 <_ZN50_$LT$$RF$mut$u20$W$u20$as$u20$core..fmt..Write$GT$9write_str17he5332886e618b953E+0x70>
ffffff80002083f1: 66 66 66 66 66 66 2e 0f 1f 84 00 00 00 00 00 	nopw	%cs:(%rax,%rax)
ffffff8000208400: 66 ba fd 03          	movw	$1021, %dx              # imm = 0x3FD
ffffff8000208404: ec                   	inb	%dx, %al
ffffff8000208405: a8 20                	testb	$32, %al
ffffff8000208407: 74 f7                	je	0xffffff8000208400 <_ZN50_$LT$$RF$mut$u20$W$u20$as$u20$core..fmt..Write$GT$9write_str17he5332886e618b953E+0x40>
ffffff8000208409: 66 ba f8 03          	movw	$1016, %dx              # imm = 0x3F8
ffffff800020840d: b0 0d                	movb	$13, %al
ffffff800020840f: ee                   	outb	%al, %dx
ffffff8000208410: 66 ba fd 03          	movw	$1021, %dx              # imm = 0x3FD
ffffff8000208414: ec                   	inb	%dx, %al
ffffff8000208415: a8 20                	testb	$32, %al
ffffff8000208417: 74 f7                	je	0xffffff8000208410 <_ZN50_$LT$$RF$mut$u20$W$u20$as$u20$core..fmt..Write$GT$9write_str17he5332886e618b953E+0x50>
ffffff8000208419: 66 ba f8 03          	movw	$1016, %dx              # imm = 0x3F8
ffffff800020841d: b0 0a                	movb	$10, %al
ffffff800020841f: ee                   	outb	%al, %dx
ffffff8000208420: 48 ff c6             	incq	%rsi
ffffff8000208423: f7 c7 00 02 00 00    	testl	$512, %edi              # imm = 0x200
ffffff8000208429: 75 b5                	jne	0xffffff80002083e0 <_ZN50_$LT$$RF$mut$u20$W$u20$as$u20$core..fmt..Write$GT$9write_str17he5332886e618b953E+0x20>
ffffff800020842b: eb 1e                	jmp	0xffffff800020844b <_ZN50_$LT$$RF$mut$u20$W$u20$as$u20$core..fmt..Write$GT$9write_str17he5332886e618b953E+0x8b>
ffffff800020842d: 0f 1f 00             	nopl	(%rax)
ffffff8000208430: 66 ba fd 03          	movw	$1021, %dx              # imm = 0x3FD
ffffff8000208434: ec                   	inb	%dx, %al
ffffff8000208435: a8 20                	testb	$32, %al
ffffff8000208437: 74 f7                	je	0xffffff8000208430 <_ZN50_$LT$$RF$mut$u20$W$u20$as$u20$core..fmt..Write$GT$9write_str17he5332886e618b953E+0x70>
ffffff8000208439: 66 ba f8 03          	movw	$1016, %dx              # imm = 0x3F8
ffffff800020843d: 89 c8                	movl	%ecx, %eax
ffffff800020843f: ee                   	outb	%al, %dx
ffffff8000208440: 48 ff c6             	incq	%rsi
ffffff8000208443: f7 c7 00 02 00 00    	testl	$512, %edi              # imm = 0x200
ffffff8000208449: 75 95                	jne	0xffffff80002083e0 <_ZN50_$LT$$RF$mut$u20$W$u20$as$u20$core..fmt..Write$GT$9write_str17he5332886e618b953E+0x20>
ffffff800020844b: fa                   	cli
ffffff800020844c: 4c 39 ce             	cmpq	%r9, %rsi
ffffff800020844f: 75 95                	jne	0xffffff80002083e6 <_ZN50_$LT$$RF$mut$u20$W$u20$as$u20$core..fmt..Write$GT$9write_str17he5332886e618b953E+0x26>
ffffff8000208451: 41 f7 c0 00 02 00 00 	testl	$512, %r8d              # imm = 0x200
ffffff8000208458: 75 05                	jne	0xffffff800020845f <_ZN50_$LT$$RF$mut$u20$W$u20$as$u20$core..fmt..Write$GT$9write_str17he5332886e618b953E+0x9f>
ffffff800020845a: fa                   	cli
ffffff800020845b: 31 c0                	xorl	%eax, %eax
ffffff800020845d: 59                   	popq	%rcx
ffffff800020845e: c3                   	retq
ffffff800020845f: fb                   	sti
ffffff8000208460: 31 c0                	xorl	%eax, %eax
ffffff8000208462: 59                   	popq	%rcx
ffffff8000208463: c3                   	retq
ffffff8000208464: cc                   	int3
ffffff8000208465: cc                   	int3
ffffff8000208466: cc                   	int3
ffffff8000208467: cc                   	int3
ffffff8000208468: cc                   	int3
ffffff8000208469: cc                   	int3
ffffff800020846a: cc                   	int3
ffffff800020846b: cc                   	int3
ffffff800020846c: cc                   	int3
ffffff800020846d: cc                   	int3
ffffff800020846e: cc                   	int3
ffffff800020846f: cc                   	int3

ffffff8000208470 <_ZN50_$LT$$RF$mut$u20$W$u20$as$u20$core..fmt..Write$GT$10write_char17h1023bb456120224aE>:
ffffff8000208470: 50                   	pushq	%rax
ffffff8000208471: c7 44 24 04 00 00 00 00      	movl	$0, 4(%rsp)
ffffff8000208479: 81 fe 80 00 00 00    	cmpl	$128, %esi
ffffff800020847f: 73 0f                	jae	0xffffff8000208490 <_ZN50_$LT$$RF$mut$u20$W$u20$as$u20$core..fmt..Write$GT$10write_char17h1023bb456120224aE+0x20>
ffffff8000208481: 40 88 74 24 04       	movb	%sil, 4(%rsp)
ffffff8000208486: b8 01 00 00 00       	movl	$1, %eax
ffffff800020848b: e9 90 00 00 00       	jmp	0xffffff8000208520 <_ZN50_$LT$$RF$mut$u20$W$u20$as$u20$core..fmt..Write$GT$10write_char17h1023bb456120224aE+0xb0>
ffffff8000208490: 89 f0                	movl	%esi, %eax
ffffff8000208492: 81 fe 00 08 00 00    	cmpl	$2048, %esi             # imm = 0x800
ffffff8000208498: 73 1d                	jae	0xffffff80002084b7 <_ZN50_$LT$$RF$mut$u20$W$u20$as$u20$core..fmt..Write$GT$10write_char17h1023bb456120224aE+0x47>
ffffff800020849a: c1 e8 06             	shrl	$6, %eax
ffffff800020849d: 0c c0                	orb	$-64, %al
ffffff800020849f: 88 44 24 04          	movb	%al, 4(%rsp)
ffffff80002084a3: 40 80 e6 3f          	andb	$63, %sil
ffffff80002084a7: 40 80 ce 80          	orb	$-128, %sil
ffffff80002084ab: 40 88 74 24 05       	movb	%sil, 5(%rsp)
ffffff80002084b0: b8 02 00 00 00       	movl	$2, %eax
ffffff80002084b5: eb 69                	jmp	0xffffff8000208520 <_ZN50_$LT$$RF$mut$u20$W$u20$as$u20$core..fmt..Write$GT$10write_char17h1023bb456120224aE+0xb0>
ffffff80002084b7: 81 fe 00 00 01 00    	cmpl	$65536, %esi            # imm = 0x10000
ffffff80002084bd: 73 2a                	jae	0xffffff80002084e9 <_ZN50_$LT$$RF$mut$u20$W$u20$as$u20$core..fmt..Write$GT$10write_char17h1023bb456120224aE+0x79>
ffffff80002084bf: c1 e8 0c             	shrl	$12, %eax
ffffff80002084c2: 0c e0                	orb	$-32, %al
ffffff80002084c4: 88 44 24 04          	movb	%al, 4(%rsp)
ffffff80002084c8: 89 f0                	movl	%esi, %eax
ffffff80002084ca: c1 e8 06             	shrl	$6, %eax
ffffff80002084cd: 24 3f                	andb	$63, %al
ffffff80002084cf: 0c 80                	orb	$-128, %al
ffffff80002084d1: 88 44 24 05          	movb	%al, 5(%rsp)
ffffff80002084d5: 40 80 e6 3f          	andb	$63, %sil
ffffff80002084d9: 40 80 ce 80          	orb	$-128, %sil
ffffff80002084dd: 40 88 74 24 06       	movb	%sil, 6(%rsp)
ffffff80002084e2: b8 03 00 00 00       	movl	$3, %eax
ffffff80002084e7: eb 37                	jmp	0xffffff8000208520 <_ZN50_$LT$$RF$mut$u20$W$u20$as$u20$core..fmt..Write$GT$10write_char17h1023bb456120224aE+0xb0>
ffffff80002084e9: c1 e8 12             	shrl	$18, %eax
ffffff80002084ec: 24 07                	andb	$7, %al
ffffff80002084ee: 0c f0                	orb	$-16, %al
ffffff80002084f0: 88 44 24 04          	movb	%al, 4(%rsp)
ffffff80002084f4: 89 f0                	movl	%esi, %eax
ffffff80002084f6: c1 e8 0c             	shrl	$12, %eax
ffffff80002084f9: 24 3f                	andb	$63, %al
ffffff80002084fb: 0c 80                	orb	$-128, %al
ffffff80002084fd: 88 44 24 05          	movb	%al, 5(%rsp)
ffffff8000208501: 89 f0                	movl	%esi, %eax
ffffff8000208503: c1 e8 06             	shrl	$6, %eax
ffffff8000208506: 24 3f                	andb	$63, %al
ffffff8000208508: 0c 80                	orb	$-128, %al
ffffff800020850a: 88 44 24 06          	movb	%al, 6(%rsp)
ffffff800020850e: 40 80 e6 3f          	andb	$63, %sil
ffffff8000208512: 40 80 ce 80          	orb	$-128, %sil
ffffff8000208516: 40 88 74 24 07       	movb	%sil, 7(%rsp)
ffffff800020851b: b8 04 00 00 00       	movl	$4, %eax
ffffff8000208520: 9c                   	pushfq
ffffff8000208521: 41 58                	popq	%r8
ffffff8000208523: fa                   	cli
ffffff8000208524: 4c 8d 0c 04          	leaq	(%rsp,%rax), %r9
ffffff8000208528: 49 83 c1 04          	addq	$4, %r9
ffffff800020852c: 48 8d 74 24 04       	leaq	4(%rsp), %rsi
ffffff8000208531: eb 13                	jmp	0xffffff8000208546 <_ZN50_$LT$$RF$mut$u20$W$u20$as$u20$core..fmt..Write$GT$10write_char17h1023bb456120224aE+0xd6>
ffffff8000208533: 66 66 66 66 2e 0f 1f 84 00 00 00 00 00       	nopw	%cs:(%rax,%rax)
ffffff8000208540: fb                   	sti
ffffff8000208541: 4c 39 ce             	cmpq	%r9, %rsi
ffffff8000208544: 74 6b                	je	0xffffff80002085b1 <_ZN50_$LT$$RF$mut$u20$W$u20$as$u20$core..fmt..Write$GT$10write_char17h1023bb456120224aE+0x141>
ffffff8000208546: 0f b6 0e             	movzbl	(%rsi), %ecx
ffffff8000208549: 9c                   	pushfq
ffffff800020854a: 5f                   	popq	%rdi
ffffff800020854b: fa                   	cli
ffffff800020854c: 80 f9 0a             	cmpb	$10, %cl
ffffff800020854f: 75 3f                	jne	0xffffff8000208590 <_ZN50_$LT$$RF$mut$u20$W$u20$as$u20$core..fmt..Write$GT$10write_char17h1023bb456120224aE+0x120>
ffffff8000208551: 66 66 66 66 66 66 2e 0f 1f 84 00 00 00 00 00 	nopw	%cs:(%rax,%rax)
ffffff8000208560: 66 ba fd 03          	movw	$1021, %dx              # imm = 0x3FD
ffffff8000208564: ec                   	inb	%dx, %al
ffffff8000208565: a8 20                	testb	$32, %al
ffffff8000208567: 74 f7                	je	0xffffff8000208560 <_ZN50_$LT$$RF$mut$u20$W$u20$as$u20$core..fmt..Write$GT$10write_char17h1023bb456120224aE+0xf0>
ffffff8000208569: 66 ba f8 03          	movw	$1016, %dx              # imm = 0x3F8
ffffff800020856d: b0 0d                	movb	$13, %al
ffffff800020856f: ee                   	outb	%al, %dx
ffffff8000208570: 66 ba fd 03          	movw	$1021, %dx              # imm = 0x3FD
ffffff8000208574: ec                   	inb	%dx, %al
ffffff8000208575: a8 20                	testb	$32, %al
ffffff8000208577: 74 f7                	je	0xffffff8000208570 <_ZN50_$LT$$RF$mut$u20$W$u20$as$u20$core..fmt..Write$GT$10write_char17h1023bb456120224aE+0x100>
ffffff8000208579: 66 ba f8 03          	movw	$1016, %dx              # imm = 0x3F8
ffffff800020857d: b0 0a                	movb	$10, %al
ffffff800020857f: ee                   	outb	%al, %dx
ffffff8000208580: 48 ff c6             	incq	%rsi
ffffff8000208583: f7 c7 00 02 00 00    	testl	$512, %edi              # imm = 0x200
ffffff8000208589: 75 b5                	jne	0xffffff8000208540 <_ZN50_$LT$$RF$mut$u20$W$u20$as$u20$core..fmt..Write$GT$10write_char17h1023bb456120224aE+0xd0>
ffffff800020858b: eb 1e                	jmp	0xffffff80002085ab <_ZN50_$LT$$RF$mut$u20$W$u20$as$u20$core..fmt..Write$GT$10write_char17h1023bb456120224aE+0x13b>
ffffff800020858d: 0f 1f 00             	nopl	(%rax)
ffffff8000208590: 66 ba fd 03          	movw	$1021, %dx              # imm = 0x3FD
ffffff8000208594: ec                   	inb	%dx, %al
ffffff8000208595: a8 20                	testb	$32, %al
ffffff8000208597: 74 f7                	je	0xffffff8000208590 <_ZN50_$LT$$RF$mut$u20$W$u20$as$u20$core..fmt..Write$GT$10write_char17h1023bb456120224aE+0x120>
ffffff8000208599: 66 ba f8 03          	movw	$1016, %dx              # imm = 0x3F8
ffffff800020859d: 89 c8                	movl	%ecx, %eax
ffffff800020859f: ee                   	outb	%al, %dx
ffffff80002085a0: 48 ff c6             	incq	%rsi
ffffff80002085a3: f7 c7 00 02 00 00    	testl	$512, %edi              # imm = 0x200
ffffff80002085a9: 75 95                	jne	0xffffff8000208540 <_ZN50_$LT$$RF$mut$u20$W$u20$as$u20$core..fmt..Write$GT$10write_char17h1023bb456120224aE+0xd0>
ffffff80002085ab: fa                   	cli
ffffff80002085ac: 4c 39 ce             	cmpq	%r9, %rsi
ffffff80002085af: 75 95                	jne	0xffffff8000208546 <_ZN50_$LT$$RF$mut$u20$W$u20$as$u20$core..fmt..Write$GT$10write_char17h1023bb456120224aE+0xd6>
ffffff80002085b1: 41 f7 c0 00 02 00 00 	testl	$512, %r8d              # imm = 0x200
ffffff80002085b8: 75 05                	jne	0xffffff80002085bf <_ZN50_$LT$$RF$mut$u20$W$u20$as$u20$core..fmt..Write$GT$10write_char17h1023bb456120224aE+0x14f>
ffffff80002085ba: fa                   	cli
ffffff80002085bb: 31 c0                	xorl	%eax, %eax
ffffff80002085bd: 59                   	popq	%rcx
ffffff80002085be: c3                   	retq
ffffff80002085bf: fb                   	sti
ffffff80002085c0: 31 c0                	xorl	%eax, %eax
ffffff80002085c2: 59                   	popq	%rcx
ffffff80002085c3: c3                   	retq
ffffff80002085c4: cc                   	int3
ffffff80002085c5: cc                   	int3
ffffff80002085c6: cc                   	int3
ffffff80002085c7: cc                   	int3
ffffff80002085c8: cc                   	int3
ffffff80002085c9: cc                   	int3
ffffff80002085ca: cc                   	int3
ffffff80002085cb: cc                   	int3
ffffff80002085cc: cc                   	int3
ffffff80002085cd: cc                   	int3
ffffff80002085ce: cc                   	int3
ffffff80002085cf: cc                   	int3

ffffff80002085d0 <_ZN50_$LT$$RF$mut$u20$W$u20$as$u20$core..fmt..Write$GT$9write_fmt17h5321a2c8cf76c310E>:
ffffff80002085d0: 48 83 ec 38          	subq	$56, %rsp
ffffff80002085d4: 48 8b 07             	movq	(%rdi), %rax
ffffff80002085d7: 48 89 04 24          	movq	%rax, (%rsp)
ffffff80002085db: 48 8b 46 28          	movq	40(%rsi), %rax
ffffff80002085df: 48 89 44 24 30       	movq	%rax, 48(%rsp)
ffffff80002085e4: 48 8b 46 20          	movq	32(%rsi), %rax
ffffff80002085e8: 48 89 44 24 28       	movq	%rax, 40(%rsp)
ffffff80002085ed: 48 8b 46 18          	movq	24(%rsi), %rax
ffffff80002085f1: 48 89 44 24 20       	movq	%rax, 32(%rsp)
ffffff80002085f6: 48 8b 46 10          	movq	16(%rsi), %rax
ffffff80002085fa: 48 89 44 24 18       	movq	%rax, 24(%rsp)
ffffff80002085ff: 48 8b 06             	movq	(%rsi), %rax
ffffff8000208602: 48 8b 4e 08          	movq	8(%rsi), %rcx
ffffff8000208606: 48 89 4c 24 10       	movq	%rcx, 16(%rsp)
ffffff800020860b: 48 89 44 24 08       	movq	%rax, 8(%rsp)
ffffff8000208610: 48 8d 35 69 85 00 00 	leaq	34153(%rip), %rsi       # 0xffffff8000210b80 <_ZN5axhal8platform6pc_x864time12CPU_FREQ_MHZ17hcbee90971ca93e77E.0+0x9f8>
ffffff8000208617: 48 89 e7             	movq	%rsp, %rdi
ffffff800020861a: 48 8d 54 24 08       	leaq	8(%rsp), %rdx
ffffff800020861f: e8 9c dd ff ff       	callq	0xffffff80002063c0 <_ZN4core3fmt5write17h3e64ac24810c32e1E>
ffffff8000208624: 48 83 c4 38          	addq	$56, %rsp
ffffff8000208628: c3                   	retq
ffffff8000208629: cc                   	int3
ffffff800020862a: cc                   	int3
ffffff800020862b: cc                   	int3
ffffff800020862c: cc                   	int3
ffffff800020862d: cc                   	int3
ffffff800020862e: cc                   	int3
ffffff800020862f: cc                   	int3

ffffff8000208630 <_ZN77_$LT$axio..Write..write_fmt..Adapter$LT$T$GT$$u20$as$u20$core..fmt..Write$GT$9write_str17hb3a3168e95716a71E>:
ffffff8000208630: 50                   	pushq	%rax
ffffff8000208631: 48 85 d2             	testq	%rdx, %rdx
ffffff8000208634: 0f 84 91 00 00 00    	je	0xffffff80002086cb <_ZN77_$LT$axio..Write..write_fmt..Adapter$LT$T$GT$$u20$as$u20$core..fmt..Write$GT$9write_str17hb3a3168e95716a71E+0x9b>
ffffff800020863a: 49 89 d1             	movq	%rdx, %r9
ffffff800020863d: 9c                   	pushfq
ffffff800020863e: 41 58                	popq	%r8
ffffff8000208640: fa                   	cli
ffffff8000208641: 49 01 f1             	addq	%rsi, %r9
ffffff8000208644: eb 10                	jmp	0xffffff8000208656 <_ZN77_$LT$axio..Write..write_fmt..Adapter$LT$T$GT$$u20$as$u20$core..fmt..Write$GT$9write_str17hb3a3168e95716a71E+0x26>
ffffff8000208646: 66 2e 0f 1f 84 00 00 00 00 00	nopw	%cs:(%rax,%rax)
ffffff8000208650: fb                   	sti
ffffff8000208651: 4c 39 ce             	cmpq	%r9, %rsi
ffffff8000208654: 74 6b                	je	0xffffff80002086c1 <_ZN77_$LT$axio..Write..write_fmt..Adapter$LT$T$GT$$u20$as$u20$core..fmt..Write$GT$9write_str17hb3a3168e95716a71E+0x91>
ffffff8000208656: 0f b6 0e             	movzbl	(%rsi), %ecx
ffffff8000208659: 9c                   	pushfq
ffffff800020865a: 5f                   	popq	%rdi
ffffff800020865b: fa                   	cli
ffffff800020865c: 80 f9 0a             	cmpb	$10, %cl
ffffff800020865f: 75 3f                	jne	0xffffff80002086a0 <_ZN77_$LT$axio..Write..write_fmt..Adapter$LT$T$GT$$u20$as$u20$core..fmt..Write$GT$9write_str17hb3a3168e95716a71E+0x70>
ffffff8000208661: 66 66 66 66 66 66 2e 0f 1f 84 00 00 00 00 00 	nopw	%cs:(%rax,%rax)
ffffff8000208670: 66 ba fd 03          	movw	$1021, %dx              # imm = 0x3FD
ffffff8000208674: ec                   	inb	%dx, %al
ffffff8000208675: a8 20                	testb	$32, %al
ffffff8000208677: 74 f7                	je	0xffffff8000208670 <_ZN77_$LT$axio..Write..write_fmt..Adapter$LT$T$GT$$u20$as$u20$core..fmt..Write$GT$9write_str17hb3a3168e95716a71E+0x40>
ffffff8000208679: 66 ba f8 03          	movw	$1016, %dx              # imm = 0x3F8
ffffff800020867d: b0 0d                	movb	$13, %al
ffffff800020867f: ee                   	outb	%al, %dx
ffffff8000208680: 66 ba fd 03          	movw	$1021, %dx              # imm = 0x3FD
ffffff8000208684: ec                   	inb	%dx, %al
ffffff8000208685: a8 20                	testb	$32, %al
ffffff8000208687: 74 f7                	je	0xffffff8000208680 <_ZN77_$LT$axio..Write..write_fmt..Adapter$LT$T$GT$$u20$as$u20$core..fmt..Write$GT$9write_str17hb3a3168e95716a71E+0x50>
ffffff8000208689: 66 ba f8 03          	movw	$1016, %dx              # imm = 0x3F8
ffffff800020868d: b0 0a                	movb	$10, %al
ffffff800020868f: ee                   	outb	%al, %dx
ffffff8000208690: 48 ff c6             	incq	%rsi
ffffff8000208693: f7 c7 00 02 00 00    	testl	$512, %edi              # imm = 0x200
ffffff8000208699: 75 b5                	jne	0xffffff8000208650 <_ZN77_$LT$axio..Write..write_fmt..Adapter$LT$T$GT$$u20$as$u20$core..fmt..Write$GT$9write_str17hb3a3168e95716a71E+0x20>
ffffff800020869b: eb 1e                	jmp	0xffffff80002086bb <_ZN77_$LT$axio..Write..write_fmt..Adapter$LT$T$GT$$u20$as$u20$core..fmt..Write$GT$9write_str17hb3a3168e95716a71E+0x8b>
ffffff800020869d: 0f 1f 00             	nopl	(%rax)
ffffff80002086a0: 66 ba fd 03          	movw	$1021, %dx              # imm = 0x3FD
ffffff80002086a4: ec                   	inb	%dx, %al
ffffff80002086a5: a8 20                	testb	$32, %al
ffffff80002086a7: 74 f7                	je	0xffffff80002086a0 <_ZN77_$LT$axio..Write..write_fmt..Adapter$LT$T$GT$$u20$as$u20$core..fmt..Write$GT$9write_str17hb3a3168e95716a71E+0x70>
ffffff80002086a9: 66 ba f8 03          	movw	$1016, %dx              # imm = 0x3F8
ffffff80002086ad: 89 c8                	movl	%ecx, %eax
ffffff80002086af: ee                   	outb	%al, %dx
ffffff80002086b0: 48 ff c6             	incq	%rsi
ffffff80002086b3: f7 c7 00 02 00 00    	testl	$512, %edi              # imm = 0x200
ffffff80002086b9: 75 95                	jne	0xffffff8000208650 <_ZN77_$LT$axio..Write..write_fmt..Adapter$LT$T$GT$$u20$as$u20$core..fmt..Write$GT$9write_str17hb3a3168e95716a71E+0x20>
ffffff80002086bb: fa                   	cli
ffffff80002086bc: 4c 39 ce             	cmpq	%r9, %rsi
ffffff80002086bf: 75 95                	jne	0xffffff8000208656 <_ZN77_$LT$axio..Write..write_fmt..Adapter$LT$T$GT$$u20$as$u20$core..fmt..Write$GT$9write_str17hb3a3168e95716a71E+0x26>
ffffff80002086c1: 41 f7 c0 00 02 00 00 	testl	$512, %r8d              # imm = 0x200
ffffff80002086c8: 75 05                	jne	0xffffff80002086cf <_ZN77_$LT$axio..Write..write_fmt..Adapter$LT$T$GT$$u20$as$u20$core..fmt..Write$GT$9write_str17hb3a3168e95716a71E+0x9f>
ffffff80002086ca: fa                   	cli
ffffff80002086cb: 31 c0                	xorl	%eax, %eax
ffffff80002086cd: 59                   	popq	%rcx
ffffff80002086ce: c3                   	retq
ffffff80002086cf: fb                   	sti
ffffff80002086d0: 31 c0                	xorl	%eax, %eax
ffffff80002086d2: 59                   	popq	%rcx
ffffff80002086d3: c3                   	retq
ffffff80002086d4: cc                   	int3
ffffff80002086d5: cc                   	int3
ffffff80002086d6: cc                   	int3
ffffff80002086d7: cc                   	int3
ffffff80002086d8: cc                   	int3
ffffff80002086d9: cc                   	int3
ffffff80002086da: cc                   	int3
ffffff80002086db: cc                   	int3
ffffff80002086dc: cc                   	int3
ffffff80002086dd: cc                   	int3
ffffff80002086de: cc                   	int3
ffffff80002086df: cc                   	int3

ffffff80002086e0 <_ZN42_$LT$$RF$T$u20$as$u20$core..fmt..Debug$GT$3fmt17h3287926c22a94b49E>:
ffffff80002086e0: 48 89 f7             	movq	%rsi, %rdi
ffffff80002086e3: 48 8d 35 bb 28 00 00 	leaq	10427(%rip), %rsi       # 0xffffff800020afa5 <_ZN4core7unicode12unicode_data15grapheme_extend7OFFSETS17ha79b4a14ed4d5bccE+0x34d>
ffffff80002086ea: ba 02 00 00 00       	movl	$2, %edx
ffffff80002086ef: e9 1c d5 ff ff       	jmp	0xffffff8000205c10 <_ZN4core3fmt9Formatter3pad17hf52b0532a0c80643E>
ffffff80002086f4: cc                   	int3
ffffff80002086f5: cc                   	int3
ffffff80002086f6: cc                   	int3
ffffff80002086f7: cc                   	int3
ffffff80002086f8: cc                   	int3
ffffff80002086f9: cc                   	int3
ffffff80002086fa: cc                   	int3
ffffff80002086fb: cc                   	int3
ffffff80002086fc: cc                   	int3
ffffff80002086fd: cc                   	int3
ffffff80002086fe: cc                   	int3
ffffff80002086ff: cc                   	int3

ffffff8000208700 <_ZN43_$LT$log..NopLogger$u20$as$u20$log..Log$GT$7enabled17h2a0f9ee69a5b9f80E>:
ffffff8000208700: 31 c0                	xorl	%eax, %eax
ffffff8000208702: c3                   	retq
ffffff8000208703: cc                   	int3
ffffff8000208704: cc                   	int3
ffffff8000208705: cc                   	int3
ffffff8000208706: cc                   	int3
ffffff8000208707: cc                   	int3
ffffff8000208708: cc                   	int3
ffffff8000208709: cc                   	int3
ffffff800020870a: cc                   	int3
ffffff800020870b: cc                   	int3
ffffff800020870c: cc                   	int3
ffffff800020870d: cc                   	int3
ffffff800020870e: cc                   	int3
ffffff800020870f: cc                   	int3

ffffff8000208710 <_ZN43_$LT$log..NopLogger$u20$as$u20$log..Log$GT$3log17h34088321e49ab281E>:
ffffff8000208710: c3                   	retq
ffffff8000208711: cc                   	int3
ffffff8000208712: cc                   	int3
ffffff8000208713: cc                   	int3
ffffff8000208714: cc                   	int3
ffffff8000208715: cc                   	int3
ffffff8000208716: cc                   	int3
ffffff8000208717: cc                   	int3
ffffff8000208718: cc                   	int3
ffffff8000208719: cc                   	int3
ffffff800020871a: cc                   	int3
ffffff800020871b: cc                   	int3
ffffff800020871c: cc                   	int3
ffffff800020871d: cc                   	int3
ffffff800020871e: cc                   	int3
ffffff800020871f: cc                   	int3

ffffff8000208720 <_ZN56_$LT$log..SetLoggerError$u20$as$u20$core..fmt..Debug$GT$3fmt17hc5d394f32ef42b84E>:
ffffff8000208720: 41 56                	pushq	%r14
ffffff8000208722: 53                   	pushq	%rbx
ffffff8000208723: 48 83 ec 28          	subq	$40, %rsp
ffffff8000208727: 48 89 f3             	movq	%rsi, %rbx
ffffff800020872a: 48 89 7c 24 20       	movq	%rdi, 32(%rsp)
ffffff800020872f: 48 8b 3e             	movq	(%rsi), %rdi
ffffff8000208732: 48 8b 46 08          	movq	8(%rsi), %rax
ffffff8000208736: 48 8d 35 6a 28 00 00 	leaq	10346(%rip), %rsi       # 0xffffff800020afa7 <_ZN3log6logger3NOP17hf5a5c7f8a7401e67E>
ffffff800020873d: ba 0e 00 00 00       	movl	$14, %edx
ffffff8000208742: ff 50 18             	callq	*24(%rax)
ffffff8000208745: 48 89 5c 24 10       	movq	%rbx, 16(%rsp)
ffffff800020874a: 88 44 24 18          	movb	%al, 24(%rsp)
ffffff800020874e: 48 c7 44 24 08 00 00 00 00   	movq	$0, 8(%rsp)
ffffff8000208757: c6 44 24 19 00       	movb	$0, 25(%rsp)
ffffff800020875c: 48 8d 15 7d ff ff ff 	leaq	-131(%rip), %rdx        # 0xffffff80002086e0 <_ZN42_$LT$$RF$T$u20$as$u20$core..fmt..Debug$GT$3fmt17h3287926c22a94b49E>
ffffff8000208763: 48 8d 7c 24 08       	leaq	8(%rsp), %rdi
ffffff8000208768: 48 8d 74 24 20       	leaq	32(%rsp), %rsi
ffffff800020876d: e8 4e eb ff ff       	callq	0xffffff80002072c0 <_ZN4core3fmt8builders10DebugTuple5field17hd21dd5678d410a30E>
ffffff8000208772: 48 8b 44 24 08       	movq	8(%rsp), %rax
ffffff8000208777: 0f b6 5c 24 18       	movzbl	24(%rsp), %ebx
ffffff800020877c: 48 85 c0             	testq	%rax, %rax
ffffff800020877f: 74 51                	je	0xffffff80002087d2 <_ZN56_$LT$log..SetLoggerError$u20$as$u20$core..fmt..Debug$GT$3fmt17hc5d394f32ef42b84E+0xb2>
ffffff8000208781: 84 db                	testb	%bl, %bl
ffffff8000208783: b3 01                	movb	$1, %bl
ffffff8000208785: 75 4b                	jne	0xffffff80002087d2 <_ZN56_$LT$log..SetLoggerError$u20$as$u20$core..fmt..Debug$GT$3fmt17hc5d394f32ef42b84E+0xb2>
ffffff8000208787: 4c 8b 74 24 10       	movq	16(%rsp), %r14
ffffff800020878c: 48 83 f8 01          	cmpq	$1, %rax
ffffff8000208790: 75 28                	jne	0xffffff80002087ba <_ZN56_$LT$log..SetLoggerError$u20$as$u20$core..fmt..Debug$GT$3fmt17hc5d394f32ef42b84E+0x9a>
ffffff8000208792: 80 7c 24 19 00       	cmpb	$0, 25(%rsp)
ffffff8000208797: 74 21                	je	0xffffff80002087ba <_ZN56_$LT$log..SetLoggerError$u20$as$u20$core..fmt..Debug$GT$3fmt17hc5d394f32ef42b84E+0x9a>
ffffff8000208799: 41 f6 46 30 04       	testb	$4, 48(%r14)
ffffff800020879e: 75 1a                	jne	0xffffff80002087ba <_ZN56_$LT$log..SetLoggerError$u20$as$u20$core..fmt..Debug$GT$3fmt17hc5d394f32ef42b84E+0x9a>
ffffff80002087a0: 49 8b 3e             	movq	(%r14), %rdi
ffffff80002087a3: 49 8b 46 08          	movq	8(%r14), %rax
ffffff80002087a7: 48 8d 35 84 1b 00 00 	leaq	7044(%rip), %rsi        # 0xffffff800020a332 <str.0+0x612>
ffffff80002087ae: ba 01 00 00 00       	movl	$1, %edx
ffffff80002087b3: ff 50 18             	callq	*24(%rax)
ffffff80002087b6: 84 c0                	testb	%al, %al
ffffff80002087b8: 75 18                	jne	0xffffff80002087d2 <_ZN56_$LT$log..SetLoggerError$u20$as$u20$core..fmt..Debug$GT$3fmt17hc5d394f32ef42b84E+0xb2>
ffffff80002087ba: 49 8b 3e             	movq	(%r14), %rdi
ffffff80002087bd: 49 8b 46 08          	movq	8(%r14), %rax
ffffff80002087c1: 48 8d 35 f1 1a 00 00 	leaq	6897(%rip), %rsi        # 0xffffff800020a2b9 <str.0+0x599>
ffffff80002087c8: ba 01 00 00 00       	movl	$1, %edx
ffffff80002087cd: ff 50 18             	callq	*24(%rax)
ffffff80002087d0: 89 c3                	movl	%eax, %ebx
ffffff80002087d2: 89 d8                	movl	%ebx, %eax
ffffff80002087d4: 48 83 c4 28          	addq	$40, %rsp
ffffff80002087d8: 5b                   	popq	%rbx
ffffff80002087d9: 41 5e                	popq	%r14
ffffff80002087db: c3                   	retq
ffffff80002087dc: cc                   	int3
ffffff80002087dd: cc                   	int3
ffffff80002087de: cc                   	int3
ffffff80002087df: cc                   	int3

ffffff80002087e0 <_ZN58_$LT$memory_addr..PhysAddr$u20$as$u20$core..fmt..Debug$GT$3fmt17hbf203c75531fc3ccE>:
ffffff80002087e0: 48 83 ec 78          	subq	$120, %rsp
ffffff80002087e4: 48 89 3c 24          	movq	%rdi, (%rsp)
ffffff80002087e8: 48 8d 05 21 f8 ff ff 	leaq	-2015(%rip), %rax       # 0xffffff8000208010 <_ZN4core3fmt3num53_$LT$impl$u20$core..fmt..LowerHex$u20$for$u20$i64$GT$3fmt17h4fa87f856a4ce963E>
ffffff80002087ef: 48 89 44 24 08       	movq	%rax, 8(%rsp)
ffffff80002087f4: 48 c7 44 24 40 02 00 00 00   	movq	$2, 64(%rsp)
ffffff80002087fd: 48 c7 44 24 50 02 00 00 00   	movq	$2, 80(%rsp)
ffffff8000208806: 48 b8 04 00 00 00 20 00 00 00	movabsq	$137438953476, %rax # imm = 0x2000000004
ffffff8000208810: 48 89 44 24 60       	movq	%rax, 96(%rsp)
ffffff8000208815: c6 44 24 68 03       	movb	$3, 104(%rsp)
ffffff800020881a: 48 c7 44 24 70 00 00 00 00   	movq	$0, 112(%rsp)
ffffff8000208823: 48 8b 3e             	movq	(%rsi), %rdi
ffffff8000208826: 48 8b 76 08          	movq	8(%rsi), %rsi
ffffff800020882a: 48 8d 44 24 40       	leaq	64(%rsp), %rax
ffffff800020882f: 48 89 44 24 10       	movq	%rax, 16(%rsp)
ffffff8000208834: 48 c7 44 24 18 01 00 00 00   	movq	$1, 24(%rsp)
ffffff800020883d: 48 8d 05 c4 83 00 00 	leaq	33732(%rip), %rax       # 0xffffff8000210c08 <_ZN3log6LOGGER17h48756037b7073395E.1+0x8>
ffffff8000208844: 48 89 44 24 20       	movq	%rax, 32(%rsp)
ffffff8000208849: 48 c7 44 24 28 01 00 00 00   	movq	$1, 40(%rsp)
ffffff8000208852: 48 89 e0             	movq	%rsp, %rax
ffffff8000208855: 48 89 44 24 30       	movq	%rax, 48(%rsp)
ffffff800020885a: 48 c7 44 24 38 01 00 00 00   	movq	$1, 56(%rsp)
ffffff8000208863: 48 8d 54 24 10       	leaq	16(%rsp), %rdx
ffffff8000208868: e8 53 db ff ff       	callq	0xffffff80002063c0 <_ZN4core3fmt5write17h3e64ac24810c32e1E>
ffffff800020886d: 48 83 c4 78          	addq	$120, %rsp
ffffff8000208871: c3                   	retq
ffffff8000208872: cc                   	int3
ffffff8000208873: cc                   	int3
ffffff8000208874: cc                   	int3
ffffff8000208875: cc                   	int3
ffffff8000208876: cc                   	int3
ffffff8000208877: cc                   	int3
ffffff8000208878: cc                   	int3
ffffff8000208879: cc                   	int3
ffffff800020887a: cc                   	int3
ffffff800020887b: cc                   	int3
ffffff800020887c: cc                   	int3
ffffff800020887d: cc                   	int3
ffffff800020887e: cc                   	int3
ffffff800020887f: cc                   	int3

ffffff8000208880 <_ZN9raw_cpuid12native_cpuid11cpuid_count17ha8a35f58f0619db0E>:
ffffff8000208880: 89 d1                	movl	%edx, %ecx
ffffff8000208882: 89 f0                	movl	%esi, %eax
ffffff8000208884: 48 89 de             	movq	%rbx, %rsi
ffffff8000208887: 0f a2                	cpuid
ffffff8000208889: 48 87 f3             	xchgq	%rbx, %rsi
ffffff800020888c: 89 07                	movl	%eax, (%rdi)
ffffff800020888e: 89 77 04             	movl	%esi, 4(%rdi)
ffffff8000208891: 89 4f 08             	movl	%ecx, 8(%rdi)
ffffff8000208894: 89 57 0c             	movl	%edx, 12(%rdi)
ffffff8000208897: 48 89 f8             	movq	%rdi, %rax
ffffff800020889a: c3                   	retq
ffffff800020889b: cc                   	int3
ffffff800020889c: cc                   	int3
ffffff800020889d: cc                   	int3
ffffff800020889e: cc                   	int3
ffffff800020889f: cc                   	int3

ffffff80002088a0 <_ZN9raw_cpuid55CpuId$LT$raw_cpuid..native_cpuid..CpuIdReaderNative$GT$3new17h36285f2bc8151782E>:
ffffff80002088a0: 55                   	pushq	%rbp
ffffff80002088a1: 41 57                	pushq	%r15
ffffff80002088a3: 41 56                	pushq	%r14
ffffff80002088a5: 41 55                	pushq	%r13
ffffff80002088a7: 41 54                	pushq	%r12
ffffff80002088a9: 53                   	pushq	%rbx
ffffff80002088aa: 48 83 ec 28          	subq	$40, %rsp
ffffff80002088ae: 48 89 fb             	movq	%rdi, %rbx
ffffff80002088b1: 31 c0                	xorl	%eax, %eax
ffffff80002088b3: 31 c9                	xorl	%ecx, %ecx
ffffff80002088b5: 49 89 dd             	movq	%rbx, %r13
ffffff80002088b8: 0f a2                	cpuid
ffffff80002088ba: 4c 87 eb             	xchgq	%rbx, %r13
ffffff80002088bd: 89 cd                	movl	%ecx, %ebp
ffffff80002088bf: 41 89 d7             	movl	%edx, %r15d
ffffff80002088c2: 41 89 c6             	movl	%eax, %r14d
ffffff80002088c5: 31 c9                	xorl	%ecx, %ecx
ffffff80002088c7: b8 00 00 00 80       	movl	$2147483648, %eax       # imm = 0x80000000
ffffff80002088cc: 48 89 de             	movq	%rbx, %rsi
ffffff80002088cf: 0f a2                	cpuid
ffffff80002088d1: 48 87 f3             	xchgq	%rbx, %rsi
ffffff80002088d4: 41 89 c4             	movl	%eax, %r12d
ffffff80002088d7: 44 89 2c 24          	movl	%r13d, (%rsp)
ffffff80002088db: 44 89 7c 24 04       	movl	%r15d, 4(%rsp)
ffffff80002088e0: 89 6c 24 08          	movl	%ebp, 8(%rsp)
ffffff80002088e4: 48 8d 7c 24 10       	leaq	16(%rsp), %rdi
ffffff80002088e9: 48 89 e6             	movq	%rsp, %rsi
ffffff80002088ec: e8 9f df ff ff       	callq	0xffffff8000206890 <_ZN4core3str8converts9from_utf817h50e67ae2817c918fE>
ffffff80002088f1: 48 83 7c 24 10 00    	cmpq	$0, 16(%rsp)
ffffff80002088f7: 75 0e                	jne	0xffffff8000208907 <_ZN9raw_cpuid55CpuId$LT$raw_cpuid..native_cpuid..CpuIdReaderNative$GT$3new17h36285f2bc8151782E+0x67>
ffffff80002088f9: 48 8b 44 24 18       	movq	24(%rsp), %rax
ffffff80002088fe: b9 02 00 00 00       	movl	$2, %ecx
ffffff8000208903: 74 10                	je	0xffffff8000208915 <_ZN9raw_cpuid55CpuId$LT$raw_cpuid..native_cpuid..CpuIdReaderNative$GT$3new17h36285f2bc8151782E+0x75>
ffffff8000208905: eb 5b                	jmp	0xffffff8000208962 <_ZN9raw_cpuid55CpuId$LT$raw_cpuid..native_cpuid..CpuIdReaderNative$GT$3new17h36285f2bc8151782E+0xc2>
ffffff8000208907: 48 8d 05 aa 26 00 00 	leaq	9898(%rip), %rax        # 0xffffff800020afb8 <SELF_PTR>
ffffff800020890e: b9 02 00 00 00       	movl	$2, %ecx
ffffff8000208913: 75 4d                	jne	0xffffff8000208962 <_ZN9raw_cpuid55CpuId$LT$raw_cpuid..native_cpuid..CpuIdReaderNative$GT$3new17h36285f2bc8151782E+0xc2>
ffffff8000208915: 48 83 7c 24 20 0c    	cmpq	$12, 32(%rsp)
ffffff800020891b: 75 45                	jne	0xffffff8000208962 <_ZN9raw_cpuid55CpuId$LT$raw_cpuid..native_cpuid..CpuIdReaderNative$GT$3new17h36285f2bc8151782E+0xc2>
ffffff800020891d: 48 b9 47 65 6e 75 69 6e 65 49	movabsq	$5288754736637306183, %rcx # imm = 0x49656E69756E6547
ffffff8000208927: 48 33 08             	xorq	(%rax), %rcx
ffffff800020892a: 8b 50 08             	movl	8(%rax), %edx
ffffff800020892d: 48 81 f2 6e 74 65 6c 	xorq	$1818588270, %rdx       # imm = 0x6C65746E
ffffff8000208934: 48 09 ca             	orq	%rcx, %rdx
ffffff8000208937: 74 27                	je	0xffffff8000208960 <_ZN9raw_cpuid55CpuId$LT$raw_cpuid..native_cpuid..CpuIdReaderNative$GT$3new17h36285f2bc8151782E+0xc0>
ffffff8000208939: 48 b9 41 75 74 68 65 6e 74 69	movabsq	$7598819853104084289, %rcx # imm = 0x69746E6568747541
ffffff8000208943: 48 33 08             	xorq	(%rax), %rcx
ffffff8000208946: 8b 40 08             	movl	8(%rax), %eax
ffffff8000208949: 48 35 63 41 4d 44    	xorq	$1145913699, %rax       # imm = 0x444D4163
ffffff800020894f: 31 d2                	xorl	%edx, %edx
ffffff8000208951: 48 09 c8             	orq	%rcx, %rax
ffffff8000208954: 0f 94 c2             	sete	%dl
ffffff8000208957: b9 02 00 00 00       	movl	$2, %ecx
ffffff800020895c: 29 d1                	subl	%edx, %ecx
ffffff800020895e: eb 02                	jmp	0xffffff8000208962 <_ZN9raw_cpuid55CpuId$LT$raw_cpuid..native_cpuid..CpuIdReaderNative$GT$3new17h36285f2bc8151782E+0xc2>
ffffff8000208960: 31 c9                	xorl	%ecx, %ecx
ffffff8000208962: 89 0b                	movl	%ecx, (%rbx)
ffffff8000208964: 44 89 6b 04          	movl	%r13d, 4(%rbx)
ffffff8000208968: 89 6b 08             	movl	%ebp, 8(%rbx)
ffffff800020896b: 44 89 7b 0c          	movl	%r15d, 12(%rbx)
ffffff800020896f: 44 89 73 10          	movl	%r14d, 16(%rbx)
ffffff8000208973: 44 89 63 14          	movl	%r12d, 20(%rbx)
ffffff8000208977: 48 83 c4 28          	addq	$40, %rsp
ffffff800020897b: 5b                   	popq	%rbx
ffffff800020897c: 41 5c                	popq	%r12
ffffff800020897e: 41 5d                	popq	%r13
ffffff8000208980: 41 5e                	popq	%r14
ffffff8000208982: 41 5f                	popq	%r15
ffffff8000208984: 5d                   	popq	%rbp
ffffff8000208985: c3                   	retq
ffffff8000208986: cc                   	int3
ffffff8000208987: cc                   	int3
ffffff8000208988: cc                   	int3
ffffff8000208989: cc                   	int3
ffffff800020898a: cc                   	int3
ffffff800020898b: cc                   	int3
ffffff800020898c: cc                   	int3
ffffff800020898d: cc                   	int3
ffffff800020898e: cc                   	int3
ffffff800020898f: cc                   	int3

ffffff8000208990 <_ZN67_$LT$x86_64..addr..VirtAddrNotValid$u20$as$u20$core..fmt..Debug$GT$3fmt17h032dc9fddb192d66E>:
ffffff8000208990: 41 56                	pushq	%r14
ffffff8000208992: 53                   	pushq	%rbx
ffffff8000208993: 48 81 ec 98 00 00 00 	subq	$152, %rsp
ffffff800020899a: 48 89 f3             	movq	%rsi, %rbx
ffffff800020899d: 49 89 fe             	movq	%rdi, %r14
ffffff80002089a0: 48 8b 3e             	movq	(%rsi), %rdi
ffffff80002089a3: 48 8b 46 08          	movq	8(%rsi), %rax
ffffff80002089a7: 48 8d 35 5e 10 00 00 	leaq	4190(%rip), %rsi        # 0xffffff8000209a0c <trap_handler_table+0xa0c>
ffffff80002089ae: ba 10 00 00 00       	movl	$16, %edx
ffffff80002089b3: ff 50 18             	callq	*24(%rax)
ffffff80002089b6: 48 89 5c 24 10       	movq	%rbx, 16(%rsp)
ffffff80002089bb: 88 44 24 18          	movb	%al, 24(%rsp)
ffffff80002089bf: 48 c7 44 24 08 00 00 00 00   	movq	$0, 8(%rsp)
ffffff80002089c8: c6 44 24 19 00       	movb	$0, 25(%rsp)
ffffff80002089cd: 4c 89 74 24 20       	movq	%r14, 32(%rsp)
ffffff80002089d2: 48 8d 05 37 f6 ff ff 	leaq	-2505(%rip), %rax       # 0xffffff8000208010 <_ZN4core3fmt3num53_$LT$impl$u20$core..fmt..LowerHex$u20$for$u20$i64$GT$3fmt17h4fa87f856a4ce963E>
ffffff80002089d9: 48 89 44 24 28       	movq	%rax, 40(%rsp)
ffffff80002089de: 48 c7 44 24 60 02 00 00 00   	movq	$2, 96(%rsp)
ffffff80002089e7: 48 c7 44 24 70 02 00 00 00   	movq	$2, 112(%rsp)
ffffff80002089f0: 48 b8 04 00 00 00 20 00 00 00	movabsq	$137438953476, %rax # imm = 0x2000000004
ffffff80002089fa: 48 89 84 24 80 00 00 00      	movq	%rax, 128(%rsp)
ffffff8000208a02: c6 84 24 88 00 00 00 03      	movb	$3, 136(%rsp)
ffffff8000208a0a: 48 c7 84 24 90 00 00 00 00 00 00 00  	movq	$0, 144(%rsp)
ffffff8000208a16: 48 8d 05 fb 81 00 00 	leaq	33275(%rip), %rax       # 0xffffff8000210c18 <_ZN3log6LOGGER17h48756037b7073395E.1+0x18>
ffffff8000208a1d: 48 89 44 24 40       	movq	%rax, 64(%rsp)
ffffff8000208a22: 48 c7 44 24 48 01 00 00 00   	movq	$1, 72(%rsp)
ffffff8000208a2b: 48 8d 44 24 60       	leaq	96(%rsp), %rax
ffffff8000208a30: 48 89 44 24 30       	movq	%rax, 48(%rsp)
ffffff8000208a35: 48 c7 44 24 38 01 00 00 00   	movq	$1, 56(%rsp)
ffffff8000208a3e: 48 8d 44 24 20       	leaq	32(%rsp), %rax
ffffff8000208a43: 48 89 44 24 50       	movq	%rax, 80(%rsp)
ffffff8000208a48: 48 c7 44 24 58 01 00 00 00   	movq	$1, 88(%rsp)
ffffff8000208a51: 48 8d 15 d8 e9 ff ff 	leaq	-5672(%rip), %rdx       # 0xffffff8000207430 <_ZN57_$LT$core..fmt..Arguments$u20$as$u20$core..fmt..Debug$GT$3fmt17h0b4deac70b97a53dE>
ffffff8000208a58: 48 8d 7c 24 08       	leaq	8(%rsp), %rdi
ffffff8000208a5d: 48 8d 74 24 30       	leaq	48(%rsp), %rsi
ffffff8000208a62: e8 59 e8 ff ff       	callq	0xffffff80002072c0 <_ZN4core3fmt8builders10DebugTuple5field17hd21dd5678d410a30E>
ffffff8000208a67: 48 8b 44 24 08       	movq	8(%rsp), %rax
ffffff8000208a6c: 0f b6 5c 24 18       	movzbl	24(%rsp), %ebx
ffffff8000208a71: 48 85 c0             	testq	%rax, %rax
ffffff8000208a74: 74 51                	je	0xffffff8000208ac7 <_ZN67_$LT$x86_64..addr..VirtAddrNotValid$u20$as$u20$core..fmt..Debug$GT$3fmt17h032dc9fddb192d66E+0x137>
ffffff8000208a76: 84 db                	testb	%bl, %bl
ffffff8000208a78: b3 01                	movb	$1, %bl
ffffff8000208a7a: 75 4b                	jne	0xffffff8000208ac7 <_ZN67_$LT$x86_64..addr..VirtAddrNotValid$u20$as$u20$core..fmt..Debug$GT$3fmt17h032dc9fddb192d66E+0x137>
ffffff8000208a7c: 4c 8b 74 24 10       	movq	16(%rsp), %r14
ffffff8000208a81: 48 83 f8 01          	cmpq	$1, %rax
ffffff8000208a85: 75 28                	jne	0xffffff8000208aaf <_ZN67_$LT$x86_64..addr..VirtAddrNotValid$u20$as$u20$core..fmt..Debug$GT$3fmt17h032dc9fddb192d66E+0x11f>
ffffff8000208a87: 80 7c 24 19 00       	cmpb	$0, 25(%rsp)
ffffff8000208a8c: 74 21                	je	0xffffff8000208aaf <_ZN67_$LT$x86_64..addr..VirtAddrNotValid$u20$as$u20$core..fmt..Debug$GT$3fmt17h032dc9fddb192d66E+0x11f>
ffffff8000208a8e: 41 f6 46 30 04       	testb	$4, 48(%r14)
ffffff8000208a93: 75 1a                	jne	0xffffff8000208aaf <_ZN67_$LT$x86_64..addr..VirtAddrNotValid$u20$as$u20$core..fmt..Debug$GT$3fmt17h032dc9fddb192d66E+0x11f>
ffffff8000208a95: 49 8b 3e             	movq	(%r14), %rdi
ffffff8000208a98: 49 8b 46 08          	movq	8(%r14), %rax
ffffff8000208a9c: 48 8d 35 8f 18 00 00 	leaq	6287(%rip), %rsi        # 0xffffff800020a332 <str.0+0x612>
ffffff8000208aa3: ba 01 00 00 00       	movl	$1, %edx
ffffff8000208aa8: ff 50 18             	callq	*24(%rax)
ffffff8000208aab: 84 c0                	testb	%al, %al
ffffff8000208aad: 75 18                	jne	0xffffff8000208ac7 <_ZN67_$LT$x86_64..addr..VirtAddrNotValid$u20$as$u20$core..fmt..Debug$GT$3fmt17h032dc9fddb192d66E+0x137>
ffffff8000208aaf: 49 8b 3e             	movq	(%r14), %rdi
ffffff8000208ab2: 49 8b 46 08          	movq	8(%r14), %rax
ffffff8000208ab6: 48 8d 35 fc 17 00 00 	leaq	6140(%rip), %rsi        # 0xffffff800020a2b9 <str.0+0x599>
ffffff8000208abd: ba 01 00 00 00       	movl	$1, %edx
ffffff8000208ac2: ff 50 18             	callq	*24(%rax)
ffffff8000208ac5: 89 c3                	movl	%eax, %ebx
ffffff8000208ac7: 89 d8                	movl	%ebx, %eax
ffffff8000208ac9: 48 81 c4 98 00 00 00 	addq	$152, %rsp
ffffff8000208ad0: 5b                   	popq	%rbx
ffffff8000208ad1: 41 5e                	popq	%r14
ffffff8000208ad3: c3                   	retq
ffffff8000208ad4: cc                   	int3
ffffff8000208ad5: cc                   	int3
ffffff8000208ad6: cc                   	int3
ffffff8000208ad7: cc                   	int3
ffffff8000208ad8: cc                   	int3
ffffff8000208ad9: cc                   	int3
ffffff8000208ada: cc                   	int3
ffffff8000208adb: cc                   	int3
ffffff8000208adc: cc                   	int3
ffffff8000208add: cc                   	int3
ffffff8000208ade: cc                   	int3
ffffff8000208adf: cc                   	int3

ffffff8000208ae0 <memcpy>:
ffffff8000208ae0: ff 25 b2 82 00 00    	jmpq	*33458(%rip)            # 0xffffff8000210d98 <_ZN3log6LOGGER17h48756037b7073395E.1+0x198>
ffffff8000208ae6: cc                   	int3
ffffff8000208ae7: cc                   	int3
ffffff8000208ae8: cc                   	int3
ffffff8000208ae9: cc                   	int3
ffffff8000208aea: cc                   	int3
ffffff8000208aeb: cc                   	int3
ffffff8000208aec: cc                   	int3
ffffff8000208aed: cc                   	int3
ffffff8000208aee: cc                   	int3
ffffff8000208aef: cc                   	int3

ffffff8000208af0 <_ZN17compiler_builtins3mem6memcpy17h20f2faeaf7908fb0E>:
ffffff8000208af0: 49 89 f8             	movq	%rdi, %r8
ffffff8000208af3: 44 89 c0             	movl	%r8d, %eax
ffffff8000208af6: f7 d8                	negl	%eax
ffffff8000208af8: 83 e0 07             	andl	$7, %eax
ffffff8000208afb: 48 39 d0             	cmpq	%rdx, %rax
ffffff8000208afe: 48 0f 43 c2          	cmovaeq	%rdx, %rax
ffffff8000208b02: 48 89 c1             	movq	%rax, %rcx
ffffff8000208b05: f3 a4                	rep		movsb	(%rsi), %es:(%rdi)
ffffff8000208b07: 48 29 c2             	subq	%rax, %rdx
ffffff8000208b0a: 48 89 d1             	movq	%rdx, %rcx
ffffff8000208b0d: 48 c1 e9 03          	shrq	$3, %rcx
ffffff8000208b11: f3 48 a5             	rep		movsq	(%rsi), %es:(%rdi)
ffffff8000208b14: 83 e2 07             	andl	$7, %edx
ffffff8000208b17: 48 89 d1             	movq	%rdx, %rcx
ffffff8000208b1a: f3 a4                	rep		movsb	(%rsi), %es:(%rdi)
ffffff8000208b1c: 4c 89 c0             	movq	%r8, %rax
ffffff8000208b1f: c3                   	retq

ffffff8000208b20 <_ZN17compiler_builtins3mem6memset17hfc7683db6cafdf05E>:
ffffff8000208b20: 49 89 f8             	movq	%rdi, %r8
ffffff8000208b23: 40 0f b6 ce          	movzbl	%sil, %ecx
ffffff8000208b27: 48 b8 01 01 01 01 01 01 01 01	movabsq	$72340172838076673, %rax # imm = 0x101010101010101
ffffff8000208b31: 48 0f af c1          	imulq	%rcx, %rax
ffffff8000208b35: 44 89 c1             	movl	%r8d, %ecx
ffffff8000208b38: f7 d9                	negl	%ecx
ffffff8000208b3a: 83 e1 07             	andl	$7, %ecx
ffffff8000208b3d: 48 39 d1             	cmpq	%rdx, %rcx
ffffff8000208b40: 48 0f 43 ca          	cmovaeq	%rdx, %rcx
ffffff8000208b44: 48 29 ca             	subq	%rcx, %rdx
ffffff8000208b47: 48 89 d6             	movq	%rdx, %rsi
ffffff8000208b4a: 48 c1 ee 03          	shrq	$3, %rsi
ffffff8000208b4e: 83 e2 07             	andl	$7, %edx
ffffff8000208b51: f3 aa                	rep		stosb	%al, %es:(%rdi)
ffffff8000208b53: 48 89 f1             	movq	%rsi, %rcx
ffffff8000208b56: f3 48 ab             	rep		stosq	%rax, %es:(%rdi)
ffffff8000208b59: 48 89 d1             	movq	%rdx, %rcx
ffffff8000208b5c: f3 aa                	rep		stosb	%al, %es:(%rdi)
ffffff8000208b5e: 4c 89 c0             	movq	%r8, %rax
ffffff8000208b61: c3                   	retq
ffffff8000208b62: cc                   	int3
ffffff8000208b63: cc                   	int3
ffffff8000208b64: cc                   	int3
ffffff8000208b65: cc                   	int3
ffffff8000208b66: cc                   	int3
ffffff8000208b67: cc                   	int3
ffffff8000208b68: cc                   	int3
ffffff8000208b69: cc                   	int3
ffffff8000208b6a: cc                   	int3
ffffff8000208b6b: cc                   	int3
ffffff8000208b6c: cc                   	int3
ffffff8000208b6d: cc                   	int3
ffffff8000208b6e: cc                   	int3
ffffff8000208b6f: cc                   	int3

ffffff8000208b70 <memset>:
ffffff8000208b70: ff 25 2a 82 00 00    	jmpq	*33322(%rip)            # 0xffffff8000210da0 <_ZN3log6LOGGER17h48756037b7073395E.1+0x1a0>

ffffff8000208b76 <__rust_probestack>:
ffffff8000208b76: 55                   	pushq	%rbp
ffffff8000208b77: 48 89 e5             	movq	%rsp, %rbp
ffffff8000208b7a: 49 89 c3             	movq	%rax, %r11
ffffff8000208b7d: 49 81 fb 00 10 00 00 	cmpq	$4096, %r11             # imm = 0x1000
ffffff8000208b84: 76 1c                	jbe	0xffffff8000208ba2 <__rust_probestack+0x2c>
ffffff8000208b86: 48 81 ec 00 10 00 00 	subq	$4096, %rsp             # imm = 0x1000
ffffff8000208b8d: 48 85 64 24 08       	testq	%rsp, 8(%rsp)
ffffff8000208b92: 49 81 eb 00 10 00 00 	subq	$4096, %r11             # imm = 0x1000
ffffff8000208b99: 49 81 fb 00 10 00 00 	cmpq	$4096, %r11             # imm = 0x1000
ffffff8000208ba0: 77 e4                	ja	0xffffff8000208b86 <__rust_probestack+0x10>
ffffff8000208ba2: 4c 29 dc             	subq	%r11, %rsp
ffffff8000208ba5: 48 85 64 24 08       	testq	%rsp, 8(%rsp)
ffffff8000208baa: 48 01 c4             	addq	%rax, %rsp
ffffff8000208bad: c9                   	leave
ffffff8000208bae: c3                   	retq
ffffff8000208baf: cc                   	int3
ffffff8000208bb0: cc                   	int3
ffffff8000208bb1: cc                   	int3
ffffff8000208bb2: cc                   	int3
ffffff8000208bb3: cc                   	int3
ffffff8000208bb4: cc                   	int3
ffffff8000208bb5: cc                   	int3
ffffff8000208bb6: cc                   	int3
ffffff8000208bb7: cc                   	int3
ffffff8000208bb8: cc                   	int3
ffffff8000208bb9: cc                   	int3
ffffff8000208bba: cc                   	int3
ffffff8000208bbb: cc                   	int3
ffffff8000208bbc: cc                   	int3
ffffff8000208bbd: cc                   	int3
ffffff8000208bbe: cc                   	int3
ffffff8000208bbf: cc                   	int3
ffffff8000208bc0: cc                   	int3
ffffff8000208bc1: cc                   	int3
ffffff8000208bc2: cc                   	int3
ffffff8000208bc3: cc                   	int3
ffffff8000208bc4: cc                   	int3
ffffff8000208bc5: cc                   	int3
ffffff8000208bc6: cc                   	int3
ffffff8000208bc7: cc                   	int3
ffffff8000208bc8: cc                   	int3
ffffff8000208bc9: cc                   	int3
ffffff8000208bca: cc                   	int3
ffffff8000208bcb: cc                   	int3
ffffff8000208bcc: cc                   	int3
ffffff8000208bcd: cc                   	int3
ffffff8000208bce: cc                   	int3
ffffff8000208bcf: cc                   	int3
ffffff8000208bd0: cc                   	int3
ffffff8000208bd1: cc                   	int3
ffffff8000208bd2: cc                   	int3
ffffff8000208bd3: cc                   	int3
ffffff8000208bd4: cc                   	int3
ffffff8000208bd5: cc                   	int3
ffffff8000208bd6: cc                   	int3
ffffff8000208bd7: cc                   	int3
ffffff8000208bd8: cc                   	int3
ffffff8000208bd9: cc                   	int3
ffffff8000208bda: cc                   	int3
ffffff8000208bdb: cc                   	int3
ffffff8000208bdc: cc                   	int3
ffffff8000208bdd: cc                   	int3
ffffff8000208bde: cc                   	int3
ffffff8000208bdf: cc                   	int3
ffffff8000208be0: cc                   	int3
ffffff8000208be1: cc                   	int3
ffffff8000208be2: cc                   	int3
ffffff8000208be3: cc                   	int3
ffffff8000208be4: cc                   	int3
ffffff8000208be5: cc                   	int3
ffffff8000208be6: cc                   	int3
ffffff8000208be7: cc                   	int3
ffffff8000208be8: cc                   	int3
ffffff8000208be9: cc                   	int3
ffffff8000208bea: cc                   	int3
ffffff8000208beb: cc                   	int3
ffffff8000208bec: cc                   	int3
ffffff8000208bed: cc                   	int3
ffffff8000208bee: cc                   	int3
ffffff8000208bef: cc                   	int3
ffffff8000208bf0: cc                   	int3
ffffff8000208bf1: cc                   	int3
ffffff8000208bf2: cc                   	int3
ffffff8000208bf3: cc                   	int3
ffffff8000208bf4: cc                   	int3
ffffff8000208bf5: cc                   	int3
ffffff8000208bf6: cc                   	int3
ffffff8000208bf7: cc                   	int3
ffffff8000208bf8: cc                   	int3
ffffff8000208bf9: cc                   	int3
ffffff8000208bfa: cc                   	int3
ffffff8000208bfb: cc                   	int3
ffffff8000208bfc: cc                   	int3
ffffff8000208bfd: cc                   	int3
ffffff8000208bfe: cc                   	int3
ffffff8000208bff: cc                   	int3
ffffff8000208c00: cc                   	int3
ffffff8000208c01: cc                   	int3
ffffff8000208c02: cc                   	int3
ffffff8000208c03: cc                   	int3
ffffff8000208c04: cc                   	int3
ffffff8000208c05: cc                   	int3
ffffff8000208c06: cc                   	int3
ffffff8000208c07: cc                   	int3
ffffff8000208c08: cc                   	int3
ffffff8000208c09: cc                   	int3
ffffff8000208c0a: cc                   	int3
ffffff8000208c0b: cc                   	int3
ffffff8000208c0c: cc                   	int3
ffffff8000208c0d: cc                   	int3
ffffff8000208c0e: cc                   	int3
ffffff8000208c0f: cc                   	int3
ffffff8000208c10: cc                   	int3
ffffff8000208c11: cc                   	int3
ffffff8000208c12: cc                   	int3
ffffff8000208c13: cc                   	int3
ffffff8000208c14: cc                   	int3
ffffff8000208c15: cc                   	int3
ffffff8000208c16: cc                   	int3
ffffff8000208c17: cc                   	int3
ffffff8000208c18: cc                   	int3
ffffff8000208c19: cc                   	int3
ffffff8000208c1a: cc                   	int3
ffffff8000208c1b: cc                   	int3
ffffff8000208c1c: cc                   	int3
ffffff8000208c1d: cc                   	int3
ffffff8000208c1e: cc                   	int3
ffffff8000208c1f: cc                   	int3
ffffff8000208c20: cc                   	int3
ffffff8000208c21: cc                   	int3
ffffff8000208c22: cc                   	int3
ffffff8000208c23: cc                   	int3
ffffff8000208c24: cc                   	int3
ffffff8000208c25: cc                   	int3
ffffff8000208c26: cc                   	int3
ffffff8000208c27: cc                   	int3
ffffff8000208c28: cc                   	int3
ffffff8000208c29: cc                   	int3
ffffff8000208c2a: cc                   	int3
ffffff8000208c2b: cc                   	int3
ffffff8000208c2c: cc                   	int3
ffffff8000208c2d: cc                   	int3
ffffff8000208c2e: cc                   	int3
ffffff8000208c2f: cc                   	int3
ffffff8000208c30: cc                   	int3
ffffff8000208c31: cc                   	int3
ffffff8000208c32: cc                   	int3
ffffff8000208c33: cc                   	int3
ffffff8000208c34: cc                   	int3
ffffff8000208c35: cc                   	int3
ffffff8000208c36: cc                   	int3
ffffff8000208c37: cc                   	int3
ffffff8000208c38: cc                   	int3
ffffff8000208c39: cc                   	int3
ffffff8000208c3a: cc                   	int3
ffffff8000208c3b: cc                   	int3
ffffff8000208c3c: cc                   	int3
ffffff8000208c3d: cc                   	int3
ffffff8000208c3e: cc                   	int3
ffffff8000208c3f: cc                   	int3
ffffff8000208c40: cc                   	int3
ffffff8000208c41: cc                   	int3
ffffff8000208c42: cc                   	int3
ffffff8000208c43: cc                   	int3
ffffff8000208c44: cc                   	int3
ffffff8000208c45: cc                   	int3
ffffff8000208c46: cc                   	int3
ffffff8000208c47: cc                   	int3
ffffff8000208c48: cc                   	int3
ffffff8000208c49: cc                   	int3
ffffff8000208c4a: cc                   	int3
ffffff8000208c4b: cc                   	int3
ffffff8000208c4c: cc                   	int3
ffffff8000208c4d: cc                   	int3
ffffff8000208c4e: cc                   	int3
ffffff8000208c4f: cc                   	int3
ffffff8000208c50: cc                   	int3
ffffff8000208c51: cc                   	int3
ffffff8000208c52: cc                   	int3
ffffff8000208c53: cc                   	int3
ffffff8000208c54: cc                   	int3
ffffff8000208c55: cc                   	int3
ffffff8000208c56: cc                   	int3
ffffff8000208c57: cc                   	int3
ffffff8000208c58: cc                   	int3
ffffff8000208c59: cc                   	int3
ffffff8000208c5a: cc                   	int3
ffffff8000208c5b: cc                   	int3
ffffff8000208c5c: cc                   	int3
ffffff8000208c5d: cc                   	int3
ffffff8000208c5e: cc                   	int3
ffffff8000208c5f: cc                   	int3
ffffff8000208c60: cc                   	int3
ffffff8000208c61: cc                   	int3
ffffff8000208c62: cc                   	int3
ffffff8000208c63: cc                   	int3
ffffff8000208c64: cc                   	int3
ffffff8000208c65: cc                   	int3
ffffff8000208c66: cc                   	int3
ffffff8000208c67: cc                   	int3
ffffff8000208c68: cc                   	int3
ffffff8000208c69: cc                   	int3
ffffff8000208c6a: cc                   	int3
ffffff8000208c6b: cc                   	int3
ffffff8000208c6c: cc                   	int3
ffffff8000208c6d: cc                   	int3
ffffff8000208c6e: cc                   	int3
ffffff8000208c6f: cc                   	int3
ffffff8000208c70: cc                   	int3
ffffff8000208c71: cc                   	int3
ffffff8000208c72: cc                   	int3
ffffff8000208c73: cc                   	int3
ffffff8000208c74: cc                   	int3
ffffff8000208c75: cc                   	int3
ffffff8000208c76: cc                   	int3
ffffff8000208c77: cc                   	int3
ffffff8000208c78: cc                   	int3
ffffff8000208c79: cc                   	int3
ffffff8000208c7a: cc                   	int3
ffffff8000208c7b: cc                   	int3
ffffff8000208c7c: cc                   	int3
ffffff8000208c7d: cc                   	int3
ffffff8000208c7e: cc                   	int3
ffffff8000208c7f: cc                   	int3
ffffff8000208c80: cc                   	int3
ffffff8000208c81: cc                   	int3
ffffff8000208c82: cc                   	int3
ffffff8000208c83: cc                   	int3
ffffff8000208c84: cc                   	int3
ffffff8000208c85: cc                   	int3
ffffff8000208c86: cc                   	int3
ffffff8000208c87: cc                   	int3
ffffff8000208c88: cc                   	int3
ffffff8000208c89: cc                   	int3
ffffff8000208c8a: cc                   	int3
ffffff8000208c8b: cc                   	int3
ffffff8000208c8c: cc                   	int3
ffffff8000208c8d: cc                   	int3
ffffff8000208c8e: cc                   	int3
ffffff8000208c8f: cc                   	int3
ffffff8000208c90: cc                   	int3
ffffff8000208c91: cc                   	int3
ffffff8000208c92: cc                   	int3
ffffff8000208c93: cc                   	int3
ffffff8000208c94: cc                   	int3
ffffff8000208c95: cc                   	int3
ffffff8000208c96: cc                   	int3
ffffff8000208c97: cc                   	int3
ffffff8000208c98: cc                   	int3
ffffff8000208c99: cc                   	int3
ffffff8000208c9a: cc                   	int3
ffffff8000208c9b: cc                   	int3
ffffff8000208c9c: cc                   	int3
ffffff8000208c9d: cc                   	int3
ffffff8000208c9e: cc                   	int3
ffffff8000208c9f: cc                   	int3
ffffff8000208ca0: cc                   	int3
ffffff8000208ca1: cc                   	int3
ffffff8000208ca2: cc                   	int3
ffffff8000208ca3: cc                   	int3
ffffff8000208ca4: cc                   	int3
ffffff8000208ca5: cc                   	int3
ffffff8000208ca6: cc                   	int3
ffffff8000208ca7: cc                   	int3
ffffff8000208ca8: cc                   	int3
ffffff8000208ca9: cc                   	int3
ffffff8000208caa: cc                   	int3
ffffff8000208cab: cc                   	int3
ffffff8000208cac: cc                   	int3
ffffff8000208cad: cc                   	int3
ffffff8000208cae: cc                   	int3
ffffff8000208caf: cc                   	int3
ffffff8000208cb0: cc                   	int3
ffffff8000208cb1: cc                   	int3
ffffff8000208cb2: cc                   	int3
ffffff8000208cb3: cc                   	int3
ffffff8000208cb4: cc                   	int3
ffffff8000208cb5: cc                   	int3
ffffff8000208cb6: cc                   	int3
ffffff8000208cb7: cc                   	int3
ffffff8000208cb8: cc                   	int3
ffffff8000208cb9: cc                   	int3
ffffff8000208cba: cc                   	int3
ffffff8000208cbb: cc                   	int3
ffffff8000208cbc: cc                   	int3
ffffff8000208cbd: cc                   	int3
ffffff8000208cbe: cc                   	int3
ffffff8000208cbf: cc                   	int3
ffffff8000208cc0: cc                   	int3
ffffff8000208cc1: cc                   	int3
ffffff8000208cc2: cc                   	int3
ffffff8000208cc3: cc                   	int3
ffffff8000208cc4: cc                   	int3
ffffff8000208cc5: cc                   	int3
ffffff8000208cc6: cc                   	int3
ffffff8000208cc7: cc                   	int3
ffffff8000208cc8: cc                   	int3
ffffff8000208cc9: cc                   	int3
ffffff8000208cca: cc                   	int3
ffffff8000208ccb: cc                   	int3
ffffff8000208ccc: cc                   	int3
ffffff8000208ccd: cc                   	int3
ffffff8000208cce: cc                   	int3
ffffff8000208ccf: cc                   	int3
ffffff8000208cd0: cc                   	int3
ffffff8000208cd1: cc                   	int3
ffffff8000208cd2: cc                   	int3
ffffff8000208cd3: cc                   	int3
ffffff8000208cd4: cc                   	int3
ffffff8000208cd5: cc                   	int3
ffffff8000208cd6: cc                   	int3
ffffff8000208cd7: cc                   	int3
ffffff8000208cd8: cc                   	int3
ffffff8000208cd9: cc                   	int3
ffffff8000208cda: cc                   	int3
ffffff8000208cdb: cc                   	int3
ffffff8000208cdc: cc                   	int3
ffffff8000208cdd: cc                   	int3
ffffff8000208cde: cc                   	int3
ffffff8000208cdf: cc                   	int3
ffffff8000208ce0: cc                   	int3
ffffff8000208ce1: cc                   	int3
ffffff8000208ce2: cc                   	int3
ffffff8000208ce3: cc                   	int3
ffffff8000208ce4: cc                   	int3
ffffff8000208ce5: cc                   	int3
ffffff8000208ce6: cc                   	int3
ffffff8000208ce7: cc                   	int3
ffffff8000208ce8: cc                   	int3
ffffff8000208ce9: cc                   	int3
ffffff8000208cea: cc                   	int3
ffffff8000208ceb: cc                   	int3
ffffff8000208cec: cc                   	int3
ffffff8000208ced: cc                   	int3
ffffff8000208cee: cc                   	int3
ffffff8000208cef: cc                   	int3
ffffff8000208cf0: cc                   	int3
ffffff8000208cf1: cc                   	int3
ffffff8000208cf2: cc                   	int3
ffffff8000208cf3: cc                   	int3
ffffff8000208cf4: cc                   	int3
ffffff8000208cf5: cc                   	int3
ffffff8000208cf6: cc                   	int3
ffffff8000208cf7: cc                   	int3
ffffff8000208cf8: cc                   	int3
ffffff8000208cf9: cc                   	int3
ffffff8000208cfa: cc                   	int3
ffffff8000208cfb: cc                   	int3
ffffff8000208cfc: cc                   	int3
ffffff8000208cfd: cc                   	int3
ffffff8000208cfe: cc                   	int3
ffffff8000208cff: cc                   	int3
ffffff8000208d00: cc                   	int3
ffffff8000208d01: cc                   	int3
ffffff8000208d02: cc                   	int3
ffffff8000208d03: cc                   	int3
ffffff8000208d04: cc                   	int3
ffffff8000208d05: cc                   	int3
ffffff8000208d06: cc                   	int3
ffffff8000208d07: cc                   	int3
ffffff8000208d08: cc                   	int3
ffffff8000208d09: cc                   	int3
ffffff8000208d0a: cc                   	int3
ffffff8000208d0b: cc                   	int3
ffffff8000208d0c: cc                   	int3
ffffff8000208d0d: cc                   	int3
ffffff8000208d0e: cc                   	int3
ffffff8000208d0f: cc                   	int3
ffffff8000208d10: cc                   	int3
ffffff8000208d11: cc                   	int3
ffffff8000208d12: cc                   	int3
ffffff8000208d13: cc                   	int3
ffffff8000208d14: cc                   	int3
ffffff8000208d15: cc                   	int3
ffffff8000208d16: cc                   	int3
ffffff8000208d17: cc                   	int3
ffffff8000208d18: cc                   	int3
ffffff8000208d19: cc                   	int3
ffffff8000208d1a: cc                   	int3
ffffff8000208d1b: cc                   	int3
ffffff8000208d1c: cc                   	int3
ffffff8000208d1d: cc                   	int3
ffffff8000208d1e: cc                   	int3
ffffff8000208d1f: cc                   	int3
ffffff8000208d20: cc                   	int3
ffffff8000208d21: cc                   	int3
ffffff8000208d22: cc                   	int3
ffffff8000208d23: cc                   	int3
ffffff8000208d24: cc                   	int3
ffffff8000208d25: cc                   	int3
ffffff8000208d26: cc                   	int3
ffffff8000208d27: cc                   	int3
ffffff8000208d28: cc                   	int3
ffffff8000208d29: cc                   	int3
ffffff8000208d2a: cc                   	int3
ffffff8000208d2b: cc                   	int3
ffffff8000208d2c: cc                   	int3
ffffff8000208d2d: cc                   	int3
ffffff8000208d2e: cc                   	int3
ffffff8000208d2f: cc                   	int3
ffffff8000208d30: cc                   	int3
ffffff8000208d31: cc                   	int3
ffffff8000208d32: cc                   	int3
ffffff8000208d33: cc                   	int3
ffffff8000208d34: cc                   	int3
ffffff8000208d35: cc                   	int3
ffffff8000208d36: cc                   	int3
ffffff8000208d37: cc                   	int3
ffffff8000208d38: cc                   	int3
ffffff8000208d39: cc                   	int3
ffffff8000208d3a: cc                   	int3
ffffff8000208d3b: cc                   	int3
ffffff8000208d3c: cc                   	int3
ffffff8000208d3d: cc                   	int3
ffffff8000208d3e: cc                   	int3
ffffff8000208d3f: cc                   	int3
ffffff8000208d40: cc                   	int3
ffffff8000208d41: cc                   	int3
ffffff8000208d42: cc                   	int3
ffffff8000208d43: cc                   	int3
ffffff8000208d44: cc                   	int3
ffffff8000208d45: cc                   	int3
ffffff8000208d46: cc                   	int3
ffffff8000208d47: cc                   	int3
ffffff8000208d48: cc                   	int3
ffffff8000208d49: cc                   	int3
ffffff8000208d4a: cc                   	int3
ffffff8000208d4b: cc                   	int3
ffffff8000208d4c: cc                   	int3
ffffff8000208d4d: cc                   	int3
ffffff8000208d4e: cc                   	int3
ffffff8000208d4f: cc                   	int3
ffffff8000208d50: cc                   	int3
ffffff8000208d51: cc                   	int3
ffffff8000208d52: cc                   	int3
ffffff8000208d53: cc                   	int3
ffffff8000208d54: cc                   	int3
ffffff8000208d55: cc                   	int3
ffffff8000208d56: cc                   	int3
ffffff8000208d57: cc                   	int3
ffffff8000208d58: cc                   	int3
ffffff8000208d59: cc                   	int3
ffffff8000208d5a: cc                   	int3
ffffff8000208d5b: cc                   	int3
ffffff8000208d5c: cc                   	int3
ffffff8000208d5d: cc                   	int3
ffffff8000208d5e: cc                   	int3
ffffff8000208d5f: cc                   	int3
ffffff8000208d60: cc                   	int3
ffffff8000208d61: cc                   	int3
ffffff8000208d62: cc                   	int3
ffffff8000208d63: cc                   	int3
ffffff8000208d64: cc                   	int3
ffffff8000208d65: cc                   	int3
ffffff8000208d66: cc                   	int3
ffffff8000208d67: cc                   	int3
ffffff8000208d68: cc                   	int3
ffffff8000208d69: cc                   	int3
ffffff8000208d6a: cc                   	int3
ffffff8000208d6b: cc                   	int3
ffffff8000208d6c: cc                   	int3
ffffff8000208d6d: cc                   	int3
ffffff8000208d6e: cc                   	int3
ffffff8000208d6f: cc                   	int3
ffffff8000208d70: cc                   	int3
ffffff8000208d71: cc                   	int3
ffffff8000208d72: cc                   	int3
ffffff8000208d73: cc                   	int3
ffffff8000208d74: cc                   	int3
ffffff8000208d75: cc                   	int3
ffffff8000208d76: cc                   	int3
ffffff8000208d77: cc                   	int3
ffffff8000208d78: cc                   	int3
ffffff8000208d79: cc                   	int3
ffffff8000208d7a: cc                   	int3
ffffff8000208d7b: cc                   	int3
ffffff8000208d7c: cc                   	int3
ffffff8000208d7d: cc                   	int3
ffffff8000208d7e: cc                   	int3
ffffff8000208d7f: cc                   	int3
ffffff8000208d80: cc                   	int3
ffffff8000208d81: cc                   	int3
ffffff8000208d82: cc                   	int3
ffffff8000208d83: cc                   	int3
ffffff8000208d84: cc                   	int3
ffffff8000208d85: cc                   	int3
ffffff8000208d86: cc                   	int3
ffffff8000208d87: cc                   	int3
ffffff8000208d88: cc                   	int3
ffffff8000208d89: cc                   	int3
ffffff8000208d8a: cc                   	int3
ffffff8000208d8b: cc                   	int3
ffffff8000208d8c: cc                   	int3
ffffff8000208d8d: cc                   	int3
ffffff8000208d8e: cc                   	int3
ffffff8000208d8f: cc                   	int3
ffffff8000208d90: cc                   	int3
ffffff8000208d91: cc                   	int3
ffffff8000208d92: cc                   	int3
ffffff8000208d93: cc                   	int3
ffffff8000208d94: cc                   	int3
ffffff8000208d95: cc                   	int3
ffffff8000208d96: cc                   	int3
ffffff8000208d97: cc                   	int3
ffffff8000208d98: cc                   	int3
ffffff8000208d99: cc                   	int3
ffffff8000208d9a: cc                   	int3
ffffff8000208d9b: cc                   	int3
ffffff8000208d9c: cc                   	int3
ffffff8000208d9d: cc                   	int3
ffffff8000208d9e: cc                   	int3
ffffff8000208d9f: cc                   	int3
ffffff8000208da0: cc                   	int3
ffffff8000208da1: cc                   	int3
ffffff8000208da2: cc                   	int3
ffffff8000208da3: cc                   	int3
ffffff8000208da4: cc                   	int3
ffffff8000208da5: cc                   	int3
ffffff8000208da6: cc                   	int3
ffffff8000208da7: cc                   	int3
ffffff8000208da8: cc                   	int3
ffffff8000208da9: cc                   	int3
ffffff8000208daa: cc                   	int3
ffffff8000208dab: cc                   	int3
ffffff8000208dac: cc                   	int3
ffffff8000208dad: cc                   	int3
ffffff8000208dae: cc                   	int3
ffffff8000208daf: cc                   	int3
ffffff8000208db0: cc                   	int3
ffffff8000208db1: cc                   	int3
ffffff8000208db2: cc                   	int3
ffffff8000208db3: cc                   	int3
ffffff8000208db4: cc                   	int3
ffffff8000208db5: cc                   	int3
ffffff8000208db6: cc                   	int3
ffffff8000208db7: cc                   	int3
ffffff8000208db8: cc                   	int3
ffffff8000208db9: cc                   	int3
ffffff8000208dba: cc                   	int3
ffffff8000208dbb: cc                   	int3
ffffff8000208dbc: cc                   	int3
ffffff8000208dbd: cc                   	int3
ffffff8000208dbe: cc                   	int3
ffffff8000208dbf: cc                   	int3
ffffff8000208dc0: cc                   	int3
ffffff8000208dc1: cc                   	int3
ffffff8000208dc2: cc                   	int3
ffffff8000208dc3: cc                   	int3
ffffff8000208dc4: cc                   	int3
ffffff8000208dc5: cc                   	int3
ffffff8000208dc6: cc                   	int3
ffffff8000208dc7: cc                   	int3
ffffff8000208dc8: cc                   	int3
ffffff8000208dc9: cc                   	int3
ffffff8000208dca: cc                   	int3
ffffff8000208dcb: cc                   	int3
ffffff8000208dcc: cc                   	int3
ffffff8000208dcd: cc                   	int3
ffffff8000208dce: cc                   	int3
ffffff8000208dcf: cc                   	int3
ffffff8000208dd0: cc                   	int3
ffffff8000208dd1: cc                   	int3
ffffff8000208dd2: cc                   	int3
ffffff8000208dd3: cc                   	int3
ffffff8000208dd4: cc                   	int3
ffffff8000208dd5: cc                   	int3
ffffff8000208dd6: cc                   	int3
ffffff8000208dd7: cc                   	int3
ffffff8000208dd8: cc                   	int3
ffffff8000208dd9: cc                   	int3
ffffff8000208dda: cc                   	int3
ffffff8000208ddb: cc                   	int3
ffffff8000208ddc: cc                   	int3
ffffff8000208ddd: cc                   	int3
ffffff8000208dde: cc                   	int3
ffffff8000208ddf: cc                   	int3
ffffff8000208de0: cc                   	int3
ffffff8000208de1: cc                   	int3
ffffff8000208de2: cc                   	int3
ffffff8000208de3: cc                   	int3
ffffff8000208de4: cc                   	int3
ffffff8000208de5: cc                   	int3
ffffff8000208de6: cc                   	int3
ffffff8000208de7: cc                   	int3
ffffff8000208de8: cc                   	int3
ffffff8000208de9: cc                   	int3
ffffff8000208dea: cc                   	int3
ffffff8000208deb: cc                   	int3
ffffff8000208dec: cc                   	int3
ffffff8000208ded: cc                   	int3
ffffff8000208dee: cc                   	int3
ffffff8000208def: cc                   	int3
ffffff8000208df0: cc                   	int3
ffffff8000208df1: cc                   	int3
ffffff8000208df2: cc                   	int3
ffffff8000208df3: cc                   	int3
ffffff8000208df4: cc                   	int3
ffffff8000208df5: cc                   	int3
ffffff8000208df6: cc                   	int3
ffffff8000208df7: cc                   	int3
ffffff8000208df8: cc                   	int3
ffffff8000208df9: cc                   	int3
ffffff8000208dfa: cc                   	int3
ffffff8000208dfb: cc                   	int3
ffffff8000208dfc: cc                   	int3
ffffff8000208dfd: cc                   	int3
ffffff8000208dfe: cc                   	int3
ffffff8000208dff: cc                   	int3
ffffff8000208e00: cc                   	int3
ffffff8000208e01: cc                   	int3
ffffff8000208e02: cc                   	int3
ffffff8000208e03: cc                   	int3
ffffff8000208e04: cc                   	int3
ffffff8000208e05: cc                   	int3
ffffff8000208e06: cc                   	int3
ffffff8000208e07: cc                   	int3
ffffff8000208e08: cc                   	int3
ffffff8000208e09: cc                   	int3
ffffff8000208e0a: cc                   	int3
ffffff8000208e0b: cc                   	int3
ffffff8000208e0c: cc                   	int3
ffffff8000208e0d: cc                   	int3
ffffff8000208e0e: cc                   	int3
ffffff8000208e0f: cc                   	int3
ffffff8000208e10: cc                   	int3
ffffff8000208e11: cc                   	int3
ffffff8000208e12: cc                   	int3
ffffff8000208e13: cc                   	int3
ffffff8000208e14: cc                   	int3
ffffff8000208e15: cc                   	int3
ffffff8000208e16: cc                   	int3
ffffff8000208e17: cc                   	int3
ffffff8000208e18: cc                   	int3
ffffff8000208e19: cc                   	int3
ffffff8000208e1a: cc                   	int3
ffffff8000208e1b: cc                   	int3
ffffff8000208e1c: cc                   	int3
ffffff8000208e1d: cc                   	int3
ffffff8000208e1e: cc                   	int3
ffffff8000208e1f: cc                   	int3
ffffff8000208e20: cc                   	int3
ffffff8000208e21: cc                   	int3
ffffff8000208e22: cc                   	int3
ffffff8000208e23: cc                   	int3
ffffff8000208e24: cc                   	int3
ffffff8000208e25: cc                   	int3
ffffff8000208e26: cc                   	int3
ffffff8000208e27: cc                   	int3
ffffff8000208e28: cc                   	int3
ffffff8000208e29: cc                   	int3
ffffff8000208e2a: cc                   	int3
ffffff8000208e2b: cc                   	int3
ffffff8000208e2c: cc                   	int3
ffffff8000208e2d: cc                   	int3
ffffff8000208e2e: cc                   	int3
ffffff8000208e2f: cc                   	int3
ffffff8000208e30: cc                   	int3
ffffff8000208e31: cc                   	int3
ffffff8000208e32: cc                   	int3
ffffff8000208e33: cc                   	int3
ffffff8000208e34: cc                   	int3
ffffff8000208e35: cc                   	int3
ffffff8000208e36: cc                   	int3
ffffff8000208e37: cc                   	int3
ffffff8000208e38: cc                   	int3
ffffff8000208e39: cc                   	int3
ffffff8000208e3a: cc                   	int3
ffffff8000208e3b: cc                   	int3
ffffff8000208e3c: cc                   	int3
ffffff8000208e3d: cc                   	int3
ffffff8000208e3e: cc                   	int3
ffffff8000208e3f: cc                   	int3
ffffff8000208e40: cc                   	int3
ffffff8000208e41: cc                   	int3
ffffff8000208e42: cc                   	int3
ffffff8000208e43: cc                   	int3
ffffff8000208e44: cc                   	int3
ffffff8000208e45: cc                   	int3
ffffff8000208e46: cc                   	int3
ffffff8000208e47: cc                   	int3
ffffff8000208e48: cc                   	int3
ffffff8000208e49: cc                   	int3
ffffff8000208e4a: cc                   	int3
ffffff8000208e4b: cc                   	int3
ffffff8000208e4c: cc                   	int3
ffffff8000208e4d: cc                   	int3
ffffff8000208e4e: cc                   	int3
ffffff8000208e4f: cc                   	int3
ffffff8000208e50: cc                   	int3
ffffff8000208e51: cc                   	int3
ffffff8000208e52: cc                   	int3
ffffff8000208e53: cc                   	int3
ffffff8000208e54: cc                   	int3
ffffff8000208e55: cc                   	int3
ffffff8000208e56: cc                   	int3
ffffff8000208e57: cc                   	int3
ffffff8000208e58: cc                   	int3
ffffff8000208e59: cc                   	int3
ffffff8000208e5a: cc                   	int3
ffffff8000208e5b: cc                   	int3
ffffff8000208e5c: cc                   	int3
ffffff8000208e5d: cc                   	int3
ffffff8000208e5e: cc                   	int3
ffffff8000208e5f: cc                   	int3
ffffff8000208e60: cc                   	int3
ffffff8000208e61: cc                   	int3
ffffff8000208e62: cc                   	int3
ffffff8000208e63: cc                   	int3
ffffff8000208e64: cc                   	int3
ffffff8000208e65: cc                   	int3
ffffff8000208e66: cc                   	int3
ffffff8000208e67: cc                   	int3
ffffff8000208e68: cc                   	int3
ffffff8000208e69: cc                   	int3
ffffff8000208e6a: cc                   	int3
ffffff8000208e6b: cc                   	int3
ffffff8000208e6c: cc                   	int3
ffffff8000208e6d: cc                   	int3
ffffff8000208e6e: cc                   	int3
ffffff8000208e6f: cc                   	int3
ffffff8000208e70: cc                   	int3
ffffff8000208e71: cc                   	int3
ffffff8000208e72: cc                   	int3
ffffff8000208e73: cc                   	int3
ffffff8000208e74: cc                   	int3
ffffff8000208e75: cc                   	int3
ffffff8000208e76: cc                   	int3
ffffff8000208e77: cc                   	int3
ffffff8000208e78: cc                   	int3
ffffff8000208e79: cc                   	int3
ffffff8000208e7a: cc                   	int3
ffffff8000208e7b: cc                   	int3
ffffff8000208e7c: cc                   	int3
ffffff8000208e7d: cc                   	int3
ffffff8000208e7e: cc                   	int3
ffffff8000208e7f: cc                   	int3
ffffff8000208e80: cc                   	int3
ffffff8000208e81: cc                   	int3
ffffff8000208e82: cc                   	int3
ffffff8000208e83: cc                   	int3
ffffff8000208e84: cc                   	int3
ffffff8000208e85: cc                   	int3
ffffff8000208e86: cc                   	int3
ffffff8000208e87: cc                   	int3
ffffff8000208e88: cc                   	int3
ffffff8000208e89: cc                   	int3
ffffff8000208e8a: cc                   	int3
ffffff8000208e8b: cc                   	int3
ffffff8000208e8c: cc                   	int3
ffffff8000208e8d: cc                   	int3
ffffff8000208e8e: cc                   	int3
ffffff8000208e8f: cc                   	int3
ffffff8000208e90: cc                   	int3
ffffff8000208e91: cc                   	int3
ffffff8000208e92: cc                   	int3
ffffff8000208e93: cc                   	int3
ffffff8000208e94: cc                   	int3
ffffff8000208e95: cc                   	int3
ffffff8000208e96: cc                   	int3
ffffff8000208e97: cc                   	int3
ffffff8000208e98: cc                   	int3
ffffff8000208e99: cc                   	int3
ffffff8000208e9a: cc                   	int3
ffffff8000208e9b: cc                   	int3
ffffff8000208e9c: cc                   	int3
ffffff8000208e9d: cc                   	int3
ffffff8000208e9e: cc                   	int3
ffffff8000208e9f: cc                   	int3
ffffff8000208ea0: cc                   	int3
ffffff8000208ea1: cc                   	int3
ffffff8000208ea2: cc                   	int3
ffffff8000208ea3: cc                   	int3
ffffff8000208ea4: cc                   	int3
ffffff8000208ea5: cc                   	int3
ffffff8000208ea6: cc                   	int3
ffffff8000208ea7: cc                   	int3
ffffff8000208ea8: cc                   	int3
ffffff8000208ea9: cc                   	int3
ffffff8000208eaa: cc                   	int3
ffffff8000208eab: cc                   	int3
ffffff8000208eac: cc                   	int3
ffffff8000208ead: cc                   	int3
ffffff8000208eae: cc                   	int3
ffffff8000208eaf: cc                   	int3
ffffff8000208eb0: cc                   	int3
ffffff8000208eb1: cc                   	int3
ffffff8000208eb2: cc                   	int3
ffffff8000208eb3: cc                   	int3
ffffff8000208eb4: cc                   	int3
ffffff8000208eb5: cc                   	int3
ffffff8000208eb6: cc                   	int3
ffffff8000208eb7: cc                   	int3
ffffff8000208eb8: cc                   	int3
ffffff8000208eb9: cc                   	int3
ffffff8000208eba: cc                   	int3
ffffff8000208ebb: cc                   	int3
ffffff8000208ebc: cc                   	int3
ffffff8000208ebd: cc                   	int3
ffffff8000208ebe: cc                   	int3
ffffff8000208ebf: cc                   	int3
ffffff8000208ec0: cc                   	int3
ffffff8000208ec1: cc                   	int3
ffffff8000208ec2: cc                   	int3
ffffff8000208ec3: cc                   	int3
ffffff8000208ec4: cc                   	int3
ffffff8000208ec5: cc                   	int3
ffffff8000208ec6: cc                   	int3
ffffff8000208ec7: cc                   	int3
ffffff8000208ec8: cc                   	int3
ffffff8000208ec9: cc                   	int3
ffffff8000208eca: cc                   	int3
ffffff8000208ecb: cc                   	int3
ffffff8000208ecc: cc                   	int3
ffffff8000208ecd: cc                   	int3
ffffff8000208ece: cc                   	int3
ffffff8000208ecf: cc                   	int3
ffffff8000208ed0: cc                   	int3
ffffff8000208ed1: cc                   	int3
ffffff8000208ed2: cc                   	int3
ffffff8000208ed3: cc                   	int3
ffffff8000208ed4: cc                   	int3
ffffff8000208ed5: cc                   	int3
ffffff8000208ed6: cc                   	int3
ffffff8000208ed7: cc                   	int3
ffffff8000208ed8: cc                   	int3
ffffff8000208ed9: cc                   	int3
ffffff8000208eda: cc                   	int3
ffffff8000208edb: cc                   	int3
ffffff8000208edc: cc                   	int3
ffffff8000208edd: cc                   	int3
ffffff8000208ede: cc                   	int3
ffffff8000208edf: cc                   	int3
ffffff8000208ee0: cc                   	int3
ffffff8000208ee1: cc                   	int3
ffffff8000208ee2: cc                   	int3
ffffff8000208ee3: cc                   	int3
ffffff8000208ee4: cc                   	int3
ffffff8000208ee5: cc                   	int3
ffffff8000208ee6: cc                   	int3
ffffff8000208ee7: cc                   	int3
ffffff8000208ee8: cc                   	int3
ffffff8000208ee9: cc                   	int3
ffffff8000208eea: cc                   	int3
ffffff8000208eeb: cc                   	int3
ffffff8000208eec: cc                   	int3
ffffff8000208eed: cc                   	int3
ffffff8000208eee: cc                   	int3
ffffff8000208eef: cc                   	int3
ffffff8000208ef0: cc                   	int3
ffffff8000208ef1: cc                   	int3
ffffff8000208ef2: cc                   	int3
ffffff8000208ef3: cc                   	int3
ffffff8000208ef4: cc                   	int3
ffffff8000208ef5: cc                   	int3
ffffff8000208ef6: cc                   	int3
ffffff8000208ef7: cc                   	int3
ffffff8000208ef8: cc                   	int3
ffffff8000208ef9: cc                   	int3
ffffff8000208efa: cc                   	int3
ffffff8000208efb: cc                   	int3
ffffff8000208efc: cc                   	int3
ffffff8000208efd: cc                   	int3
ffffff8000208efe: cc                   	int3
ffffff8000208eff: cc                   	int3
ffffff8000208f00: cc                   	int3
ffffff8000208f01: cc                   	int3
ffffff8000208f02: cc                   	int3
ffffff8000208f03: cc                   	int3
ffffff8000208f04: cc                   	int3
ffffff8000208f05: cc                   	int3
ffffff8000208f06: cc                   	int3
ffffff8000208f07: cc                   	int3
ffffff8000208f08: cc                   	int3
ffffff8000208f09: cc                   	int3
ffffff8000208f0a: cc                   	int3
ffffff8000208f0b: cc                   	int3
ffffff8000208f0c: cc                   	int3
ffffff8000208f0d: cc                   	int3
ffffff8000208f0e: cc                   	int3
ffffff8000208f0f: cc                   	int3
ffffff8000208f10: cc                   	int3
ffffff8000208f11: cc                   	int3
ffffff8000208f12: cc                   	int3
ffffff8000208f13: cc                   	int3
ffffff8000208f14: cc                   	int3
ffffff8000208f15: cc                   	int3
ffffff8000208f16: cc                   	int3
ffffff8000208f17: cc                   	int3
ffffff8000208f18: cc                   	int3
ffffff8000208f19: cc                   	int3
ffffff8000208f1a: cc                   	int3
ffffff8000208f1b: cc                   	int3
ffffff8000208f1c: cc                   	int3
ffffff8000208f1d: cc                   	int3
ffffff8000208f1e: cc                   	int3
ffffff8000208f1f: cc                   	int3
ffffff8000208f20: cc                   	int3
ffffff8000208f21: cc                   	int3
ffffff8000208f22: cc                   	int3
ffffff8000208f23: cc                   	int3
ffffff8000208f24: cc                   	int3
ffffff8000208f25: cc                   	int3
ffffff8000208f26: cc                   	int3
ffffff8000208f27: cc                   	int3
ffffff8000208f28: cc                   	int3
ffffff8000208f29: cc                   	int3
ffffff8000208f2a: cc                   	int3
ffffff8000208f2b: cc                   	int3
ffffff8000208f2c: cc                   	int3
ffffff8000208f2d: cc                   	int3
ffffff8000208f2e: cc                   	int3
ffffff8000208f2f: cc                   	int3
ffffff8000208f30: cc                   	int3
ffffff8000208f31: cc                   	int3
ffffff8000208f32: cc                   	int3
ffffff8000208f33: cc                   	int3
ffffff8000208f34: cc                   	int3
ffffff8000208f35: cc                   	int3
ffffff8000208f36: cc                   	int3
ffffff8000208f37: cc                   	int3
ffffff8000208f38: cc                   	int3
ffffff8000208f39: cc                   	int3
ffffff8000208f3a: cc                   	int3
ffffff8000208f3b: cc                   	int3
ffffff8000208f3c: cc                   	int3
ffffff8000208f3d: cc                   	int3
ffffff8000208f3e: cc                   	int3
ffffff8000208f3f: cc                   	int3
ffffff8000208f40: cc                   	int3
ffffff8000208f41: cc                   	int3
ffffff8000208f42: cc                   	int3
ffffff8000208f43: cc                   	int3
ffffff8000208f44: cc                   	int3
ffffff8000208f45: cc                   	int3
ffffff8000208f46: cc                   	int3
ffffff8000208f47: cc                   	int3
ffffff8000208f48: cc                   	int3
ffffff8000208f49: cc                   	int3
ffffff8000208f4a: cc                   	int3
ffffff8000208f4b: cc                   	int3
ffffff8000208f4c: cc                   	int3
ffffff8000208f4d: cc                   	int3
ffffff8000208f4e: cc                   	int3
ffffff8000208f4f: cc                   	int3
ffffff8000208f50: cc                   	int3
ffffff8000208f51: cc                   	int3
ffffff8000208f52: cc                   	int3
ffffff8000208f53: cc                   	int3
ffffff8000208f54: cc                   	int3
ffffff8000208f55: cc                   	int3
ffffff8000208f56: cc                   	int3
ffffff8000208f57: cc                   	int3
ffffff8000208f58: cc                   	int3
ffffff8000208f59: cc                   	int3
ffffff8000208f5a: cc                   	int3
ffffff8000208f5b: cc                   	int3
ffffff8000208f5c: cc                   	int3
ffffff8000208f5d: cc                   	int3
ffffff8000208f5e: cc                   	int3
ffffff8000208f5f: cc                   	int3
ffffff8000208f60: cc                   	int3
ffffff8000208f61: cc                   	int3
ffffff8000208f62: cc                   	int3
ffffff8000208f63: cc                   	int3
ffffff8000208f64: cc                   	int3
ffffff8000208f65: cc                   	int3
ffffff8000208f66: cc                   	int3
ffffff8000208f67: cc                   	int3
ffffff8000208f68: cc                   	int3
ffffff8000208f69: cc                   	int3
ffffff8000208f6a: cc                   	int3
ffffff8000208f6b: cc                   	int3
ffffff8000208f6c: cc                   	int3
ffffff8000208f6d: cc                   	int3
ffffff8000208f6e: cc                   	int3
ffffff8000208f6f: cc                   	int3
ffffff8000208f70: cc                   	int3
ffffff8000208f71: cc                   	int3
ffffff8000208f72: cc                   	int3
ffffff8000208f73: cc                   	int3
ffffff8000208f74: cc                   	int3
ffffff8000208f75: cc                   	int3
ffffff8000208f76: cc                   	int3
ffffff8000208f77: cc                   	int3
ffffff8000208f78: cc                   	int3
ffffff8000208f79: cc                   	int3
ffffff8000208f7a: cc                   	int3
ffffff8000208f7b: cc                   	int3
ffffff8000208f7c: cc                   	int3
ffffff8000208f7d: cc                   	int3
ffffff8000208f7e: cc                   	int3
ffffff8000208f7f: cc                   	int3
ffffff8000208f80: cc                   	int3
ffffff8000208f81: cc                   	int3
ffffff8000208f82: cc                   	int3
ffffff8000208f83: cc                   	int3
ffffff8000208f84: cc                   	int3
ffffff8000208f85: cc                   	int3
ffffff8000208f86: cc                   	int3
ffffff8000208f87: cc                   	int3
ffffff8000208f88: cc                   	int3
ffffff8000208f89: cc                   	int3
ffffff8000208f8a: cc                   	int3
ffffff8000208f8b: cc                   	int3
ffffff8000208f8c: cc                   	int3
ffffff8000208f8d: cc                   	int3
ffffff8000208f8e: cc                   	int3
ffffff8000208f8f: cc                   	int3
ffffff8000208f90: cc                   	int3
ffffff8000208f91: cc                   	int3
ffffff8000208f92: cc                   	int3
ffffff8000208f93: cc                   	int3
ffffff8000208f94: cc                   	int3
ffffff8000208f95: cc                   	int3
ffffff8000208f96: cc                   	int3
ffffff8000208f97: cc                   	int3
ffffff8000208f98: cc                   	int3
ffffff8000208f99: cc                   	int3
ffffff8000208f9a: cc                   	int3
ffffff8000208f9b: cc                   	int3
ffffff8000208f9c: cc                   	int3
ffffff8000208f9d: cc                   	int3
ffffff8000208f9e: cc                   	int3
ffffff8000208f9f: cc                   	int3
ffffff8000208fa0: cc                   	int3
ffffff8000208fa1: cc                   	int3
ffffff8000208fa2: cc                   	int3
ffffff8000208fa3: cc                   	int3
ffffff8000208fa4: cc                   	int3
ffffff8000208fa5: cc                   	int3
ffffff8000208fa6: cc                   	int3
ffffff8000208fa7: cc                   	int3
ffffff8000208fa8: cc                   	int3
ffffff8000208fa9: cc                   	int3
ffffff8000208faa: cc                   	int3
ffffff8000208fab: cc                   	int3
ffffff8000208fac: cc                   	int3
ffffff8000208fad: cc                   	int3
ffffff8000208fae: cc                   	int3
ffffff8000208faf: cc                   	int3
ffffff8000208fb0: cc                   	int3
ffffff8000208fb1: cc                   	int3
ffffff8000208fb2: cc                   	int3
ffffff8000208fb3: cc                   	int3
ffffff8000208fb4: cc                   	int3
ffffff8000208fb5: cc                   	int3
ffffff8000208fb6: cc                   	int3
ffffff8000208fb7: cc                   	int3
ffffff8000208fb8: cc                   	int3
ffffff8000208fb9: cc                   	int3
ffffff8000208fba: cc                   	int3
ffffff8000208fbb: cc                   	int3
ffffff8000208fbc: cc                   	int3
ffffff8000208fbd: cc                   	int3
ffffff8000208fbe: cc                   	int3
ffffff8000208fbf: cc                   	int3
ffffff8000208fc0: cc                   	int3
ffffff8000208fc1: cc                   	int3
ffffff8000208fc2: cc                   	int3
ffffff8000208fc3: cc                   	int3
ffffff8000208fc4: cc                   	int3
ffffff8000208fc5: cc                   	int3
ffffff8000208fc6: cc                   	int3
ffffff8000208fc7: cc                   	int3
ffffff8000208fc8: cc                   	int3
ffffff8000208fc9: cc                   	int3
ffffff8000208fca: cc                   	int3
ffffff8000208fcb: cc                   	int3
ffffff8000208fcc: cc                   	int3
ffffff8000208fcd: cc                   	int3
ffffff8000208fce: cc                   	int3
ffffff8000208fcf: cc                   	int3
ffffff8000208fd0: cc                   	int3
ffffff8000208fd1: cc                   	int3
ffffff8000208fd2: cc                   	int3
ffffff8000208fd3: cc                   	int3
ffffff8000208fd4: cc                   	int3
ffffff8000208fd5: cc                   	int3
ffffff8000208fd6: cc                   	int3
ffffff8000208fd7: cc                   	int3
ffffff8000208fd8: cc                   	int3
ffffff8000208fd9: cc                   	int3
ffffff8000208fda: cc                   	int3
ffffff8000208fdb: cc                   	int3
ffffff8000208fdc: cc                   	int3
ffffff8000208fdd: cc                   	int3
ffffff8000208fde: cc                   	int3
ffffff8000208fdf: cc                   	int3
ffffff8000208fe0: cc                   	int3
ffffff8000208fe1: cc                   	int3
ffffff8000208fe2: cc                   	int3
ffffff8000208fe3: cc                   	int3
ffffff8000208fe4: cc                   	int3
ffffff8000208fe5: cc                   	int3
ffffff8000208fe6: cc                   	int3
ffffff8000208fe7: cc                   	int3
ffffff8000208fe8: cc                   	int3
ffffff8000208fe9: cc                   	int3
ffffff8000208fea: cc                   	int3
ffffff8000208feb: cc                   	int3
ffffff8000208fec: cc                   	int3
ffffff8000208fed: cc                   	int3
ffffff8000208fee: cc                   	int3
ffffff8000208fef: cc                   	int3
ffffff8000208ff0: cc                   	int3
ffffff8000208ff1: cc                   	int3
ffffff8000208ff2: cc                   	int3
ffffff8000208ff3: cc                   	int3
ffffff8000208ff4: cc                   	int3
ffffff8000208ff5: cc                   	int3
ffffff8000208ff6: cc                   	int3
ffffff8000208ff7: cc                   	int3
ffffff8000208ff8: cc                   	int3
ffffff8000208ff9: cc                   	int3
ffffff8000208ffa: cc                   	int3
ffffff8000208ffb: cc                   	int3
ffffff8000208ffc: cc                   	int3
ffffff8000208ffd: cc                   	int3
ffffff8000208ffe: cc                   	int3
ffffff8000208fff: cc                   	int3
